 hl

 Timestamp is 51a8a591 (Fri May 31 17:28:49 2013)

 Preferred load address is 10000000

 Start         Length     Name                   Class
 0001:00000000 000c38e8H .text                   CODE
 0002:00000000 00000138H .idata$5                DATA
 0002:00000140 000154bcH .rdata                  DATA
 0002:000155fc 00000014H .idata$2                DATA
 0002:00015610 00000014H .idata$3                DATA
 0002:00015624 00000138H .idata$4                DATA
 0002:0001575c 00000568H .idata$6                DATA
 0002:00015cd0 00004616H .edata                  DATA
 0003:00000000 00000004H .CRT$XCA                DATA
 0003:00000004 00000034H .CRT$XCU                DATA
 0003:00000038 00000004H .CRT$XCZ                DATA
 0003:0000003c 00000004H .CRT$XIA                DATA
 0003:00000040 0000000cH .CRT$XIC                DATA
 0003:0000004c 00000004H .CRT$XIZ                DATA
 0003:00000050 00000004H .CRT$XPA                DATA
 0003:00000054 00000004H .CRT$XPX                DATA
 0003:00000058 00000004H .CRT$XPZ                DATA
 0003:0000005c 00000004H .CRT$XTA                DATA
 0003:00000060 00000004H .CRT$XTZ                DATA
 0003:00000070 0001fb7cH .data                   DATA
 0003:0001fbf0 00011d88H .bss                    DATA

  Address         Publics by Value              Rva+Base     Lib:Object

 0001:00000000       ?Save@CFlockingFlyerFlock@@UAEHAAVCSave@@@Z 10001000 f   aflock.obj
 0001:00000039       ?Restore@CFlockingFlyerFlock@@UAEHAAVCRestore@@@Z 10001039 f   aflock.obj
 0001:00000072       _monster_flyer             10001072 f   aflock.obj
 0001:00000083       _monster_flyer_flock       10001083 f   aflock.obj
 0001:00000094       ?Save@CFlockingFlyer@@UAEHAAVCSave@@@Z 10001094 f   aflock.obj
 0001:000000cd       ?Restore@CFlockingFlyer@@UAEHAAVCRestore@@@Z 100010cd f   aflock.obj
 0001:00000106       ?KeyValue@CFlockingFlyerFlock@@UAEXPAUKeyValueData_s@@@Z 10001106 f   aflock.obj
 0001:00000189       ?Spawn@CFlockingFlyerFlock@@UAEXXZ 10001189 f   aflock.obj
 0001:000001c0       ?Precache@CFlockingFlyerFlock@@UAEXXZ 100011c0 f   aflock.obj
 0001:000001de       ?PrecacheFlockSounds@CFlockingFlyerFlock@@SAXXZ 100011de f   aflock.obj
 0001:0000021b       ?SpawnFlock@CFlockingFlyerFlock@@QAEXXZ 1000121b f   aflock.obj
 0001:000003e5       ?Spawn@CFlockingFlyer@@UAEXXZ 100013e5 f   aflock.obj
 0001:0000043c       ?Precache@CFlockingFlyer@@UAEXXZ 1000143c f   aflock.obj
 0001:0000045a       ?MakeSound@CFlockingFlyer@@QAEXXZ 1000145a f   aflock.obj
 0001:00000565       ?Killed@CFlockingFlyer@@UAEXPAUentvars_s@@H@Z 10001565 f   aflock.obj
 0001:0000065d       ?FallHack@CFlockingFlyer@@QAEXXZ 1000165d f   aflock.obj
 0001:00000709       ?SpawnCommonCode@CFlockingFlyer@@QAEXXZ 10001709 f   aflock.obj
 0001:000007f3       ?BoidAdvanceFrame@CFlockingFlyer@@QAEXXZ 100017f3 f   aflock.obj
 0001:000008f4       ?IdleThink@CFlockingFlyer@@QAEXXZ 100018f4 f   aflock.obj
 0001:00000963       ?Start@CFlockingFlyer@@QAEXXZ 10001963 f   aflock.obj
 0001:000009de       ?FormFlock@CFlockingFlyer@@QAEXXZ 100019de f   aflock.obj
 0001:00000ad0       ?SpreadFlock@CFlockingFlyer@@QAEXXZ 10001ad0 f   aflock.obj
 0001:00000c40       ?SpreadFlock2@CFlockingFlyer@@QAEXXZ 10001c40 f   aflock.obj
 0001:00000d31       ?FPathBlocked@CFlockingFlyer@@QAEHXZ 10001d31 f   aflock.obj
 0001:00001043       ?FlockLeaderThink@CFlockingFlyer@@QAEXXZ 10002043 f   aflock.obj
 0001:00001524       ?FlockFollowerThink@CFlockingFlyer@@QAEXXZ 10002524 f   aflock.obj
 0001:000018bc       ?SquadUnlink@CFlockingFlyer@@QAEXXZ 100028bc f   aflock.obj
 0001:000018e1       ?SquadAdd@CFlockingFlyer@@QAEXPAV1@@Z 100028e1 f   aflock.obj
 0001:00001918       ?SquadRemove@CFlockingFlyer@@QAEXPAV1@@Z 10002918 f   aflock.obj
 0001:000019e9       ?SquadCount@CFlockingFlyer@@QAEHXZ 100029e9 f   aflock.obj
 0001:00001a29       ?SquadDisband@CFlockingFlyer@@QAEXXZ 10002a29 f   aflock.obj
 0001:00001a70       ?IsLeader@CFlockingFlyer@@QAEHXZ 10002a70 f i aflock.obj
 0001:00001a90       ?InSquad@CFlockingFlyer@@QAEHXZ 10002a90 f i aflock.obj
 0001:00001ab0       ??0Vector@@QAE@XZ          10002ab0 f i aflock.obj
 0001:00001ac0       ??0Vector@@QAE@MMM@Z       10002ac0 f i aflock.obj
 0001:00001af0       ??HVector@@QBE?AV0@ABV0@@Z 10002af0 f i aflock.obj
 0001:00001b50       ??0Vector@@QAE@ABV0@@Z     10002b50 f i aflock.obj
 0001:00001b90       ??GVector@@QBE?AV0@ABV0@@Z 10002b90 f i aflock.obj
 0001:00001bf0       ??DVector@@QBE?AV0@M@Z     10002bf0 f i aflock.obj
 0001:00001c40       ?Length@Vector@@QBEMXZ     10002c40 f i aflock.obj
 0001:00001c90       ?Normalize@Vector@@QBE?AV1@XZ 10002c90 f i aflock.obj
 0001:00001d20       ??0TraceResult@@QAE@XZ     10002d20 f i aflock.obj
 0001:00001d50       ?ENT@@YAPAUedict_s@@PBUentvars_s@@@Z 10002d50 f i aflock.obj
 0001:00001d60       ?FNullEnt@@YAHPBUedict_s@@@Z 10002d60 f i aflock.obj
 0001:00001da0       ?OFFSET@@YAHPBUedict_s@@@Z 10002da0 f i aflock.obj
 0001:00001dc0       ?FNullEnt@@YAHH@Z          10002dc0 f i aflock.obj
 0001:00001dd0       ?FStrEq@@YAHPBD0@Z         10002dd0 f i aflock.obj
 0001:00001df0       ?FClassnameIs@@YAHPAUedict_s@@PBD@Z 10002df0 f i aflock.obj
 0001:00001e20       ?VARS@@YAPAUentvars_s@@PAUedict_s@@@Z 10002e20 f i aflock.obj
 0001:00001e40       ?FClassnameIs@@YAHPAUentvars_s@@PBD@Z 10002e40 f i aflock.obj
 0001:00001e70       ?EMIT_SOUND@@YAXPAUedict_s@@HPBDMM@Z 10002e70 f i aflock.obj
 0001:00001ea0       ?GetClassPtr@@YAPAVCFlockingFlyer@@PAV1@@Z 10002ea0 f i aflock.obj
 0001:00001f30       ?GET_PRIVATE@@YAPAXPAUedict_s@@@Z 10002f30 f i aflock.obj
 0001:00001f50       ?GetClassPtr@@YAPAVCFlockingFlyerFlock@@PAV1@@Z 10002f50 f i aflock.obj
 0001:00001fe0       ??0CFlockingFlyer@@QAE@XZ  10002fe0 f i aflock.obj
 0001:00002020       ?ObjectCaps@CBaseEntity@@UAEHXZ 10003020 f i aflock.obj
 0001:00002030       ?Activate@CBaseEntity@@UAEXXZ 10003030 f i aflock.obj
 0001:00002040       ?Classify@CBaseEntity@@UAEHXZ 10003040 f i aflock.obj
 0001:00002050       ?DeathNotice@CBaseEntity@@UAEXPAUentvars_s@@@Z 10003050 f i aflock.obj
 0001:00002060       ?IsTriggered@CBaseEntity@@UAEHPAV1@@Z 10003060 f i aflock.obj
 0001:00002080       ?MySquadMonsterPointer@CBaseEntity@@UAEPAVCSquadMonster@@XZ 10003080 f i aflock.obj
 0001:00002090       ?AddPoints@CBaseEntity@@UAEXHH@Z 10003090 f i aflock.obj
 0001:000020a0       ?AddPointsToTeam@CBaseEntity@@UAEXHH@Z 100030a0 f i aflock.obj
 0001:000020b0       ?AddPlayerItem@CBaseEntity@@UAEHPAVCBasePlayerItem@@@Z 100030b0 f i aflock.obj
 0001:000020c0       ?RemovePlayerItem@CBaseEntity@@UAEHPAVCBasePlayerItem@@@Z 100030c0 f i aflock.obj
 0001:000020d0       ?GiveAmmo@CBaseEntity@@UAEHHPADH@Z 100030d0 f i aflock.obj
 0001:000020e0       ?OverrideReset@CBaseEntity@@UAEXXZ 100030e0 f i aflock.obj
 0001:000020f0       ?SetToggleState@CBaseEntity@@UAEXH@Z 100030f0 f i aflock.obj
 0001:00002100       ?StartSneaking@CBaseEntity@@UAEXXZ 10003100 f i aflock.obj
 0001:00002110       ?StopSneaking@CBaseEntity@@UAEXXZ 10003110 f i aflock.obj
 0001:00002120       ?OnControls@CBaseEntity@@UAEHPAUentvars_s@@@Z 10003120 f i aflock.obj
 0001:00002130       ?IsSneaking@CBaseEntity@@UAEHXZ 10003130 f i aflock.obj
 0001:00002140       ?IsBSPModel@CBaseEntity@@UAEHXZ 10003140 f i aflock.obj
 0001:00002180       ?ReflectGauss@CBaseEntity@@UAEHXZ 10003180 f i aflock.obj
 0001:000021d0       ?HasTarget@CBaseEntity@@UAEHH@Z 100031d0 f i aflock.obj
 0001:00002210       ?IsPlayer@CBaseEntity@@UAEHXZ 10003210 f i aflock.obj
 0001:00002220       ?IsNetClient@CBaseEntity@@UAEHXZ 10003220 f i aflock.obj
 0001:00002230       ??0CFlockingFlyerFlock@@QAE@XZ 10003230 f i aflock.obj
 0001:00002250       ?TeamID@CBaseEntity@@UAEPBDXZ 10003250 f i aflock.obj
 0001:00002260       ?Think@CBaseEntity@@UAEXXZ 10003260 f i aflock.obj
 0001:00002280       ??0CBaseMonster@@QAE@XZ    10003280 f i aflock.obj
 0001:00002310       ?Spawn@CBaseEntity@@UAEXXZ 10003310 f i aflock.obj
 0001:00002320       ?Precache@CBaseEntity@@UAEXXZ 10003320 f i aflock.obj
 0001:00002330       ?Touch@CBaseEntity@@UAEXPAV1@@Z 10003330 f i aflock.obj
 0001:00002360       ?Use@CBaseEntity@@UAEXPAV1@0W4USE_TYPE@@M@Z 10003360 f i aflock.obj
 0001:00002390       ??0CBaseToggle@@QAE@XZ     10003390 f i aflock.obj
 0001:00002410       ?BloodColor@CBaseEntity@@UAEHXZ 10003410 f i aflock.obj
 0001:00002420       ?MyMonsterPointer@CBaseEntity@@UAEPAVCBaseMonster@@XZ 10003420 f i aflock.obj
 0001:00002430       ?IsMoving@CBaseEntity@@UAEHXZ 10003430 f i aflock.obj
 0001:00002450       ??9Vector@@QBEHABV0@@Z     10003450 f i aflock.obj
 0001:00002470       ??8Vector@@QBEHABV0@@Z     10003470 f i aflock.obj
 0001:000024d0       ?IsAlive@CBaseEntity@@UAEHXZ 100034d0 f i aflock.obj
 0001:00002520       ?Blocked@CBaseEntity@@UAEXPAV1@@Z 10003520 f i aflock.obj
 0001:00002550       ??2CBaseEntity@@SAPAXIPAUentvars_s@@@Z 10003550 f i aflock.obj
 0001:00002570       ??_H@YGXPAXIHP6EX0@Z@Z     10003570 f i aflock.obj
 0001:000025a0       ??0WayPoint_t@@QAE@XZ      100035a0 f i aflock.obj
 0001:000025c0       ?SUB_CallUseToggle@CBaseEntity@@QAEXXZ 100035c0 f i aflock.obj
 0001:000025f0       ??0CBaseAnimating@@QAE@XZ  100035f0 f i aflock.obj
 0001:00002610       ?GetToggleState@CBaseEntity@@UAEHXZ 10003610 f i aflock.obj
 0001:00002620       ?GetDelay@CBaseEntity@@UAEMXZ 10003620 f i aflock.obj
 0001:00002640       ??0CBaseDelay@@QAE@XZ      10003640 f i aflock.obj
 0001:00002660       ?Respawn@CBaseEntity@@UAEPAV1@XZ 10003660 f i aflock.obj
 0001:00002670       ??0CBaseEntity@@QAE@XZ     10003670 f i aflock.obj
 0001:00002690       ?KeyValue@CBaseEntity@@UAEXPAUKeyValueData_s@@@Z 10003690 f i aflock.obj
 0001:000026b0       ?UpdateOwner@CBaseEntity@@UAEXXZ 100036b0 f i aflock.obj
 0001:000026c0       ?FBecomeProne@CBaseEntity@@UAEHXZ 100036c0 f i aflock.obj
 0001:000026d0       ?edict@CBaseEntity@@QAEPAUedict_s@@XZ 100036d0 f i aflock.obj
 0001:000026f0       ?Center@CBaseEntity@@UAE?AVVector@@XZ 100036f0 f i aflock.obj
 0001:00002740       ?EyePosition@CBaseEntity@@UAE?AVVector@@XZ 10003740 f i aflock.obj
 0001:00002780       ?EarPosition@CBaseEntity@@UAE?AVVector@@XZ 10003780 f i aflock.obj
 0001:000027c0       ?BodyTarget@CBaseEntity@@UAE?AVVector@@ABV2@@Z 100037c0 f i aflock.obj
 0001:000027f0       ?Illumination@CBaseEntity@@UAEHXZ 100037f0 f i aflock.obj
 0001:00002820       ?HandleAnimEvent@CBaseAnimating@@UAEXPAUMonsterEvent_t@@@Z 10003820 f i aflock.obj
 0001:00002830       ?GetToggleState@CBaseToggle@@UAEHXZ 10003830 f i aflock.obj
 0001:00002850       ?GetDelay@CBaseToggle@@UAEMXZ 10003850 f i aflock.obj
 0001:00002870       ?BloodColor@CBaseMonster@@UAEHXZ 10003870 f i aflock.obj
 0001:00002890       ?MyMonsterPointer@CBaseMonster@@UAEPAV1@XZ 10003890 f i aflock.obj
 0001:000028a0       ?IsAlive@CBaseMonster@@UAEHXZ 100038a0 f i aflock.obj
 0001:000028c0       ?CallMonsterThink@CBaseMonster@@QAEXXZ 100038c0 f i aflock.obj
 0001:000028e0       ?GetStoppedActivity@CBaseMonster@@UAE?AW4Activity@@XZ 100038e0 f i aflock.obj
 0001:000028f0       ?Stop@CBaseMonster@@UAEXXZ 100038f0 f i aflock.obj
 0001:00002920       ?ScheduleChange@CBaseMonster@@UAEXXZ 10003920 f i aflock.obj
 0001:00002930       ?CanPlaySentence@CBaseMonster@@UAEHH@Z 10003930 f i aflock.obj
 0001:00002950       ?SetYawSpeed@CBaseMonster@@UAEXXZ 10003950 f i aflock.obj
 0001:00002960       ?FValidateCover@CBaseMonster@@UAEHABVVector@@@Z 10003960 f i aflock.obj
 0001:00002980       ?CoverRadius@CBaseMonster@@UAEMXZ 10003980 f i aflock.obj
 0001:000029a0       ?CheckAmmo@CBaseMonster@@UAEXXZ 100039a0 f i aflock.obj
 0001:000029b0       ?HearingSensitivity@CBaseMonster@@UAEMXZ 100039b0 f i aflock.obj
 0001:000029d0       ?PrescheduleThink@CBaseMonster@@UAEXXZ 100039d0 f i aflock.obj
 0001:000029e0       ?BodyTarget@CBaseMonster@@UAE?AVVector@@ABV2@@Z 100039e0 f i aflock.obj
 0001:00002a50       ?IsMoving@CBaseMonster@@UAEHXZ 10003a50 f i aflock.obj
 0001:00002a70       ?DeathSound@CBaseMonster@@UAEXXZ 10003a70 f i aflock.obj
 0001:00002a80       ?AlertSound@CBaseMonster@@UAEXXZ 10003a80 f i aflock.obj
 0001:00002a90       ?IdleSound@CBaseMonster@@UAEXXZ 10003a90 f i aflock.obj
 0001:00002aa0       ?PainSound@CBaseMonster@@UAEXXZ 10003aa0 f i aflock.obj
 0001:00002ab0       ?StopFollowing@CBaseMonster@@UAEXH@Z 10003ab0 f i aflock.obj
 0001:00002ac0       _monster_alien_grunt       10003ac0 f   agrunt.obj
 0001:00002ad1       ?Save@CAGrunt@@UAEHAAVCSave@@@Z 10003ad1 f   agrunt.obj
 0001:00002b0a       ?Restore@CAGrunt@@UAEHAAVCRestore@@@Z 10003b0a f   agrunt.obj
 0001:00002b43       ?IRelationship@CAGrunt@@UAEHPAVCBaseEntity@@@Z 10003b43 f   agrunt.obj
 0001:00002b7b       ?ISoundMask@CAGrunt@@UAEHXZ 10003b7b f   agrunt.obj
 0001:00002b8b       ?TraceAttack@CAGrunt@@UAEXPAUentvars_s@@MVVector@@PAUTraceResult@@H@Z 10003b8b f   agrunt.obj
 0001:00002dbb       ?StopTalking@CAGrunt@@QAEXXZ 10003dbb f   agrunt.obj
 0001:00002e09       ?ShouldSpeak@CAGrunt@@QAEHXZ 10003e09 f   agrunt.obj
 0001:00002e6e       ?PrescheduleThink@CAGrunt@@UAEXXZ 10003e6e f   agrunt.obj
 0001:00002f47       ?DeathSound@CAGrunt@@UAEXXZ 10003f47 f   agrunt.obj
 0001:00002f93       ?AlertSound@CAGrunt@@UAEXXZ 10003f93 f   agrunt.obj
 0001:00002fdf       ?AttackSound@CAGrunt@@QAEXXZ 10003fdf f   agrunt.obj
 0001:0000302b       ?PainSound@CAGrunt@@UAEXXZ 1000402b f   agrunt.obj
 0001:000030a8       ?Classify@CAGrunt@@UAEHXZ  100040a8 f   agrunt.obj
 0001:000030b8       ?SetYawSpeed@CAGrunt@@UAEXXZ 100040b8 f   agrunt.obj
 0001:000030fe       ?HandleAnimEvent@CAGrunt@@UAEXPAUMonsterEvent_t@@@Z 100040fe f   agrunt.obj
 0001:0000392f       ?Spawn@CAGrunt@@UAEXXZ     1000492f f   agrunt.obj
 0001:00003aab       ?Precache@CAGrunt@@UAEXXZ  10004aab f   agrunt.obj
 0001:00003c36       ?ScheduleFromName@CAGrunt@@UAEPAUSchedule_t@@PBD@Z 10004c36 f   agrunt.obj
 0001:00003c72       ?FCanCheckAttacks@CAGrunt@@UAEHXZ 10004c72 f   agrunt.obj
 0001:00003c97       ?CheckMeleeAttack1@CAGrunt@@UAEHMM@Z 10004c97 f   agrunt.obj
 0001:00003ced       ?CheckRangeAttack1@CAGrunt@@UAEHMM@Z 10004ced f   agrunt.obj
 0001:00003e98       ?StartTask@CAGrunt@@UAEXPAUTask_t@@@Z 10004e98 f   agrunt.obj
 0001:000043cf       ?GetSchedule@CAGrunt@@UAEPAUSchedule_t@@XZ 100053cf f   agrunt.obj
 0001:0000453d       ?GetScheduleOfType@CAGrunt@@UAEPAUSchedule_t@@H@Z 1000553d f   agrunt.obj
 0001:00004620       ??BVector@@QAEPAMXZ        10005620 f i agrunt.obj
 0001:00004630       ?MESSAGE_BEGIN@@YAXHHPBMPAUedict_s@@@Z 10005630 f i agrunt.obj
 0001:00004650       ?HasConditions@CBaseMonster@@QAEHH@Z 10005650 f i agrunt.obj
 0001:00004680       ?TaskComplete@CBaseMonster@@QAEXXZ 10005680 f i agrunt.obj
 0001:000046b0       ?TaskFail@CBaseMonster@@QAEXXZ 100056b0 f i agrunt.obj
 0001:000046d0       ?SetConditions@CBaseMonster@@QAEXH@Z 100056d0 f i agrunt.obj
 0001:00004700       ?GetClassPtr@@YAPAVCAGrunt@@PAV1@@Z 10005700 f i agrunt.obj
 0001:00004790       ??0CAGrunt@@QAE@XZ         10005790 f i agrunt.obj
 0001:000047b0       ?MySquadMonsterPointer@CSquadMonster@@UAEPAV1@XZ 100057b0 f i agrunt.obj
 0001:000047c0       ?SetObjectCollisionBox@CAGrunt@@UAEXXZ 100057c0 f i agrunt.obj
 0001:00004860       ??0CSquadMonster@@QAE@XZ   10005860 f i agrunt.obj
 0001:00004880       _item_airtank              10005880 f   airtank.obj
 0001:00004891       ?Save@CAirtank@@EAEHAAVCSave@@@Z 10005891 f   airtank.obj
 0001:000048ca       ?Restore@CAirtank@@EAEHAAVCRestore@@@Z 100058ca f   airtank.obj
 0001:00004903       ?Spawn@CAirtank@@EAEXXZ    10005903 f   airtank.obj
 0001:00004a1a       ?Precache@CAirtank@@EAEXXZ 10005a1a f   airtank.obj
 0001:00004a41       ?Killed@CAirtank@@EAEXPAUentvars_s@@H@Z 10005a41 f   airtank.obj
 0001:00004aa2       ?TankThink@CAirtank@@AAEXXZ 10005aa2 f   airtank.obj
 0001:00004aca       ?TankTouch@CAirtank@@AAEXPAVCBaseEntity@@@Z 10005aca f   airtank.obj
 0001:00004bb0       ?GetClassPtr@@YAPAVCAirtank@@PAV1@@Z 10005bb0 f i airtank.obj
 0001:00004c40       ??0CAirtank@@QAE@XZ        10005c40 f i airtank.obj
 0001:00004c60       ?BloodColor@CAirtank@@EAEHXZ 10005c60 f i airtank.obj
 0001:00004c70       ??0CGrenade@@QAE@XZ        10005c70 f i airtank.obj
 0001:00004c90       ?BloodColor@CGrenade@@UAEHXZ 10005c90 f i airtank.obj
 0001:00004ca0       ?Save@CBaseAnimating@@UAEHAAVCSave@@@Z 10005ca0 f   animating.obj
 0001:00004cd9       ?Restore@CBaseAnimating@@UAEHAAVCRestore@@@Z 10005cd9 f   animating.obj
 0001:00004d12       ?StudioFrameAdvance@CBaseAnimating@@QAEMM@Z 10005d12 f   animating.obj
 0001:00004e9b       ?LookupActivity@CBaseAnimating@@QAEHH@Z 10005e9b f   animating.obj
 0001:00004edd       ?LookupActivityHeaviest@CBaseAnimating@@QAEHH@Z 10005edd f   animating.obj
 0001:00004f1f       ?LookupSequence@CBaseAnimating@@QAEHPBD@Z 10005f1f f   animating.obj
 0001:00004f5a       ?ResetSequenceInfo@CBaseAnimating@@QAEXXZ 10005f5a f   animating.obj
 0001:00004ff7       ?GetSequenceFlags@CBaseAnimating@@QAEHXZ 10005ff7 f   animating.obj
 0001:00005033       ?DispatchAnimEvents@CBaseAnimating@@QAEXM@Z 10006033 f   animating.obj
 0001:00005167       ?SetBoneController@CBaseAnimating@@QAEMHM@Z 10006167 f   animating.obj
 0001:000051ad       ?InitBoneControllers@CBaseAnimating@@QAEXXZ 100061ad f   animating.obj
 0001:0000523a       ?SetBlending@CBaseAnimating@@QAEMHM@Z 1000623a f   animating.obj
 0001:00005280       ?GetBonePosition@CBaseAnimating@@QAEXHAAVVector@@0@Z 10006280 f   animating.obj
 0001:000052bc       ?GetAttachment@CBaseAnimating@@QAEXHAAVVector@@0@Z 100062bc f   animating.obj
 0001:000052f8       ?FindTransition@CBaseAnimating@@QAEHHHPAH@Z 100062f8 f   animating.obj
 0001:0000536c       ?GetAutomovement@CBaseAnimating@@QAEXAAVVector@@0M@Z 1000636c f   animating.obj
 0001:00005379       ?SetBodygroup@CBaseAnimating@@QAEXHH@Z 10006379 f   animating.obj
 0001:000053b7       ?GetBodygroup@CBaseAnimating@@QAEHH@Z 100063b7 f   animating.obj
 0001:000053f1       ?ExtractBbox@CBaseAnimating@@QAEHHPAM0@Z 100063f1 f   animating.obj
 0001:0000542c       ?SetSequenceBox@CBaseAnimating@@QAEXXZ 1000642c f   animating.obj
 0001:000056e0       ?ExtractBbox@@YAHPAXHPAM1@Z 100066e0 f   animation.obj
 0001:00005793       ?LookupActivity@@YAHPAXPAUentvars_s@@H@Z 10006793 f   animation.obj
 0001:0000584d       ?LookupActivityHeaviest@@YAHPAXPAUentvars_s@@H@Z 1000684d f   animation.obj
 0001:000058ef       ?GetEyePosition@@YAXPAXPAM@Z 100068ef f   animation.obj
 0001:00005938       ?LookupSequence@@YAHPAXPBD@Z 10006938 f   animation.obj
 0001:000059aa       ?IsSoundEvent@@YAHH@Z      100069aa f   animation.obj
 0001:000059ca       ?SequencePrecache@@YAXPAXPBD@Z 100069ca f   animation.obj
 0001:00005b0f       ?GetSequenceInfo@@YAXPAXPAUentvars_s@@PAM2@Z 10006b0f f   animation.obj
 0001:00005c0c       ?GetSequenceFlags@@YAHPAXPAUentvars_s@@@Z 10006c0c f   animation.obj
 0001:00005c60       ?GetAnimationEvent@@YAHPAXPAUentvars_s@@PAUMonsterEvent_t@@MMH@Z 10006c60 f   animation.obj
 0001:00005e11       ?SetController@@YAMPAXPAUentvars_s@@HM@Z 10006e11 f   animation.obj
 0001:00006012       ?SetBlending@@YAMPAXPAUentvars_s@@HM@Z 10007012 f   animation.obj
 0001:000061eb       ?FindTransition@@YAHPAXHHPAH@Z 100071eb f   animation.obj
 0001:000063c5       ?SetBodygroup@@YAXPAXPAUentvars_s@@HH@Z 100073c5 f   animation.obj
 0001:00006455       ?GetBodygroup@@YAHPAXPAUentvars_s@@H@Z 10007455 f   animation.obj
 0001:000064d0       _monster_apache            100074d0 f   apache.obj
 0001:000064e1       ?Save@CApache@@EAEHAAVCSave@@@Z 100074e1 f   apache.obj
 0001:0000651a       ?Restore@CApache@@EAEHAAVCRestore@@@Z 1000751a f   apache.obj
 0001:00006553       ?Spawn@CApache@@EAEXXZ     10007553 f   apache.obj
 0001:000066e5       ?Precache@CApache@@EAEXXZ  100076e5 f   apache.obj
 0001:000067b2       ?NullThink@CApache@@AAEXXZ 100077b2 f   apache.obj
 0001:000067e7       ?StartupUse@CApache@@AAEXPAVCBaseEntity@@0W4USE_TYPE@@M@Z 100077e7 f   apache.obj
 0001:00006831       ?Killed@CApache@@EAEXPAUentvars_s@@H@Z 10007831 f   apache.obj
 0001:0000694f       ?DyingThink@CApache@@AAEXXZ 1000794f f   apache.obj
 0001:0000733f       ?FlyTouch@CApache@@AAEXPAVCBaseEntity@@@Z 1000833f f   apache.obj
 0001:000073d4       ?CrashTouch@CApache@@AAEXPAVCBaseEntity@@@Z 100083d4 f   apache.obj
 0001:0000741f       ?GibMonster@CApache@@EAEXXZ 1000841f f   apache.obj
 0001:0000742a       ?HuntThink@CApache@@AAEXXZ 1000842a f   apache.obj
 0001:00007d61       ?Flight@CApache@@AAEXXZ    10008d61 f   apache.obj
 0001:000086e1       ?FireRocket@CApache@@AAEXXZ 100096e1 f   apache.obj
 0001:00008a11       ?FireGun@CApache@@AAEHXZ   10009a11 f   apache.obj
 0001:00008e8f       ?ShowDamage@CApache@@AAEXXZ 10009e8f f   apache.obj
 0001:00008f99       ?TakeDamage@CApache@@EAEHPAUentvars_s@@0MH@Z 10009f99 f   apache.obj
 0001:00008fe7       ?TraceAttack@CApache@@EAEXPAUentvars_s@@MVVector@@PAUTraceResult@@H@Z 10009fe7 f   apache.obj
 0001:00009079       _hvr_rocket                1000a079 f   apache.obj
 0001:0000908a       ?Save@CApacheHVR@@EAEHAAVCSave@@@Z 1000a08a f   apache.obj
 0001:000090c3       ?Restore@CApacheHVR@@EAEHAAVCRestore@@@Z 1000a0c3 f   apache.obj
 0001:000090fc       ?Spawn@CApacheHVR@@EAEXXZ  1000a0fc f   apache.obj
 0001:0000921d       ?Precache@CApacheHVR@@EAEXXZ 1000a21d f   apache.obj
 0001:0000925b       ?IgniteThink@CApacheHVR@@AAEXXZ 1000a25b f   apache.obj
 0001:00009367       ?AccelerateThink@CApacheHVR@@AAEXXZ 1000a367 f   apache.obj
 0001:000094c0       ??0TraceResult@@QAE@ABU0@@Z 1000a4c0 f i apache.obj
 0001:00009560       ?DotProduct@@YAMABVVector@@0@Z 1000a560 f i apache.obj
 0001:00009590       ?FStringNull@@YAHH@Z       1000a590 f i apache.obj
 0001:000095a0       ?STOP_SOUND@@YAXPAUedict_s@@HPBD@Z 1000a5a0 f i apache.obj
 0001:000095d0       ??D@YA?AVVector@@MABV0@@Z  1000a5d0 f i apache.obj
 0001:00009600       ?entindex@CBaseEntity@@QAEHXZ 1000a600 f i apache.obj
 0001:00009620       ?ENTINDEX@@YAHPAUedict_s@@@Z 1000a620 f i apache.obj
 0001:00009640       ?GetClassPtr@@YAPAVCApache@@PAV1@@Z 1000a640 f i apache.obj
 0001:000096d0       ?GetClassPtr@@YAPAVCApacheHVR@@PAV1@@Z 1000a6d0 f i apache.obj
 0001:00009760       ??0CApache@@QAE@XZ         1000a760 f i apache.obj
 0001:000097e0       ?Classify@CApache@@EAEHXZ  1000a7e0 f i apache.obj
 0001:000097f0       ?BloodColor@CApache@@EAEHXZ 1000a7f0 f i apache.obj
 0001:00009800       ?SetObjectCollisionBox@CApache@@EAEXXZ 1000a800 f i apache.obj
 0001:000098a0       ??0CApacheHVR@@QAE@XZ      1000a8a0 f i apache.obj
 0001:000098d0       _monster_barnacle          1000a8d0 f   barnacle.obj
 0001:000098e1       ?Save@CBarnacle@@UAEHAAVCSave@@@Z 1000a8e1 f   barnacle.obj
 0001:0000991a       ?Restore@CBarnacle@@UAEHAAVCRestore@@@Z 1000a91a f   barnacle.obj
 0001:00009953       ?Classify@CBarnacle@@UAEHXZ 1000a953 f   barnacle.obj
 0001:00009963       ?HandleAnimEvent@CBarnacle@@UAEXPAUMonsterEvent_t@@@Z 1000a963 f   barnacle.obj
 0001:000099a3       ?Spawn@CBarnacle@@UAEXXZ   1000a9a3 f   barnacle.obj
 0001:00009b18       ?TakeDamage@CBarnacle@@UAEHPAUentvars_s@@0MH@Z 1000ab18 f   barnacle.obj
 0001:00009b58       ?BarnacleThink@CBarnacle@@QAEXXZ 1000ab58 f   barnacle.obj
 0001:0000a2b4       ?Killed@CBarnacle@@UAEXPAUentvars_s@@H@Z 1000b2b4 f   barnacle.obj
 0001:0000a3ed       ?WaitTillDead@CBarnacle@@QAEXXZ 1000b3ed f   barnacle.obj
 0001:0000a44d       ?Precache@CBarnacle@@UAEXXZ 1000b44d f   barnacle.obj
 0001:0000a4c8       ?TongueTouchEnt@CBarnacle@@QAEPAVCBaseEntity@@PAM@Z 1000b4c8 f   barnacle.obj
 0001:0000a6a0       ?GetClassPtr@@YAPAVCBarnacle@@PAV1@@Z 1000b6a0 f i barnacle.obj
 0001:0000a730       ??0CBarnacle@@QAE@XZ       1000b730 f i barnacle.obj
 0001:0000a750       ?StopAnimation@CBaseMonster@@QAEXXZ 1000b750 f i barnacle.obj
 0001:0000a770       _monster_barney            1000b770 f   barney.obj
 0001:0000a781       ?Save@CBarney@@UAEHAAVCSave@@@Z 1000b781 f   barney.obj
 0001:0000a7ba       ?Restore@CBarney@@UAEHAAVCRestore@@@Z 1000b7ba f   barney.obj
 0001:0000a7f3       ?ScheduleFromName@CBarney@@UAEPAUSchedule_t@@PBD@Z 1000b7f3 f   barney.obj
 0001:0000a82f       ?StartTask@CBarney@@UAEXPAUTask_t@@@Z 1000b82f f   barney.obj
 0001:0000a848       ?RunTask@CBarney@@UAEXPAUTask_t@@@Z 1000b848 f   barney.obj
 0001:0000a8c6       ?ISoundMask@CBarney@@UAEHXZ 1000b8c6 f   barney.obj
 0001:0000a8d6       ?Classify@CBarney@@UAEHXZ  1000b8d6 f   barney.obj
 0001:0000a8e6       ?AlertSound@CBarney@@UAEXXZ 1000b8e6 f   barney.obj
 0001:0000a942       ?SetYawSpeed@CBarney@@UAEXXZ 1000b942 f   barney.obj
 0001:0000a9a7       ?CheckRangeAttack1@CBarney@@UAEHMM@Z 1000b9a7 f   barney.obj
 0001:0000ab55       ?BarneyFirePistol@CBarney@@QAEXXZ 1000bb55 f   barney.obj
 0001:0000ace5       ?HandleAnimEvent@CBarney@@UAEXPAUMonsterEvent_t@@@Z 1000bce5 f   barney.obj
 0001:0000ad64       ?Spawn@CBarney@@UAEXXZ     1000bd64 f   barney.obj
 0001:0000ae9e       ?Precache@CBarney@@UAEXXZ  1000be9e f   barney.obj
 0001:0000af37       ?TalkInit@CBarney@@QAEXXZ  1000bf37 f   barney.obj
 0001:0000b041       ?TakeDamage@CBarney@@UAEHPAUentvars_s@@0MH@Z 1000c041 f   barney.obj
 0001:0000b287       ?PainSound@CBarney@@UAEXXZ 1000c287 f   barney.obj
 0001:0000b39b       ?DeathSound@CBarney@@UAEXXZ 1000c39b f   barney.obj
 0001:0000b46f       ?TraceAttack@CBarney@@UAEXPAUentvars_s@@MVVector@@PAUTraceResult@@H@Z 1000c46f f   barney.obj
 0001:0000b526       ?Killed@CBarney@@UAEXPAUentvars_s@@H@Z 1000c526 f   barney.obj
 0001:0000b5a8       ?GetScheduleOfType@CBarney@@UAEPAUSchedule_t@@H@Z 1000c5a8 f   barney.obj
 0001:0000b685       ?GetSchedule@CBarney@@UAEPAUSchedule_t@@XZ 1000c685 f   barney.obj
 0001:0000b8c8       ?GetIdealState@CBarney@@UAE?AW4MONSTERSTATE@@XZ 1000c8c8 f   barney.obj
 0001:0000b8db       ?DeclineFollowing@CBarney@@UAEXXZ 1000c8db f   barney.obj
 0001:0000b908       ?KeyValue@CDeadBarney@@UAEXPAUKeyValueData_s@@@Z 1000c908 f   barney.obj
 0001:0000b95d       _monster_barney_dead       1000c95d f   barney.obj
 0001:0000b96e       ?Spawn@CDeadBarney@@UAEXXZ 1000c96e f   barney.obj
 0001:0000ba50       ?UTIL_MakeVectorsPrivate@@YAXABVVector@@PAM11@Z 1000ca50 f i barney.obj
 0001:0000ba80       ??BVector@@QBEPBMXZ        1000ca80 f i barney.obj
 0001:0000ba90       ?Instance@CBaseEntity@@SAPAV1@PAUedict_s@@@Z 1000ca90 f i barney.obj
 0001:0000bac0       ?ENT@@YAPAUedict_s@@H@Z    1000cac0 f i barney.obj
 0001:0000bae0       ?IsFollowing@CTalkMonster@@QAEHXZ 1000cae0 f i barney.obj
 0001:0000bb40       ?Remember@CBaseMonster@@QAEXH@Z 1000cb40 f i barney.obj
 0001:0000bb70       ?GetClassPtr@@YAPAVCBarney@@PAV1@@Z 1000cb70 f i barney.obj
 0001:0000bc00       ?GetClassPtr@@YAPAVCDeadBarney@@PAV1@@Z 1000cc00 f i barney.obj
 0001:0000bc90       ??0CBarney@@QAE@XZ         1000cc90 f i barney.obj
 0001:0000bcb0       ?FriendNumber@CTalkMonster@@UAEHH@Z 1000ccb0 f i barney.obj
 0001:0000bcc0       ?ObjectCaps@CBarney@@UAEHXZ 1000ccc0 f i barney.obj
 0001:0000bce0       ??0CDeadBarney@@QAE@XZ     1000cce0 f i barney.obj
 0001:0000bd00       ?Classify@CDeadBarney@@UAEHXZ 1000cd00 f i barney.obj
 0001:0000bd10       ??0CTalkMonster@@QAE@XZ    1000cd10 f i barney.obj
 0001:0000bd30       ?DeclineFollowing@CTalkMonster@@UAEXXZ 1000cd30 f i barney.obj
 0001:0000bd40       _info_bigmomma             1000cd40 f   bigmomma.obj
 0001:0000bd51       ?Save@CInfoBM@@UAEHAAVCSave@@@Z 1000cd51 f   bigmomma.obj
 0001:0000bd8a       ?Restore@CInfoBM@@UAEHAAVCRestore@@@Z 1000cd8a f   bigmomma.obj
 0001:0000bdc3       ?Spawn@CInfoBM@@UAEXXZ     1000cdc3 f   bigmomma.obj
 0001:0000bdce       ?KeyValue@CInfoBM@@UAEXPAUKeyValueData_s@@@Z 1000cdce f   bigmomma.obj
 0001:0000bf30       _bmortar                   1000cf30 f   bigmomma.obj
 0001:0000bf41       ?Save@CBMortar@@UAEHAAVCSave@@@Z 1000cf41 f   bigmomma.obj
 0001:0000bf7a       ?Restore@CBMortar@@UAEHAAVCRestore@@@Z 1000cf7a f   bigmomma.obj
 0001:0000bfb3       _monster_bigmomma          1000cfb3 f   bigmomma.obj
 0001:0000bfc4       ?Save@CBigMomma@@UAEHAAVCSave@@@Z 1000cfc4 f   bigmomma.obj
 0001:0000bffd       ?Restore@CBigMomma@@UAEHAAVCRestore@@@Z 1000cffd f   bigmomma.obj
 0001:0000c036       ?KeyValue@CBigMomma@@UAEXPAUKeyValueData_s@@@Z 1000d036 f   bigmomma.obj
 0001:0000c04f       ?Classify@CBigMomma@@UAEHXZ 1000d04f f   bigmomma.obj
 0001:0000c05f       ?SetYawSpeed@CBigMomma@@UAEXXZ 1000d05f f   bigmomma.obj
 0001:0000c09f       ?HandleAnimEvent@CBigMomma@@UAEXPAUMonsterEvent_t@@@Z 1000d09f f   bigmomma.obj
 0001:0000c90c       ?TraceAttack@CBigMomma@@UAEXPAUentvars_s@@MVVector@@PAUTraceResult@@H@Z 1000d90c f   bigmomma.obj
 0001:0000ca3f       ?TakeDamage@CBigMomma@@UAEHPAUentvars_s@@0MH@Z 1000da3f f   bigmomma.obj
 0001:0000cacd       ?LayHeadcrab@CBigMomma@@QAEXXZ 1000dacd f   bigmomma.obj
 0001:0000cc4e       ?DeathNotice@CBigMomma@@UAEXPAUentvars_s@@@Z 1000dc4e f   bigmomma.obj
 0001:0000ccd7       ?LaunchMortar@CBigMomma@@QAEXXZ 1000dcd7 f   bigmomma.obj
 0001:0000cdd7       ?Spawn@CBigMomma@@UAEXXZ   1000ddd7 f   bigmomma.obj
 0001:0000cee3       ?Precache@CBigMomma@@UAEXXZ 1000dee3 f   bigmomma.obj
 0001:0000d107       ?Activate@CBigMomma@@UAEXXZ 1000e107 f   bigmomma.obj
 0001:0000d131       ?NodeStart@CBigMomma@@QAEXH@Z 1000e131 f   bigmomma.obj
 0001:0000d1e8       ?NodeReach@CBigMomma@@QAEXXZ 1000e1e8 f   bigmomma.obj
 0001:0000d305       ?CheckMeleeAttack1@CBigMomma@@UAEHMM@Z 1000e305 f   bigmomma.obj
 0001:0000d33b       ?CheckMeleeAttack2@CBigMomma@@UAEHMM@Z 1000e33b f   bigmomma.obj
 0001:0000d350       ?CheckRangeAttack1@CBigMomma@@UAEHMM@Z 1000e350 f   bigmomma.obj
 0001:0000d455       ?ScheduleFromName@CBigMomma@@UAEPAUSchedule_t@@PBD@Z 1000e455 f   bigmomma.obj
 0001:0000d491       ?GetScheduleOfType@CBigMomma@@UAEPAUSchedule_t@@H@Z 1000e491 f   bigmomma.obj
 0001:0000d4ce       ?ShouldGoToNode@CBigMomma@@QAEHXZ 1000e4ce f   bigmomma.obj
 0001:0000d50b       ?GetSchedule@CBigMomma@@UAEPAUSchedule_t@@XZ 1000e50b f   bigmomma.obj
 0001:0000d53c       ?StartTask@CBigMomma@@UAEXPAUTask_t@@@Z 1000e53c f   bigmomma.obj
 0001:0000d9b8       ?RunTask@CBigMomma@@UAEXPAUTask_t@@@Z 1000e9b8 f   bigmomma.obj
 0001:0000db18       ?VecCheckSplatToss@@YA?AVVector@@PAUentvars_s@@ABV1@V1@M@Z 1000eb18 f   bigmomma.obj
 0001:0000dd06       ?MortarSpray@@YAXABVVector@@0HH@Z 1000ed06 f   bigmomma.obj
 0001:0000ddc4       ?Spawn@CBMortar@@UAEXXZ    1000edc4 f   bigmomma.obj
 0001:0000dede       ?Animate@CBMortar@@QAEXXZ  1000eede f   bigmomma.obj
 0001:0000dfd6       ?Shoot@CBMortar@@SAPAV1@PAUedict_s@@VVector@@1@Z 1000efd6 f   bigmomma.obj
 0001:0000e06c       ?Touch@CBMortar@@UAEXPAVCBaseEntity@@@Z 1000f06c f   bigmomma.obj
 0001:0000e2a0       ?FIND_ENTITY_BY_TARGETNAME@@YAPAUedict_s@@PAU1@PBD@Z 1000f2a0 f i bigmomma.obj
 0001:0000e2c0       ?CanLayCrab@CBigMomma@@QAEHXZ 1000f2c0 f i bigmomma.obj
 0001:0000e3b0       ?GetNodeSequence@CBigMomma@@QAEHXZ 1000f3b0 f i bigmomma.obj
 0001:0000e3f0       ?GetNodePresequence@CBigMomma@@QAEHXZ 1000f3f0 f i bigmomma.obj
 0001:0000e420       ?GetNodeDelay@CBigMomma@@QAEMXZ 1000f420 f i bigmomma.obj
 0001:0000e460       ?GetNodeRange@CBigMomma@@QAEMXZ 1000f460 f i bigmomma.obj
 0001:0000e4a0       ?GetNodeYaw@CBigMomma@@QAEMXZ 1000f4a0 f i bigmomma.obj
 0001:0000e4f0       ?Length2D@Vector@@QBEMXZ   1000f4f0 f i bigmomma.obj
 0001:0000e530       ?MovementIsComplete@CBaseMonster@@QAEHXZ 1000f530 f i bigmomma.obj
 0001:0000e550       ??GVector@@QBE?AV0@XZ      1000f550 f i bigmomma.obj
 0001:0000e5a0       ?Forget@CBaseMonster@@QAEXH@Z 1000f5a0 f i bigmomma.obj
 0001:0000e5d0       ?HasMemory@CBaseMonster@@QAEHH@Z 1000f5d0 f i bigmomma.obj
 0001:0000e600       ?GetClassPtr@@YAPAVCInfoBM@@PAV1@@Z 1000f600 f i bigmomma.obj
 0001:0000e690       ?GetClassPtr@@YAPAVCBMortar@@PAV1@@Z 1000f690 f i bigmomma.obj
 0001:0000e720       ?GetClassPtr@@YAPAVCBigMomma@@PAV1@@Z 1000f720 f i bigmomma.obj
 0001:0000e7b0       ??0CInfoBM@@QAE@XZ         1000f7b0 f i bigmomma.obj
 0001:0000e7d0       ?ObjectCaps@CPointEntity@@UAEHXZ 1000f7d0 f i bigmomma.obj
 0001:0000e7f0       ??0CBMortar@@QAE@XZ        1000f7f0 f i bigmomma.obj
 0001:0000e810       ??0CBigMomma@@QAE@XZ       1000f810 f i bigmomma.obj
 0001:0000e830       ?OverrideReset@CBigMomma@@UAEXXZ 1000f830 f i bigmomma.obj
 0001:0000e850       ?SetObjectCollisionBox@CBigMomma@@UAEXXZ 1000f850 f i bigmomma.obj
 0001:0000e8f0       ??0CPointEntity@@QAE@XZ    1000f8f0 f i bigmomma.obj
 0001:0000e910       _monster_bloater           1000f910 f   bloater.obj
 0001:0000e921       ?Classify@CBloater@@UAEHXZ 1000f921 f   bloater.obj
 0001:0000e931       ?SetYawSpeed@CBloater@@UAEXXZ 1000f931 f   bloater.obj
 0001:0000e954       ?TakeDamage@CBloater@@UAEHPAUentvars_s@@0MH@Z 1000f954 f   bloater.obj
 0001:0000e987       ?PainSound@CBloater@@UAEXXZ 1000f987 f   bloater.obj
 0001:0000e992       ?AlertSound@CBloater@@UAEXXZ 1000f992 f   bloater.obj
 0001:0000e99d       ?IdleSound@CBloater@@UAEXXZ 1000f99d f   bloater.obj
 0001:0000e9a8       ?AttackSnd@CBloater@@QAEXXZ 1000f9a8 f   bloater.obj
 0001:0000e9b3       ?HandleAnimEvent@CBloater@@UAEXPAUMonsterEvent_t@@@Z 1000f9b3 f   bloater.obj
 0001:0000e9e8       ?Spawn@CBloater@@UAEXXZ    1000f9e8 f   bloater.obj
 0001:0000eb07       ?Precache@CBloater@@UAEXXZ 1000fb07 f   bloater.obj
 0001:0000eb20       ?GetClassPtr@@YAPAVCBloater@@PAV1@@Z 1000fb20 f i bloater.obj
 0001:0000ebb0       ??0CBloater@@QAE@XZ        1000fbb0 f i bloater.obj
 0001:0000ebd0       ?CheckRangeAttack1@CBloater@@UAEHMM@Z 1000fbd0 f i bloater.obj
 0001:0000ebe0       ?CheckRangeAttack2@CBloater@@UAEHMM@Z 1000fbe0 f i bloater.obj
 0001:0000ebf0       ?VecBModelOrigin@@YA?AVVector@@PAUentvars_s@@@Z 1000fbf0 f   bmodels.obj
 0001:0000ec30       _func_wall                 1000fc30 f   bmodels.obj
 0001:0000ec41       ?Spawn@CFuncWall@@UAEXXZ   1000fc41 f   bmodels.obj
 0001:0000ecdc       ?Use@CFuncWall@@UAEXPAVCBaseEntity@@0W4USE_TYPE@@M@Z 1000fcdc f   bmodels.obj
 0001:0000ed29       _func_wall_toggle          1000fd29 f   bmodels.obj
 0001:0000ed3a       ?Spawn@CFuncWallToggle@@UAEXXZ 1000fd3a f   bmodels.obj
 0001:0000ed68       ?TurnOff@CFuncWallToggle@@QAEXXZ 1000fd68 f   bmodels.obj
 0001:0000edb7       ?TurnOn@CFuncWallToggle@@QAEXXZ 1000fdb7 f   bmodels.obj
 0001:0000ee06       ?IsOn@CFuncWallToggle@@QAEHXZ 1000fe06 f   bmodels.obj
 0001:0000ee29       ?Use@CFuncWallToggle@@UAEXPAVCBaseEntity@@0W4USE_TYPE@@M@Z 1000fe29 f   bmodels.obj
 0001:0000ee6f       _func_conveyor             1000fe6f f   bmodels.obj
 0001:0000ee80       ?Spawn@CFuncConveyor@@UAEXXZ 1000fe80 f   bmodels.obj
 0001:0000ef41       ?UpdateSpeed@CFuncConveyor@@QAEXM@Z 1000ff41 f   bmodels.obj
 0001:0000efd4       ?Use@CFuncConveyor@@UAEXPAVCBaseEntity@@0W4USE_TYPE@@M@Z 1000ffd4 f   bmodels.obj
 0001:0000f010       _func_illusionary          10010010 f   bmodels.obj
 0001:0000f021       ?KeyValue@CFuncIllusionary@@UAEXPAUKeyValueData_s@@@Z 10010021 f   bmodels.obj
 0001:0000f07e       ?Spawn@CFuncIllusionary@@UAEXXZ 1001007e f   bmodels.obj
 0001:0000f0fc       _func_monsterclip          100100fc f   bmodels.obj
 0001:0000f10d       ?Spawn@CFuncMonsterClip@@UAEXXZ 1001010d f   bmodels.obj
 0001:0000f169       ?Save@CFuncRotating@@UAEHAAVCSave@@@Z 10010169 f   bmodels.obj
 0001:0000f1a2       ?Restore@CFuncRotating@@UAEHAAVCRestore@@@Z 100101a2 f   bmodels.obj
 0001:0000f1db       _func_rotating             100101db f   bmodels.obj
 0001:0000f1ec       ?KeyValue@CFuncRotating@@UAEXPAUKeyValueData_s@@@Z 100101ec f   bmodels.obj
 0001:0000f363       ?Spawn@CFuncRotating@@UAEXXZ 10010363 f   bmodels.obj
 0001:0000f655       ?Precache@CFuncRotating@@UAEXXZ 10010655 f   bmodels.obj
 0001:0000f896       ?HurtTouch@CFuncRotating@@QAEXPAVCBaseEntity@@@Z 10010896 f   bmodels.obj
 0001:0000f96d       ?RampPitchVol@CFuncRotating@@QAEXH@Z 1001096d f   bmodels.obj
 0001:0000faef       ?SpinUp@CFuncRotating@@QAEXXZ 10010aef f   bmodels.obj
 0001:0000fced       ?SpinDown@CFuncRotating@@QAEXXZ 10010ced f   bmodels.obj
 0001:0000fef5       ?Rotate@CFuncRotating@@QAEXXZ 10010ef5 f   bmodels.obj
 0001:0000ff1e       ?RotatingUse@CFuncRotating@@QAEXPAVCBaseEntity@@0W4USE_TYPE@@M@Z 10010f1e f   bmodels.obj
 0001:000100e8       ?Blocked@CFuncRotating@@UAEXPAVCBaseEntity@@@Z 100110e8 f   bmodels.obj
 0001:0001011d       _func_pendulum             1001111d f   bmodels.obj
 0001:0001012e       ?Save@CPendulum@@UAEHAAVCSave@@@Z 1001112e f   bmodels.obj
 0001:00010167       ?Restore@CPendulum@@UAEHAAVCRestore@@@Z 10011167 f   bmodels.obj
 0001:000101a0       ?KeyValue@CPendulum@@UAEXPAUKeyValueData_s@@@Z 100111a0 f   bmodels.obj
 0001:00010231       ?Spawn@CPendulum@@UAEXXZ   10011231 f   bmodels.obj
 0001:0001044c       ?PendulumUse@CPendulum@@QAEXPAVCBaseEntity@@0W4USE_TYPE@@M@Z 1001144c f   bmodels.obj
 0001:0001059c       ?Stop@CPendulum@@QAEXXZ    1001159c f   bmodels.obj
 0001:00010601       ?Blocked@CPendulum@@UAEXPAVCBaseEntity@@@Z 10011601 f   bmodels.obj
 0001:0001061c       ?Swing@CPendulum@@QAEXXZ   1001161c f   bmodels.obj
 0001:0001088d       ?Touch@CPendulum@@UAEXPAVCBaseEntity@@@Z 1001188d f   bmodels.obj
 0001:00010989       ?RopeTouch@CPendulum@@QAEXPAVCBaseEntity@@@Z 10011989 f   bmodels.obj
 0001:00010a20       ?GetClassPtr@@YAPAVCFuncWall@@PAV1@@Z 10011a20 f i bmodels.obj
 0001:00010ab0       ?GetClassPtr@@YAPAVCFuncWallToggle@@PAV1@@Z 10011ab0 f i bmodels.obj
 0001:00010b40       ?GetClassPtr@@YAPAVCFuncConveyor@@PAV1@@Z 10011b40 f i bmodels.obj
 0001:00010bd0       ?GetClassPtr@@YAPAVCFuncIllusionary@@PAV1@@Z 10011bd0 f i bmodels.obj
 0001:00010c60       ?GetClassPtr@@YAPAVCFuncMonsterClip@@PAV1@@Z 10011c60 f i bmodels.obj
 0001:00010cf0       ?GetClassPtr@@YAPAVCFuncRotating@@PAV1@@Z 10011cf0 f i bmodels.obj
 0001:00010d80       ?GetClassPtr@@YAPAVCPendulum@@PAV1@@Z 10011d80 f i bmodels.obj
 0001:00010e10       ??0CFuncWall@@QAE@XZ       10011e10 f i bmodels.obj
 0001:00010e30       ?ObjectCaps@CFuncWall@@UAEHXZ 10011e30 f i bmodels.obj
 0001:00010e50       ??0CFuncWallToggle@@QAE@XZ 10011e50 f i bmodels.obj
 0001:00010e70       ??0CFuncConveyor@@QAE@XZ   10011e70 f i bmodels.obj
 0001:00010e90       ??0CFuncIllusionary@@QAE@XZ 10011e90 f i bmodels.obj
 0001:00010eb0       ?ObjectCaps@CFuncIllusionary@@UAEHXZ 10011eb0 f i bmodels.obj
 0001:00010ed0       ??0CFuncMonsterClip@@QAE@XZ 10011ed0 f i bmodels.obj
 0001:00010ef0       ?Use@CFuncMonsterClip@@UAEXPAVCBaseEntity@@0W4USE_TYPE@@M@Z 10011ef0 f i bmodels.obj
 0001:00010f00       ??0CFuncRotating@@QAE@XZ   10011f00 f i bmodels.obj
 0001:00010f20       ?ObjectCaps@CFuncRotating@@UAEHXZ 10011f20 f i bmodels.obj
 0001:00010f40       ??0CPendulum@@QAE@XZ       10011f40 f i bmodels.obj
 0001:00010f80       ?ObjectCaps@CPendulum@@UAEHXZ 10011f80 f i bmodels.obj
 0001:00010fa0       _squidspit                 10011fa0 f   bullsquid.obj
 0001:00010fb1       ?Save@CSquidSpit@@UAEHAAVCSave@@@Z 10011fb1 f   bullsquid.obj
 0001:00010fea       ?Restore@CSquidSpit@@UAEHAAVCRestore@@@Z 10011fea f   bullsquid.obj
 0001:00011023       ?Spawn@CSquidSpit@@UAEXXZ  10012023 f   bullsquid.obj
 0001:00011121       ?Animate@CSquidSpit@@QAEXXZ 10012121 f   bullsquid.obj
 0001:000111aa       ?Shoot@CSquidSpit@@SAXPAUentvars_s@@VVector@@1@Z 100121aa f   bullsquid.obj
 0001:00011237       ?Touch@CSquidSpit@@UAEXPAVCBaseEntity@@@Z 10012237 f   bullsquid.obj
 0001:0001148a       _monster_bullchicken       1001248a f   bullsquid.obj
 0001:0001149b       ?Save@CBullsquid@@UAEHAAVCSave@@@Z 1001249b f   bullsquid.obj
 0001:000114d4       ?Restore@CBullsquid@@UAEHAAVCRestore@@@Z 100124d4 f   bullsquid.obj
 0001:0001150d       ?IgnoreConditions@CBullsquid@@UAEHXZ 1001250d f   bullsquid.obj
 0001:00011588       ?IRelationship@CBullsquid@@UAEHPAVCBaseEntity@@@Z 10012588 f   bullsquid.obj
 0001:000115da       ?TakeDamage@CBullsquid@@UAEHPAUentvars_s@@0MH@Z 100125da f   bullsquid.obj
 0001:0001177d       ?CheckRangeAttack1@CBullsquid@@UAEHMM@Z 1001277d f   bullsquid.obj
 0001:0001189e       ?CheckMeleeAttack1@CBullsquid@@UAEHMM@Z 1001289e f   bullsquid.obj
 0001:000118f8       ?CheckMeleeAttack2@CBullsquid@@UAEHMM@Z 100128f8 f   bullsquid.obj
 0001:0001193f       ?FValidateHintType@CBullsquid@@UAEHF@Z 1001293f f   bullsquid.obj
 0001:00011994       ?ISoundMask@CBullsquid@@UAEHXZ 10012994 f   bullsquid.obj
 0001:000119a4       ?Classify@CBullsquid@@UAEHXZ 100129a4 f   bullsquid.obj
 0001:000119b4       ?IdleSound@CBullsquid@@UAEXXZ 100129b4 f   bullsquid.obj
 0001:00011ad1       ?PainSound@CBullsquid@@UAEXXZ 10012ad1 f   bullsquid.obj
 0001:00011be7       ?AlertSound@CBullsquid@@UAEXXZ 10012be7 f   bullsquid.obj
 0001:00011c88       ?SetYawSpeed@CBullsquid@@UAEXXZ 10012c88 f   bullsquid.obj
 0001:00011d33       ?HandleAnimEvent@CBullsquid@@UAEXPAUMonsterEvent_t@@@Z 10012d33 f   bullsquid.obj
 0001:000123ca       ?Spawn@CBullsquid@@UAEXXZ  100133ca f   bullsquid.obj
 0001:000124d0       ?Precache@CBullsquid@@UAEXXZ 100134d0 f   bullsquid.obj
 0001:0001264c       ?DeathSound@CBullsquid@@UAEXXZ 1001364c f   bullsquid.obj
 0001:000126fc       ?AttackSound@CBullsquid@@QAEXXZ 100136fc f   bullsquid.obj
 0001:0001277b       ?RunAI@CBullsquid@@UAEXXZ  1001377b f   bullsquid.obj
 0001:00012839       ?ScheduleFromName@CBullsquid@@UAEPAUSchedule_t@@PBD@Z 10013839 f   bullsquid.obj
 0001:00012875       ?GetSchedule@CBullsquid@@UAEPAUSchedule_t@@XZ 10013875 f   bullsquid.obj
 0001:00012b18       ?GetScheduleOfType@CBullsquid@@UAEPAUSchedule_t@@H@Z 10013b18 f   bullsquid.obj
 0001:00012bd0       ?StartTask@CBullsquid@@UAEXPAUTask_t@@@Z 10013bd0 f   bullsquid.obj
 0001:00012d5b       ?RunTask@CBullsquid@@UAEXPAUTask_t@@@Z 10013d5b f   bullsquid.obj
 0001:00012ddc       ?GetIdealState@CBullsquid@@UAE?AW4MONSTERSTATE@@XZ 10013ddc f   bullsquid.obj
 0001:00012e90       ?GetClassPtr@@YAPAVCSquidSpit@@PAV1@@Z 10013e90 f i bullsquid.obj
 0001:00012f20       ?GetClassPtr@@YAPAVCBullsquid@@PAV1@@Z 10013f20 f i bullsquid.obj
 0001:00012fb0       ??0CSquidSpit@@QAE@XZ      10013fb0 f i bullsquid.obj
 0001:00012fd0       ??0CBullsquid@@QAE@XZ      10013fd0 f i bullsquid.obj
 0001:00012ff0       ?Save@CEnvGlobal@@UAEHAAVCSave@@@Z 10013ff0 f   buttons.obj
 0001:00013029       ?Restore@CEnvGlobal@@UAEHAAVCRestore@@@Z 10014029 f   buttons.obj
 0001:00013062       _env_global                10014062 f   buttons.obj
 0001:00013073       ?KeyValue@CEnvGlobal@@UAEXPAUKeyValueData_s@@@Z 10014073 f   buttons.obj
 0001:00013124       ?Spawn@CEnvGlobal@@UAEXXZ  10014124 f   buttons.obj
 0001:0001319d       ?Use@CEnvGlobal@@UAEXPAVCBaseEntity@@0W4USE_TYPE@@M@Z 1001419d f   buttons.obj
 0001:00013267       ?Save@CMultiSource@@UAEHAAVCSave@@@Z 10014267 f   buttons.obj
 0001:000132a0       ?Restore@CMultiSource@@UAEHAAVCRestore@@@Z 100142a0 f   buttons.obj
 0001:000132d9       _multisource               100142d9 f   buttons.obj
 0001:000132ea       ?KeyValue@CMultiSource@@UAEXPAUKeyValueData_s@@@Z 100142ea f   buttons.obj
 0001:000133dc       ?Spawn@CMultiSource@@UAEXXZ 100143dc f   buttons.obj
 0001:0001344a       ?Use@CMultiSource@@UAEXPAVCBaseEntity@@0W4USE_TYPE@@M@Z 1001444a f   buttons.obj
 0001:0001355a       ?IsTriggered@CMultiSource@@UAEHPAVCBaseEntity@@@Z 1001455a f   buttons.obj
 0001:000135ee       ?Register@CMultiSource@@QAEXXZ 100145ee f   buttons.obj
 0001:000137d4       ?Save@CBaseButton@@UAEHAAVCSave@@@Z 100147d4 f   buttons.obj
 0001:0001380d       ?Restore@CBaseButton@@UAEHAAVCRestore@@@Z 1001480d f   buttons.obj
 0001:00013846       ?Precache@CBaseButton@@UAEXXZ 10014846 f   buttons.obj
 0001:00013be9       ?KeyValue@CBaseButton@@UAEXPAUKeyValueData_s@@@Z 10014be9 f   buttons.obj
 0001:00013d8b       ?TakeDamage@CBaseButton@@UAEHPAUentvars_s@@0MH@Z 10014d8b f   buttons.obj
 0001:00013e75       _func_button               10014e75 f   buttons.obj
 0001:00013e86       ?Spawn@CBaseButton@@UAEXXZ 10014e86 f   buttons.obj
 0001:000141dc       ?ButtonSound@@YAPADH@Z     100151dc f   buttons.obj
 0001:00014338       ?DoSpark@@YAXPAUentvars_s@@ABVVector@@@Z 10015338 f   buttons.obj
 0001:000144cf       ?ButtonSpark@CBaseButton@@QAEXXZ 100154cf f   buttons.obj
 0001:00014535       ?ButtonUse@CBaseButton@@QAEXPAVCBaseEntity@@0W4USE_TYPE@@M@Z 10015535 f   buttons.obj
 0001:000145e2       ?ButtonResponseToTouch@CBaseButton@@QAE?AW4BUTTON_CODE@1@XZ 100155e2 f   buttons.obj
 0001:00014665       ?ButtonTouch@CBaseButton@@QAEXPAVCBaseEntity@@@Z 10015665 f   buttons.obj
 0001:0001476a       ?ButtonActivate@CBaseButton@@QAEXXZ 1001576a f   buttons.obj
 0001:0001488e       ?TriggerAndWait@CBaseButton@@QAEXXZ 1001588e f   buttons.obj
 0001:0001496c       ?ButtonReturn@CBaseButton@@QAEXXZ 1001596c f   buttons.obj
 0001:00014a01       ?ButtonBackHome@CBaseButton@@QAEXXZ 10015a01 f   buttons.obj
 0001:00014b5e       _func_rot_button           10015b5e f   buttons.obj
 0001:00014b6f       ?Spawn@CRotButton@@UAEXXZ  10015b6f f   buttons.obj
 0001:00014dd1       ?Save@CMomentaryRotButton@@UAEHAAVCSave@@@Z 10015dd1 f   buttons.obj
 0001:00014e0a       ?Restore@CMomentaryRotButton@@UAEHAAVCRestore@@@Z 10015e0a f   buttons.obj
 0001:00014e43       _momentary_rot_button      10015e43 f   buttons.obj
 0001:00014e54       ?Spawn@CMomentaryRotButton@@UAEXXZ 10015e54 f   buttons.obj
 0001:0001507f       ?KeyValue@CMomentaryRotButton@@UAEXPAUKeyValueData_s@@@Z 1001607f f   buttons.obj
 0001:00015110       ?PlaySound@CMomentaryRotButton@@QAEXXZ 10016110 f   buttons.obj
 0001:00015158       ?Use@CMomentaryRotButton@@UAEXPAVCBaseEntity@@0W4USE_TYPE@@M@Z 10016158 f   buttons.obj
 0001:000151cb       ?UpdateAllButtons@CMomentaryRotButton@@QAEXMH@Z 100161cb f   buttons.obj
 0001:00015279       ?UpdateSelf@CMomentaryRotButton@@QAEXM@Z 10016279 f   buttons.obj
 0001:0001546c       ?UpdateTarget@CMomentaryRotButton@@QAEXM@Z 1001646c f   buttons.obj
 0001:00015508       ?Off@CMomentaryRotButton@@QAEXXZ 10016508 f   buttons.obj
 0001:000155b1       ?Return@CMomentaryRotButton@@QAEXXZ 100165b1 f   buttons.obj
 0001:00015619       ?UpdateSelfReturn@CMomentaryRotButton@@QAEXM@Z 10016619 f   buttons.obj
 0001:000156f6       ?Save@CEnvSpark@@UAEHAAVCSave@@@Z 100166f6 f   buttons.obj
 0001:0001572f       ?Restore@CEnvSpark@@UAEHAAVCRestore@@@Z 1001672f f   buttons.obj
 0001:00015768       _env_spark                 10016768 f   buttons.obj
 0001:00015779       _env_debris                10016779 f   buttons.obj
 0001:0001578a       ?Spawn@CEnvSpark@@UAEXXZ   1001678a f   buttons.obj
 0001:00015857       ?Precache@CEnvSpark@@UAEXXZ 10016857 f   buttons.obj
 0001:000158b6       ?KeyValue@CEnvSpark@@UAEXPAUKeyValueData_s@@@Z 100168b6 f   buttons.obj
 0001:000159a7       ?SparkThink@CEnvSpark@@QAEXXZ 100169a7 f   buttons.obj
 0001:00015a01       ?SparkStart@CEnvSpark@@QAEXPAVCBaseEntity@@0W4USE_TYPE@@M@Z 10016a01 f   buttons.obj
 0001:00015a59       ?SparkStop@CEnvSpark@@QAEXPAVCBaseEntity@@0W4USE_TYPE@@M@Z 10016a59 f   buttons.obj
 0001:00015a7a       _button_target             10016a7a f   buttons.obj
 0001:00015a8b       ?Spawn@CButtonTarget@@UAEXXZ 10016a8b f   buttons.obj
 0001:00015b1a       ?Use@CButtonTarget@@UAEXPAVCBaseEntity@@0W4USE_TYPE@@M@Z 10016b1a f   buttons.obj
 0001:00015ba4       ?ObjectCaps@CButtonTarget@@UAEHXZ 10016ba4 f   buttons.obj
 0001:00015bdb       ?TakeDamage@CButtonTarget@@UAEHPAUentvars_s@@0MH@Z 10016bdb f   buttons.obj
 0001:00015c10       ?EntityInTable@CGlobalState@@QAEHH@Z 10016c10 f i buttons.obj
 0001:00015c30       ?Instance@CBaseEntity@@SAPAV1@PAUentvars_s@@@Z 10016c30 f i buttons.obj
 0001:00015c50       ?Instance@CMomentaryRotButton@@SAPAV1@PAUedict_s@@@Z 10016c50 f i buttons.obj
 0001:00015c70       ?GetClassPtr@@YAPAVCEnvGlobal@@PAV1@@Z 10016c70 f i buttons.obj
 0001:00015d00       ?GetClassPtr@@YAPAVCMultiSource@@PAV1@@Z 10016d00 f i buttons.obj
 0001:00015d90       ?GetClassPtr@@YAPAVCBaseButton@@PAV1@@Z 10016d90 f i buttons.obj
 0001:00015e20       ?GetClassPtr@@YAPAVCRotButton@@PAV1@@Z 10016e20 f i buttons.obj
 0001:00015eb0       ?GetClassPtr@@YAPAVCMomentaryRotButton@@PAV1@@Z 10016eb0 f i buttons.obj
 0001:00015f40       ?GetClassPtr@@YAPAVCEnvSpark@@PAV1@@Z 10016f40 f i buttons.obj
 0001:00015fd0       ?GetClassPtr@@YAPAVCButtonTarget@@PAV1@@Z 10016fd0 f i buttons.obj
 0001:00016060       ??0CEnvGlobal@@QAE@XZ      10017060 f i buttons.obj
 0001:00016080       ??0CMultiSource@@QAE@XZ    10017080 f i buttons.obj
 0001:000160a0       ?ObjectCaps@CMultiSource@@UAEHXZ 100170a0 f i buttons.obj
 0001:000160c0       ??0CBaseButton@@QAE@XZ     100170c0 f i buttons.obj
 0001:000160e0       ?ObjectCaps@CBaseButton@@UAEHXZ 100170e0 f i buttons.obj
 0001:00016130       ??0CRotButton@@QAE@XZ      10017130 f i buttons.obj
 0001:00016150       ??0CMomentaryRotButton@@QAE@XZ 10017150 f i buttons.obj
 0001:00016190       ?ObjectCaps@CMomentaryRotButton@@UAEHXZ 10017190 f i buttons.obj
 0001:000161d0       ??0CEnvSpark@@QAE@XZ       100171d0 f i buttons.obj
 0001:000161f0       ??0CButtonTarget@@QAE@XZ   100171f0 f i buttons.obj
 0001:00016210       _GetEntityAPI              10017210 f   cbase.obj
 0001:00016243       _GetEntityAPI2             10017243 f   cbase.obj
 0001:00016281       ?DispatchSpawn@@YAHPAUedict_s@@@Z 10017281 f   cbase.obj
 0001:0001642c       ?DispatchKeyValue@@YAXPAUedict_s@@PAUKeyValueData_s@@@Z 1001742c f   cbase.obj
 0001:00016494       ?DispatchTouch@@YAXPAUedict_s@@0@Z 10017494 f   cbase.obj
 0001:00016506       ?DispatchUse@@YAXPAUedict_s@@0@Z 10017506 f   cbase.obj
 0001:00016564       ?DispatchThink@@YAXPAUedict_s@@@Z 10017564 f   cbase.obj
 0001:000165c8       ?DispatchBlocked@@YAXPAUedict_s@@0@Z 100175c8 f   cbase.obj
 0001:00016608       ?DispatchSave@@YAXPAUedict_s@@PAUsaverestore_s@@@Z 10017608 f   cbase.obj
 0001:00016725       ?FindGlobalEntity@@YAPAVCBaseEntity@@HH@Z 10017725 f   cbase.obj
 0001:000167c6       ?DispatchRestore@@YAHPAUedict_s@@PAUsaverestore_s@@H@Z 100177c6 f   cbase.obj
 0001:00016b8a       ?DispatchObjectCollsionBox@@YAXPAUedict_s@@@Z 10017b8a f   cbase.obj
 0001:00016bc5       ?SaveWriteFields@@YAXPAUsaverestore_s@@PBDPAXPAUTYPEDESCRIPTION@@H@Z 10017bc5 f   cbase.obj
 0001:00016bf9       ?SaveReadFields@@YAXPAUsaverestore_s@@PBDPAXPAUTYPEDESCRIPTION@@H@Z 10017bf9 f   cbase.obj
 0001:00016c2f       ?Get@EHANDLE@@QAEPAUedict_s@@XZ 10017c2f f   cbase.obj
 0001:00016c5f       ?Set@EHANDLE@@QAEPAUedict_s@@PAU2@@Z 10017c5f f   cbase.obj
 0001:00016c8b       ??BEHANDLE@@QAEPAVCBaseEntity@@XZ 10017c8b f   cbase.obj
 0001:00016ca7       ??4EHANDLE@@QAEPAVCBaseEntity@@PAV1@@Z 10017ca7 f   cbase.obj
 0001:00016cfc       ??BEHANDLE@@QAEHXZ         10017cfc f   cbase.obj
 0001:00016d15       ??CEHANDLE@@QAEPAVCBaseEntity@@XZ 10017d15 f   cbase.obj
 0001:00016d31       ?TakeHealth@CBaseEntity@@UAEHMH@Z 10017d31 f   cbase.obj
 0001:00016dd5       ?TakeDamage@CBaseEntity@@UAEHPAUentvars_s@@0MH@Z 10017dd5 f   cbase.obj
 0001:00017066       ?Killed@CBaseEntity@@UAEXPAUentvars_s@@H@Z 10018066 f   cbase.obj
 0001:0001709f       ?GetNextTarget@CBaseEntity@@UAEPAV1@XZ 1001809f f   cbase.obj
 0001:0001710f       ?Save@CBaseEntity@@UAEHAAVCSave@@@Z 1001810f f   cbase.obj
 0001:00017150       ?Restore@CBaseEntity@@UAEHAAVCRestore@@@Z 10018150 f   cbase.obj
 0001:000174d3       ?SetObjectCollisionBox@CBaseEntity@@UAEXXZ 100184d3 f   cbase.obj
 0001:000174ed       ?Intersects@CBaseEntity@@QAEHPAV1@@Z 100184ed f   cbase.obj
 0001:000175c1       ?MakeDormant@CBaseEntity@@QAEXXZ 100185c1 f   cbase.obj
 0001:0001764e       ?IsDormant@CBaseEntity@@QAEHXZ 1001864e f   cbase.obj
 0001:0001766a       ?IsInWorld@CBaseEntity@@UAEHXZ 1001866a f   cbase.obj
 0001:000177c7       ?ShouldToggle@CBaseEntity@@QAEHW4USE_TYPE@@H@Z 100187c7 f   cbase.obj
 0001:00017801       ?DamageDecal@CBaseEntity@@UAEHH@Z 10018801 f   cbase.obj
 0001:00017845       ?Create@CBaseEntity@@SAPAV1@PADABVVector@@1PAUedict_s@@@Z 10018845 f   cbase.obj
 0001:00017900       ??1CSave@@QAE@XZ           10018900 f i cbase.obj
 0001:00017920       ??0entvars_s@@QAE@XZ       10018920 f i cbase.obj
 0001:00017a60       ??1CRestore@@QAE@XZ        10018a60 f i cbase.obj
 0001:00017a80       ?FNullEnt@@YAHPAUentvars_s@@@Z 10018a80 f i cbase.obj
 0001:00017ac0       ?OFFSET@@YAHPAUentvars_s@@@Z 10018ac0 f i cbase.obj
 0001:00017ae0       ??0CSave@@QAE@PAUsaverestore_s@@@Z 10018ae0 f i cbase.obj
 0001:00017b00       ??0CRestore@@QAE@PAUsaverestore_s@@@Z 10018b00 f i cbase.obj
 0001:00017b30       ?SetGlobalMode@CRestore@@QAEXH@Z 10018b30 f i cbase.obj
 0001:00017b50       ?PrecacheMode@CRestore@@QAEXH@Z 10018b50 f i cbase.obj
 0001:00017b70       ?set_suicide_frame@@YAXPAUentvars_s@@@Z 10018b70 f   client.obj
 0001:00017bd1       ?ClientConnect@@YAHPAUedict_s@@PBD1QAD@Z 10018bd1 f   client.obj
 0001:00017bf7       ?ClientDisconnect@@YAXPAUedict_s@@@Z 10018bf7 f   client.obj
 0001:00017cf6       ?respawn@@YAXPAUentvars_s@@H@Z 10018cf6 f   client.obj
 0001:00017d64       ?ClientKill@@YAXPAUedict_s@@@Z 10018d64 f   client.obj
 0001:00017dd6       ?ClientPutInServer@@YAXPAUedict_s@@@Z 10018dd6 f   client.obj
 0001:00017e28       ?Host_Say@@YAXPAUedict_s@@H@Z 10018e28 f   client.obj
 0001:00018320       ?ClientCommand@@YAXPAUedict_s@@@Z 10019320 f   client.obj
 0001:000186eb       ?ClientUserInfoChanged@@YAXPAUedict_s@@PAD@Z 100196eb f   client.obj
 0001:0001898a       ?ServerDeactivate@@YAXXZ   1001998a f   client.obj
 0001:000189a4       ?ServerActivate@@YAXPAUedict_s@@HH@Z 100199a4 f   client.obj
 0001:00018a84       ?PlayerPreThink@@YAXPAUedict_s@@@Z 10019a84 f   client.obj
 0001:00018abc       ?PlayerPostThink@@YAXPAUedict_s@@@Z 10019abc f   client.obj
 0001:00018af4       ?ParmsNewLevel@@YAXXZ      10019af4 f   client.obj
 0001:00018af9       ?ParmsChangeLevel@@YAXXZ   10019af9 f   client.obj
 0001:00018b2c       ?StartFrame@@YAXXZ         10019b2c f   client.obj
 0001:00018b72       ?ClientPrecache@@YAXXZ     10019b72 f   client.obj
 0001:00018fc3       ?GetGameDescription@@YAPBDXZ 10019fc3 f   client.obj
 0001:00018fe8       ?Sys_Error@@YAXPBD@Z       10019fe8 f   client.obj
 0001:00018fed       ?PlayerCustomization@@YAXPAUedict_s@@PAUcustomization_s@@@Z 10019fed f   client.obj
 0001:00019084       ?SpectatorConnect@@YAXPAUedict_s@@@Z 1001a084 f   client.obj
 0001:000190b6       ?SpectatorDisconnect@@YAXPAUedict_s@@@Z 1001a0b6 f   client.obj
 0001:000190e8       ?SpectatorThink@@YAXPAUedict_s@@@Z 1001a0e8 f   client.obj
 0001:0001911a       ?SetupVisibility@@YAXPAUedict_s@@0PAPAE1@Z 1001a11a f   client.obj
 0001:00019222       ?AddToFullPack@@YAHPAUentity_state_s@@HPAUedict_s@@1HHPAE@Z 1001a222 f   client.obj
 0001:00019853       ?CreateBaseline@@YAXHHPAUentity_state_s@@PAUedict_s@@HVVector@@2@Z 1001a853 f   client.obj
 0001:00019a6d       ?Entity_FieldInit@@YAXPAUdelta_s@@@Z 1001aa6d f   client.obj
 0001:00019afc       ?Entity_Encode@@YAXPAUdelta_s@@PBE1@Z 1001aafc f   client.obj
 0001:00019cdb       ?Player_FieldInit@@YAXPAUdelta_s@@@Z 1001acdb f   client.obj
 0001:00019d25       ?Player_Encode@@YAXPAUdelta_s@@PBE1@Z 1001ad25 f   client.obj
 0001:00019e5e       ?Custom_Entity_FieldInit@@YAXPAUdelta_s@@@Z 1001ae5e f   client.obj
 0001:00019f32       ?Custom_Encode@@YAXPAUdelta_s@@PBE1@Z 1001af32 f   client.obj
 0001:0001a061       ?RegisterEncoders@@YAXXZ   1001b061 f   client.obj
 0001:0001a09f       ?GetWeaponData@@YAHPAUedict_s@@PAUweapon_data_s@@@Z 1001b09f f   client.obj
 0001:0001a320       ?UpdateClientData@@YAXPBUedict_s@@HPAUclientdata_s@@@Z 1001b320 f   client.obj
 0001:0001a6a0       ?CmdStart@@YAXPBUedict_s@@PBUusercmd_s@@I@Z 1001b6a0 f   client.obj
 0001:0001a6fe       ?CmdEnd@@YAXPBUedict_s@@@Z 1001b6fe f   client.obj
 0001:0001a73e       ?ConnectionlessPacket@@YAHPBUnetadr_s@@PBDPADPAH@Z 1001b73e f   client.obj
 0001:0001a759       ?GetHullBounds@@YAHHPAM0@Z 1001b759 f   client.obj
 0001:0001a85e       ?CreateInstancedBaselines@@YAXXZ 1001b85e f   client.obj
 0001:0001a896       ?InconsistentFile@@YAHPBUedict_s@@PBDPAD@Z 1001b896 f   client.obj
 0001:0001a8d4       ?AllowLagCompensation@@YAHXZ 1001b8d4 f   client.obj
 0001:0001a8e0       ?MESSAGE_BEGIN@@YAXHHPBMPAUentvars_s@@@Z 1001b8e0 f i client.obj
 0001:0001a910       ??0entity_state_s@@QAE@XZ  1001b910 f i client.obj
 0001:0001a9c0       ?GetClassPtr@@YAPAVCBasePlayer@@PAV1@@Z 1001b9c0 f i client.obj
 0001:0001aa50       ??0CBasePlayer@@QAE@XZ     1001ba50 f i client.obj
 0001:0001aa80       ?BodyTarget@CBasePlayer@@UAE?AVVector@@ABV2@@Z 1001ba80 f i client.obj
 0001:0001aaf0       ?StartSneaking@CBasePlayer@@UAEXXZ 1001baf0 f i client.obj
 0001:0001ab20       ?StopSneaking@CBasePlayer@@UAEXXZ 1001bb20 f i client.obj
 0001:0001ab50       ?IsSneaking@CBasePlayer@@UAEHXZ 1001bb50 f i client.obj
 0001:0001ab90       ?IsAlive@CBasePlayer@@UAEHXZ 1001bb90 f i client.obj
 0001:0001abe0       ?ShouldFadeOnDeath@CBasePlayer@@UAEHXZ 1001bbe0 f i client.obj
 0001:0001abf0       ?IsPlayer@CBasePlayer@@UAEHXZ 1001bbf0 f i client.obj
 0001:0001ac00       ?IsNetClient@CBasePlayer@@UAEHXZ 1001bc00 f i client.obj
 0001:0001ac10       ?ObjectCaps@CBasePlayer@@UAEHXZ 1001bc10 f i client.obj
 0001:0001ac30       ?LimitVelocity@CGib@@QAEXXZ 1001bc30 f   combat.obj
 0001:0001ac99       ?SpawnStickyGibs@CGib@@SAXPAUentvars_s@@VVector@@H@Z 1001bc99 f   combat.obj
 0001:0001afbc       ?SpawnHeadGib@CGib@@SAXPAUentvars_s@@@Z 1001bfbc f   combat.obj
 0001:0001b297       ?SpawnRandomGibs@CGib@@SAXPAUentvars_s@@HH@Z 1001c297 f   combat.obj
 0001:0001b622       ?HasHumanGibs@CBaseMonster@@UAEHXZ 1001c622 f   combat.obj
 0001:0001b65e       ?HasAlienGibs@CBaseMonster@@UAEHXZ 1001c65e f   combat.obj
 0001:0001b6a6       ?FadeMonster@CBaseMonster@@UAEXXZ 1001c6a6 f   combat.obj
 0001:0001b745       ?GibMonster@CBaseMonster@@UAEXXZ 1001c745 f   combat.obj
 0001:0001b86e       ?GetDeathActivity@CBaseMonster@@UAE?AW4Activity@@XZ 1001c86e f   combat.obj
 0001:0001bb15       ?GetSmallFlinchActivity@CBaseMonster@@QAE?AW4Activity@@XZ 1001cb15 f   combat.obj
 0001:0001bbfc       ?BecomeDead@CBaseMonster@@UAEXXZ 1001cbfc f   combat.obj
 0001:0001bc55       ?ShouldGibMonster@CBaseMonster@@QAEHH@Z 1001cc55 f   combat.obj
 0001:0001bc90       ?CallGibMonster@CBaseMonster@@QAEXXZ 1001cc90 f   combat.obj
 0001:0001bdc7       ?Killed@CBaseMonster@@UAEXPAUentvars_s@@H@Z 1001cdc7 f   combat.obj
 0001:0001bf0d       ?SUB_StartFadeOut@CBaseEntity@@QAEXXZ 1001cf0d f   combat.obj
 0001:0001bfa3       ?SUB_FadeOut@CBaseEntity@@QAEXXZ 1001cfa3 f   combat.obj
 0001:0001c03c       ?WaitTillLand@CGib@@QAEXXZ 1001d03c f   combat.obj
 0001:0001c0ec       ?BounceGibTouch@CGib@@QAEXPAVCBaseEntity@@@Z 1001d0ec f   combat.obj
 0001:0001c327       ?StickyGibTouch@CGib@@QAEXPAVCBaseEntity@@@Z 1001d327 f   combat.obj
 0001:0001c4ac       ?Spawn@CGib@@QAEXPBD@Z     1001d4ac f   combat.obj
 0001:0001c5c8       ?TakeHealth@CBaseMonster@@UAEHMH@Z 1001d5c8 f   combat.obj
 0001:0001c621       ?TakeDamage@CBaseMonster@@UAEHPAUentvars_s@@0MH@Z 1001d621 f   combat.obj
 0001:0001cb19       ?DeadTakeDamage@CBaseMonster@@QAEHPAUentvars_s@@0MH@Z 1001db19 f   combat.obj
 0001:0001cc94       ?DamageForce@CBaseMonster@@QAEMM@Z 1001dc94 f   combat.obj
 0001:0001ccf5       ?RadiusDamage@@YAXVVector@@PAUentvars_s@@1MMHH@Z 1001dcf5 f   combat.obj
 0001:0001cf43       ?RadiusDamage@CBaseMonster@@QAEXPAUentvars_s@@0MHH@Z 1001df43 f   combat.obj
 0001:0001cf92       ?RadiusDamage@CBaseMonster@@QAEXVVector@@PAUentvars_s@@1MHH@Z 1001df92 f   combat.obj
 0001:0001cfdb       ?CheckTraceHullAttack@CBaseMonster@@QAEPAVCBaseEntity@@MHH@Z 1001dfdb f   combat.obj
 0001:0001d0f0       ?FInViewCone@CBaseMonster@@UAEHPAVCBaseEntity@@@Z 1001e0f0 f   combat.obj
 0001:0001d1a0       ?FInViewCone@CBaseMonster@@UAEHPAVVector@@@Z 1001e1a0 f   combat.obj
 0001:0001d24a       ?FVisible@CBaseEntity@@UAEHPAV1@@Z 1001e24a f   combat.obj
 0001:0001d364       ?FVisible@CBaseEntity@@UAEHABVVector@@@Z 1001e364 f   combat.obj
 0001:0001d3e7       ?TraceAttack@CBaseEntity@@UAEXPAUentvars_s@@MVVector@@PAUTraceResult@@H@Z 1001e3e7 f   combat.obj
 0001:0001d4a8       ?TraceAttack@CBaseMonster@@UAEXPAUentvars_s@@MVVector@@PAUTraceResult@@H@Z 1001e4a8 f   combat.obj
 0001:0001d5cb       ?FireBullets@CBaseEntity@@QAEXKVVector@@00MHHHPAUentvars_s@@@Z 1001e5cb f   combat.obj
 0001:0001dc6c       ?FireBulletsPlayer@CBaseEntity@@QAE?AVVector@@KV2@00MHHHPAUentvars_s@@H@Z 1001ec6c f   combat.obj
 0001:0001e107       ?TraceBleed@CBaseEntity@@UAEXMVVector@@PAUTraceResult@@H@Z 1001f107 f   combat.obj
 0001:0001e2b7       ?MakeDamageBloodDecal@CBaseMonster@@QAEXHMPAUTraceResult@@ABVVector@@@Z 1001f2b7 f   combat.obj
 0001:0001e420       ??0Vector2D@@QAE@XZ        1001f420 f i combat.obj
 0001:0001e430       ?Normalize@Vector2D@@QBE?AV1@XZ 1001f430 f i combat.obj
 0001:0001e4c0       ??0Vector2D@@QAE@MM@Z      1001f4c0 f i combat.obj
 0001:0001e4f0       ?Length@Vector2D@@QBEMXZ   1001f4f0 f i combat.obj
 0001:0001e530       ?DotProduct@@YAMABVVector2D@@0@Z 1001f530 f i combat.obj
 0001:0001e550       ?Make2D@Vector@@QBE?AVVector2D@@XZ 1001f550 f i combat.obj
 0001:0001e590       ?GetClassPtr@@YAPAVCGib@@PAV1@@Z 1001f590 f i combat.obj
 0001:0001e620       ??0CGib@@QAE@XZ            1001f620 f i combat.obj
 0001:0001e640       ?ObjectCaps@CGib@@UAEHXZ   1001f640 f i combat.obj
 0001:0001e660       _monster_alien_controller  1001f660 f   controller.obj
 0001:0001e671       ?Save@CController@@UAEHAAVCSave@@@Z 1001f671 f   controller.obj
 0001:0001e6aa       ?Restore@CController@@UAEHAAVCRestore@@@Z 1001f6aa f   controller.obj
 0001:0001e6e3       ?Classify@CController@@UAEHXZ 1001f6e3 f   controller.obj
 0001:0001e6f3       ?SetYawSpeed@CController@@UAEXXZ 1001f6f3 f   controller.obj
 0001:0001e716       ?TakeDamage@CController@@UAEHPAUentvars_s@@0MH@Z 1001f716 f   controller.obj
 0001:0001e75b       ?Killed@CController@@UAEXPAUentvars_s@@H@Z 1001f75b f   controller.obj
 0001:0001e7c6       ?GibMonster@CController@@UAEXXZ 1001f7c6 f   controller.obj
 0001:0001e82f       ?PainSound@CController@@UAEXXZ 1001f82f f   controller.obj
 0001:0001e895       ?AlertSound@CController@@UAEXXZ 1001f895 f   controller.obj
 0001:0001e8e9       ?IdleSound@CController@@UAEXXZ 1001f8e9 f   controller.obj
 0001:0001e93d       ?AttackSound@CController@@QAEXXZ 1001f93d f   controller.obj
 0001:0001e991       ?DeathSound@CController@@UAEXXZ 1001f991 f   controller.obj
 0001:0001e9e5       ?HandleAnimEvent@CController@@UAEXPAUMonsterEvent_t@@@Z 1001f9e5 f   controller.obj
 0001:0001ee54       ?Spawn@CController@@UAEXXZ 1001fe54 f   controller.obj
 0001:0001ef75       ?Precache@CController@@UAEXXZ 1001ff75 f   controller.obj
 0001:0001f09e       ?ScheduleFromName@CController@@UAEPAUSchedule_t@@PBD@Z 1002009e f   controller.obj
 0001:0001f0da       ?StartTask@CController@@UAEXPAUTask_t@@@Z 100200da f   controller.obj
 0001:0001f27f       ?Intersect@@YA?AVVector@@V1@00M@Z 1002027f f   controller.obj
 0001:0001f3f2       ?LookupFloat@CController@@QAEHXZ 100203f2 f   controller.obj
 0001:0001f5b4       ?RunTask@CController@@UAEXPAUTask_t@@@Z 100205b4 f   controller.obj
 0001:0001fba9       ?GetSchedule@CController@@UAEPAUSchedule_t@@XZ 10020ba9 f   controller.obj
 0001:0001fc66       ?GetScheduleOfType@CController@@UAEPAUSchedule_t@@H@Z 10020c66 f   controller.obj
 0001:0001fcf6       ?CheckRangeAttack1@CController@@UAEHMM@Z 10020cf6 f   controller.obj
 0001:0001fd3c       ?CheckRangeAttack2@CController@@UAEHMM@Z 10020d3c f   controller.obj
 0001:0001fd82       ?CheckMeleeAttack1@CController@@UAEHMM@Z 10020d82 f   controller.obj
 0001:0001fd91       ?SetActivity@CController@@UAEXW4Activity@@@Z 10020d91 f   controller.obj
 0001:0001fdd6       ?RunAI@CController@@UAEXXZ 10020dd6 f   controller.obj
 0001:00020071       ?Stop@CController@@UAEXXZ  10021071 f   controller.obj
 0001:00020093       ?Move@CController@@UAEXM@Z 10021093 f   controller.obj
 0001:000205ac       ?ShouldAdvanceRoute@CController@@UAEHM@Z 100215ac f   controller.obj
 0001:000205d2       ?CheckLocalMove@CController@@UAEHABVVector@@0PAVCBaseEntity@@PAM@Z 100215d2 f   controller.obj
 0001:000206ca       ?MoveExecute@CController@@UAEXPAVCBaseEntity@@ABVVector@@M@Z 100216ca f   controller.obj
 0001:000207ae       _controller_head_ball      100217ae f   controller.obj
 0001:000207bf       ?Spawn@CControllerHeadBall@@EAEXXZ 100217bf f   controller.obj
 0001:0002094a       ?Precache@CControllerHeadBall@@EAEXXZ 1002194a f   controller.obj
 0001:0002097f       ?HuntThink@CControllerHeadBall@@AAEXXZ 1002197f f   controller.obj
 0001:00020e8c       ?DieThink@CControllerHeadBall@@AAEXXZ 10021e8c f   controller.obj
 0001:00020ea3       ?MovetoTarget@CControllerHeadBall@@AAEXVVector@@@Z 10021ea3 f   controller.obj
 0001:00020fd0       ?Crawl@CControllerHeadBall@@AAEXXZ 10021fd0 f   controller.obj
 0001:00021170       ?BounceTouch@CControllerHeadBall@@AAEXPAVCBaseEntity@@@Z 10022170 f   controller.obj
 0001:0002125d       _controller_energy_ball    1002225d f   controller.obj
 0001:0002126e       ?Spawn@CControllerZapBall@@EAEXXZ 1002226e f   controller.obj
 0001:000213d2       ?Precache@CControllerZapBall@@EAEXXZ 100223d2 f   controller.obj
 0001:000213eb       ?AnimateThink@CControllerZapBall@@AAEXXZ 100223eb f   controller.obj
 0001:00021493       ?ExplodeTouch@CControllerZapBall@@AAEXPAVCBaseEntity@@@Z 10022493 f   controller.obj
 0001:000215c0       ?SetAttachment@CSprite@@QAEXPAUedict_s@@H@Z 100225c0 f i controller.obj
 0001:00021620       ?SetTransparency@CSprite@@QAEXHHHHHH@Z 10022620 f i controller.obj
 0001:00021690       ?SetScale@CSprite@@QAEXM@Z 10022690 f i controller.obj
 0001:000216b0       ?SetBrightness@CSprite@@QAEXH@Z 100226b0 f i controller.obj
 0001:000216d0       ?GetClassPtr@@YAPAVCController@@PAV1@@Z 100226d0 f i controller.obj
 0001:00021760       ?GetClassPtr@@YAPAVCControllerHeadBall@@PAV1@@Z 10022760 f i controller.obj
 0001:000217f0       ?GetClassPtr@@YAPAVCControllerZapBall@@PAV1@@Z 100227f0 f i controller.obj
 0001:00021880       ??0CController@@QAE@XZ     10022880 f i controller.obj
 0001:000218c0       ??0CControllerHeadBall@@QAE@XZ 100228c0 f i controller.obj
 0001:000218f0       ??0CControllerZapBall@@QAE@XZ 100228f0 f i controller.obj
 0001:00021910       _crossbow_bolt             10022910 f   crossbow.obj
 0001:00021921       ?Save@CCrossbowBolt@@EAEHAAVCSave@@@Z 10022921 f   crossbow.obj
 0001:0002195a       ?Restore@CCrossbowBolt@@EAEHAAVCRestore@@@Z 1002295a f   crossbow.obj
 0001:00021993       ?BoltCreate@CCrossbowBolt@@SAPAV1@XZ 10022993 f   crossbow.obj
 0001:000219b5       ?Spawn@CCrossbowBolt@@EAEXXZ 100229b5 f   crossbow.obj
 0001:00021aab       ?Precache@CCrossbowBolt@@EAEXXZ 10022aab f   crossbow.obj
 0001:00021b1e       ?Classify@CCrossbowBolt@@EAEHXZ 10022b1e f   crossbow.obj
 0001:00021b2b       ?BoltTouch@CCrossbowBolt@@AAEXPAVCBaseEntity@@@Z 10022b2b f   crossbow.obj
 0001:00021f7f       ?BubbleThink@CCrossbowBolt@@AAEXXZ 10022f7f f   crossbow.obj
 0001:0002200c       ?ExplodeThink@CCrossbowBolt@@AAEXXZ 1002300c f   crossbow.obj
 0001:000221b3       _weapon_crossbow           100231b3 f   crossbow.obj
 0001:000221c4       ?Spawn@CCrossbow@@UAEXXZ   100231c4 f   crossbow.obj
 0001:00022217       ?AddToPlayer@CCrossbow@@UAEHPAVCBasePlayer@@@Z 10023217 f   crossbow.obj
 0001:0002226c       ?Precache@CCrossbow@@UAEXXZ 1002326c f   crossbow.obj
 0001:000222fe       ?GetItemInfo@CCrossbow@@UAEHPAUItemInfo@@@Z 100232fe f   crossbow.obj
 0001:0002238d       ?Deploy@CCrossbow@@UAEHXZ  1002338d f   crossbow.obj
 0001:000223e0       ?Holster@CCrossbow@@UAEXH@Z 100233e0 f   crossbow.obj
 0001:00022466       ?PrimaryAttack@CCrossbow@@UAEXXZ 10023466 f   crossbow.obj
 0001:000224a4       ?FireSniperBolt@CCrossbow@@QAEXXZ 100234a4 f   crossbow.obj
 0001:00022715       ?FireBolt@CCrossbow@@QAEXXZ 10023715 f   crossbow.obj
 0001:00022a51       ?SecondaryAttack@CCrossbow@@UAEXXZ 10023a51 f   crossbow.obj
 0001:00022b26       ?Reload@CCrossbow@@UAEXXZ  10023b26 f   crossbow.obj
 0001:00022bd3       ?WeaponIdle@CCrossbow@@UAEXXZ 10023bd3 f   crossbow.obj
 0001:00022d13       _ammo_crossbow             10023d13 f   crossbow.obj
 0001:00022d30       ?GetClassPtr@@YAPAVCCrossbowBolt@@PAV1@@Z 10023d30 f i crossbow.obj
 0001:00022dc0       ?GetClassPtr@@YAPAVCCrossbow@@PAV1@@Z 10023dc0 f i crossbow.obj
 0001:00022e50       ?GetClassPtr@@YAPAVCCrossbowAmmo@@PAV1@@Z 10023e50 f i crossbow.obj
 0001:00022ee0       ??0CCrossbowBolt@@QAE@XZ   10023ee0 f i crossbow.obj
 0001:00022f00       ??0CCrossbow@@QAE@XZ       10023f00 f i crossbow.obj
 0001:00022f20       ??0CCrossbowAmmo@@QAE@XZ   10023f20 f i crossbow.obj
 0001:00022f40       ?Spawn@CCrossbowAmmo@@EAEXXZ 10023f40 f i crossbow.obj
 0001:00022f80       ?Precache@CCrossbowAmmo@@EAEXXZ 10023f80 f i crossbow.obj
 0001:00022fb0       ?AddAmmo@CCrossbowAmmo@@EAEHPAVCBaseEntity@@@Z 10023fb0 f i crossbow.obj
 0001:00023010       ??0CBasePlayerWeapon@@QAE@XZ 10024010 f i crossbow.obj
 0001:00023030       ??0CBasePlayerAmmo@@QAE@XZ 10024030 f i crossbow.obj
 0001:00023050       ??0CBasePlayerItem@@QAE@XZ 10024050 f i crossbow.obj
 0001:00023070       ?AddDuplicate@CBasePlayerItem@@UAEHPAV1@@Z 10024070 f i crossbow.obj
 0001:00023080       ?GetItemInfo@CBasePlayerItem@@UAEHPAUItemInfo@@@Z 10024080 f i crossbow.obj
 0001:00023090       ?CanDeploy@CBasePlayerItem@@UAEHXZ 10024090 f i crossbow.obj
 0001:000230a0       ?Deploy@CBasePlayerItem@@UAEHXZ 100240a0 f i crossbow.obj
 0001:000230b0       ?CanHolster@CBasePlayerItem@@UAEHXZ 100240b0 f i crossbow.obj
 0001:000230c0       ?UpdateItemInfo@CBasePlayerItem@@UAEXXZ 100240c0 f i crossbow.obj
 0001:000230d0       ?ItemPreFrame@CBasePlayerItem@@UAEXXZ 100240d0 f i crossbow.obj
 0001:000230e0       ?ItemPostFrame@CBasePlayerItem@@UAEXXZ 100240e0 f i crossbow.obj
 0001:000230f0       ?PrimaryAmmoIndex@CBasePlayerItem@@UAEHXZ 100240f0 f i crossbow.obj
 0001:00023100       ?SecondaryAmmoIndex@CBasePlayerItem@@UAEHXZ 10024100 f i crossbow.obj
 0001:00023110       ?UpdateClientData@CBasePlayerItem@@UAEHPAVCBasePlayer@@@Z 10024110 f i crossbow.obj
 0001:00023120       ?GetWeaponPtr@CBasePlayerItem@@UAEPAV1@XZ 10024120 f i crossbow.obj
 0001:00023130       ?iItemSlot@CBasePlayerItem@@UAEHXZ 10024130 f i crossbow.obj
 0001:00023140       ?AddWeapon@CBasePlayerWeapon@@UAEHXZ 10024140 f i crossbow.obj
 0001:00023170       ?UpdateItemInfo@CBasePlayerWeapon@@UAEXXZ 10024170 f i crossbow.obj
 0001:00023180       ?PrimaryAttack@CBasePlayerWeapon@@UAEXXZ 10024180 f i crossbow.obj
 0001:00023190       ?SecondaryAttack@CBasePlayerWeapon@@UAEXXZ 10024190 f i crossbow.obj
 0001:000231a0       ?Reload@CBasePlayerWeapon@@UAEXXZ 100241a0 f i crossbow.obj
 0001:000231b0       ?WeaponIdle@CBasePlayerWeapon@@UAEXXZ 100241b0 f i crossbow.obj
 0001:000231c0       ?ShouldWeaponIdle@CBasePlayerWeapon@@UAEHXZ 100241c0 f i crossbow.obj
 0001:000231d0       ?UseDecrement@CBasePlayerWeapon@@UAEHXZ 100241d0 f i crossbow.obj
 0001:000231e0       ?GetWeaponPtr@CBasePlayerWeapon@@UAEPAVCBasePlayerItem@@XZ 100241e0 f i crossbow.obj
 0001:000231f0       ?AddAmmo@CBasePlayerAmmo@@UAEHPAVCBaseEntity@@@Z 100241f0 f i crossbow.obj
 0001:00023210       ?iItemSlot@CCrossbow@@UAEHXZ 10024210 f i crossbow.obj
 0001:00023220       ?UseDecrement@CCrossbow@@UAEHXZ 10024220 f i crossbow.obj
 0001:00023230       _weapon_crowbar            10024230 f   crowbar.obj
 0001:00023241       ?Spawn@CCrowbar@@UAEXXZ    10024241 f   crowbar.obj
 0001:00023294       ?Precache@CCrowbar@@UAEXXZ 10024294 f   crowbar.obj
 0001:00023337       ?GetItemInfo@CCrowbar@@UAEHPAUItemInfo@@@Z 10024337 f   crowbar.obj
 0001:000233bc       ?Deploy@CCrowbar@@UAEHXZ   100243bc f   crowbar.obj
 0001:000233e4       ?Holster@CCrowbar@@UAEXH@Z 100243e4 f   crowbar.obj
 0001:00023421       ?FindHullIntersection@@YAXABVVector@@AAUTraceResult@@PAM2PAUedict_s@@@Z 10024421 f   crowbar.obj
 0001:000235dd       ?PrimaryAttack@CCrowbar@@UAEXXZ 100245dd f   crowbar.obj
 0001:0002361f       ?Smack@CCrowbar@@QAEXXZ    1002461f f   crowbar.obj
 0001:0002363d       ?SwingAgain@CCrowbar@@QAEXXZ 1002463d f   crowbar.obj
 0001:00023652       ?Swing@CCrowbar@@QAEHH@Z   10024652 f   crowbar.obj
 0001:00023d60       ?GetClassPtr@@YAPAVCCrowbar@@PAV1@@Z 10024d60 f i crowbar.obj
 0001:00023df0       ??0CCrowbar@@QAE@XZ        10024df0 f i crowbar.obj
 0001:00023e20       ?iItemSlot@CCrowbar@@UAEHXZ 10024e20 f i crowbar.obj
 0001:00023e30       ?UseDecrement@CCrowbar@@UAEHXZ 10024e30 f i crowbar.obj
 0001:00023e40       ?ScheduleFromName@CBaseMonster@@UAEPAUSchedule_t@@PBD@Z 10024e40 f   defaultai.obj
 0001:00023e60       ?ScheduleInList@CBaseMonster@@QAEPAUSchedule_t@@PBDPAPAU2@H@Z 10024e60 f   defaultai.obj
 0001:00023f05       ?GetScheduleOfType@CBaseMonster@@UAEPAUSchedule_t@@H@Z 10024f05 f   defaultai.obj
 0001:000241f0       ?Save@CBaseDoor@@UAEHAAVCSave@@@Z 100251f0 f   doors.obj
 0001:00024229       ?Restore@CBaseDoor@@UAEHAAVCRestore@@@Z 10025229 f   doors.obj
 0001:00024262       ?PlayLockSounds@@YAXPAUentvars_s@@PAUlocksounds@@HH@Z 10025262 f   doors.obj
 0001:0002454b       ?KeyValue@CBaseDoor@@UAEXPAUKeyValueData_s@@@Z 1002554b f   doors.obj
 0001:000247ce       _func_door                 100257ce f   doors.obj
 0001:000247df       _func_water                100257df f   doors.obj
 0001:000247f0       ?Spawn@CBaseDoor@@UAEXXZ   100257f0 f   doors.obj
 0001:00024aaa       ?SetToggleState@CBaseDoor@@UAEXH@Z 10025aaa f   doors.obj
 0001:00024aef       ?Precache@CBaseDoor@@UAEXXZ 10025aef f   doors.obj
 0001:0002521e       ?DoorTouch@CBaseDoor@@QAEXPAVCBaseEntity@@@Z 1002621e f   doors.obj
 0001:000252f3       ?Use@CBaseDoor@@UAEXPAVCBaseEntity@@0W4USE_TYPE@@M@Z 100262f3 f   doors.obj
 0001:0002533f       ?DoorActivate@CBaseDoor@@QAEHXZ 1002633f f   doors.obj
 0001:00025433       ?DoorGoUp@CBaseDoor@@QAEXXZ 10026433 f   doors.obj
 0001:0002564a       ?DoorHitTop@CBaseDoor@@QAEXXZ 1002664a f   doors.obj
 0001:000257d9       ?DoorGoDown@CBaseDoor@@QAEXXZ 100267d9 f   doors.obj
 0001:000258bd       ?DoorHitBottom@CBaseDoor@@QAEXXZ 100268bd f   doors.obj
 0001:000259f8       ?Blocked@CBaseDoor@@UAEXPAVCBaseEntity@@@Z 100269f8 f   doors.obj
 0001:00025c52       _func_door_rotating        10026c52 f   doors.obj
 0001:00025c63       ?Spawn@CRotDoor@@UAEXXZ    10026c63 f   doors.obj
 0001:00025ed6       ?SetToggleState@CRotDoor@@UAEXH@Z 10026ed6 f   doors.obj
 0001:00025f47       _momentary_door            10026f47 f   doors.obj
 0001:00025f58       ?Save@CMomentaryDoor@@UAEHAAVCSave@@@Z 10026f58 f   doors.obj
 0001:00025f91       ?Restore@CMomentaryDoor@@UAEHAAVCRestore@@@Z 10026f91 f   doors.obj
 0001:00025fca       ?Spawn@CMomentaryDoor@@UAEXXZ 10026fca f   doors.obj
 0001:0002621e       ?Precache@CMomentaryDoor@@UAEXXZ 1002721e f   doors.obj
 0001:00026409       ?KeyValue@CMomentaryDoor@@UAEXPAUKeyValueData_s@@@Z 10027409 f   doors.obj
 0001:000264ab       ?Use@CMomentaryDoor@@UAEXPAVCBaseEntity@@0W4USE_TYPE@@M@Z 100274ab f   doors.obj
 0001:00026600       ?GetClassPtr@@YAPAVCBaseDoor@@PAV1@@Z 10027600 f i doors.obj
 0001:00026690       ?GetClassPtr@@YAPAVCRotDoor@@PAV1@@Z 10027690 f i doors.obj
 0001:00026720       ?GetClassPtr@@YAPAVCMomentaryDoor@@PAV1@@Z 10027720 f i doors.obj
 0001:000267b0       ??0CBaseDoor@@QAE@XZ       100277b0 f i doors.obj
 0001:000267d0       ?ObjectCaps@CBaseDoor@@UAEHXZ 100277d0 f i doors.obj
 0001:00026810       ??0CRotDoor@@QAE@XZ        10027810 f i doors.obj
 0001:00026830       ??0CMomentaryDoor@@QAE@XZ  10027830 f i doors.obj
 0001:00026850       ?ObjectCaps@CMomentaryDoor@@UAEHXZ 10027850 f i doors.obj
 0001:00026870       _info_target               10027870 f   effects.obj
 0001:00026881       _env_bubbles               10027881 f   effects.obj
 0001:00026892       ?Save@CBubbling@@UAEHAAVCSave@@@Z 10027892 f   effects.obj
 0001:000268cb       ?Restore@CBubbling@@UAEHAAVCRestore@@@Z 100278cb f   effects.obj
 0001:00026904       ?Spawn@CBubbling@@UAEXXZ   10027904 f   effects.obj
 0001:00026a7e       ?Precache@CBubbling@@UAEXXZ 10027a7e f   effects.obj
 0001:00026a9d       ?Use@CBubbling@@UAEXPAVCBaseEntity@@0W4USE_TYPE@@M@Z 10027a9d f   effects.obj
 0001:00026b21       ?KeyValue@CBubbling@@UAEXPAUKeyValueData_s@@@Z 10027b21 f   effects.obj
 0001:00026bf6       ?FizzThink@CBubbling@@QAEXXZ 10027bf6 f   effects.obj
 0001:00026ccd       _beam                      10027ccd f   effects.obj
 0001:00026cde       ?Spawn@CBeam@@UAEXXZ       10027cde f   effects.obj
 0001:00026d04       ?Precache@CBeam@@UAEXXZ    10027d04 f   effects.obj
 0001:00026d69       ?SetStartEntity@CBeam@@QAEXH@Z 10027d69 f   effects.obj
 0001:00026dba       ?SetEndEntity@CBeam@@QAEXH@Z 10027dba f   effects.obj
 0001:00026e0b       ?GetStartPos@CBeam@@QAEABVVector@@XZ 10027e0b f   effects.obj
 0001:00026e4d       ?GetEndPos@CBeam@@QAEABVVector@@XZ 10027e4d f   effects.obj
 0001:00026eaa       ?BeamCreate@CBeam@@SAPAV1@PBDH@Z 10027eaa f   effects.obj
 0001:00026eea       ?BeamInit@CBeam@@QAEXPBDH@Z 10027eea f   effects.obj
 0001:00026fc4       ?PointsInit@CBeam@@QAEXABVVector@@0@Z 10027fc4 f   effects.obj
 0001:0002700f       ?HoseInit@CBeam@@QAEXABVVector@@0@Z 1002800f f   effects.obj
 0001:0002705a       ?PointEntInit@CBeam@@QAEXABVVector@@H@Z 1002805a f   effects.obj
 0001:000270a5       ?EntsInit@CBeam@@QAEXHH@Z  100280a5 f   effects.obj
 0001:000270f0       ?RelinkBeam@CBeam@@QAEXXZ  100280f0 f   effects.obj
 0001:0002730f       ?TriggerTouch@CBeam@@QAEXPAVCBaseEntity@@@Z 1002830f f   effects.obj
 0001:00027382       ?RandomTargetname@CBeam@@QAEPAVCBaseEntity@@PBD@Z 10028382 f   effects.obj
 0001:000273ea       ?DoSparks@CBeam@@QAEXABVVector@@0@Z 100283ea f   effects.obj
 0001:00027448       _env_lightning             10028448 f   effects.obj
 0001:00027459       _env_beam                  10028459 f   effects.obj
 0001:0002746a       ?Save@CLightning@@UAEHAAVCSave@@@Z 1002846a f   effects.obj
 0001:000274a3       ?Restore@CLightning@@UAEHAAVCRestore@@@Z 100284a3 f   effects.obj
 0001:000274dc       ?Spawn@CLightning@@UAEXXZ  100284dc f   effects.obj
 0001:00027675       ?Precache@CLightning@@UAEXXZ 10028675 f   effects.obj
 0001:000276a9       ?Activate@CLightning@@UAEXXZ 100286a9 f   effects.obj
 0001:000276c8       ?KeyValue@CLightning@@UAEXPAUKeyValueData_s@@@Z 100286c8 f   effects.obj
 0001:00027983       ?ToggleUse@CLightning@@QAEXPAVCBaseEntity@@0W4USE_TYPE@@M@Z 10028983 f   effects.obj
 0001:00027a6b       ?StrikeUse@CLightning@@QAEXPAVCBaseEntity@@0W4USE_TYPE@@M@Z 10028a6b f   effects.obj
 0001:00027af6       ?IsPointEntity@@YAHPAVCBaseEntity@@@Z 10028af6 f   effects.obj
 0001:00027b62       ?StrikeThink@CLightning@@QAEXXZ 10028b62 f   effects.obj
 0001:0002800c       ?BeamDamage@CBeam@@QAEXPAUTraceResult@@@Z 1002900c f   effects.obj
 0001:00028142       ?DamageThink@CLightning@@QAEXXZ 10029142 f   effects.obj
 0001:000281a1       ?Zap@CLightning@@QAEXABVVector@@0@Z 100291a1 f   effects.obj
 0001:00028332       ?RandomArea@CLightning@@QAEXXZ 10029332 f   effects.obj
 0001:0002862a       ?RandomPoint@CLightning@@QAEXAAVVector@@@Z 1002962a f   effects.obj
 0001:00028788       ?BeamUpdateVars@CLightning@@QAEXXZ 10029788 f   effects.obj
 0001:000289e4       _env_laser                 100299e4 f   effects.obj
 0001:000289f5       ?Save@CLaser@@UAEHAAVCSave@@@Z 100299f5 f   effects.obj
 0001:00028a2e       ?Restore@CLaser@@UAEHAAVCRestore@@@Z 10029a2e f   effects.obj
 0001:00028a67       ?Spawn@CLaser@@UAEXXZ      10029a67 f   effects.obj
 0001:00028be2       ?Precache@CLaser@@UAEXXZ   10029be2 f   effects.obj
 0001:00028c40       ?KeyValue@CLaser@@UAEXPAUKeyValueData_s@@@Z 10029c40 f   effects.obj
 0001:00028e67       ?IsOn@CLaser@@QAEHXZ       10029e67 f   effects.obj
 0001:00028e91       ?TurnOff@CLaser@@QAEXXZ    10029e91 f   effects.obj
 0001:00028edb       ?TurnOn@CLaser@@QAEXXZ     10029edb f   effects.obj
 0001:00028f3c       ?Use@CLaser@@UAEXPAVCBaseEntity@@0W4USE_TYPE@@M@Z 10029f3c f   effects.obj
 0001:00028f84       ?FireAtPoint@CLaser@@QAEXAAUTraceResult@@@Z 10029f84 f   effects.obj
 0001:00028fe6       ?StrikeThink@CLaser@@QAEXXZ 10029fe6 f   effects.obj
 0001:0002908e       _env_glow                  1002a08e f   effects.obj
 0001:0002909f       ?Save@CGlow@@UAEHAAVCSave@@@Z 1002a09f f   effects.obj
 0001:000290d8       ?Restore@CGlow@@UAEHAAVCRestore@@@Z 1002a0d8 f   effects.obj
 0001:00029111       ?Spawn@CGlow@@UAEXXZ       1002a111 f   effects.obj
 0001:00029231       ?Think@CGlow@@UAEXXZ       1002a231 f   effects.obj
 0001:0002928f       ?Animate@CGlow@@QAEXM@Z    1002a28f f   effects.obj
 0001:000292e9       _env_sprite                1002a2e9 f   effects.obj
 0001:000292fa       ?Save@CSprite@@UAEHAAVCSave@@@Z 1002a2fa f   effects.obj
 0001:00029333       ?Restore@CSprite@@UAEHAAVCRestore@@@Z 1002a333 f   effects.obj
 0001:0002936c       ?Spawn@CSprite@@UAEXXZ     1002a36c f   effects.obj
 0001:0002949c       ?Precache@CSprite@@UAEXXZ  1002a49c f   effects.obj
 0001:0002951c       ?SpriteInit@CSprite@@QAEXPBDABVVector@@@Z 1002a51c f   effects.obj
 0001:00029569       ?SpriteCreate@CSprite@@SAPAV1@PBDABVVector@@H@Z 1002a569 f   effects.obj
 0001:000295d8       ?AnimateThink@CSprite@@QAEXXZ 1002a5d8 f   effects.obj
 0001:00029636       ?AnimateUntilDead@CSprite@@QAEXXZ 1002a636 f   effects.obj
 0001:00029685       ?Expand@CSprite@@QAEXMM@Z  1002a685 f   effects.obj
 0001:000296da       ?ExpandThink@CSprite@@QAEXXZ 1002a6da f   effects.obj
 0001:000297a7       ?Animate@CSprite@@QAEXM@Z  1002a7a7 f   effects.obj
 0001:0002984f       ?TurnOff@CSprite@@QAEXXZ   1002a84f f   effects.obj
 0001:0002987a       ?TurnOn@CSprite@@QAEXXZ    1002a87a f   effects.obj
 0001:00029910       ?Use@CSprite@@UAEXPAVCBaseEntity@@0W4USE_TYPE@@M@Z 1002a910 f   effects.obj
 0001:00029963       ?Save@CGibShooter@@UAEHAAVCSave@@@Z 1002a963 f   effects.obj
 0001:0002999c       ?Restore@CGibShooter@@UAEHAAVCRestore@@@Z 1002a99c f   effects.obj
 0001:000299d5       _gibshooter                1002a9d5 f   effects.obj
 0001:000299e6       ?Precache@CGibShooter@@UAEXXZ 1002a9e6 f   effects.obj
 0001:00029a24       ?KeyValue@CGibShooter@@UAEXPAUKeyValueData_s@@@Z 1002aa24 f   effects.obj
 0001:00029b30       ?Use@CGibShooter@@UAEXPAVCBaseEntity@@0W4USE_TYPE@@M@Z 1002ab30 f   effects.obj
 0001:00029b5a       ?Spawn@CGibShooter@@UAEXXZ 1002ab5a f   effects.obj
 0001:00029bf5       ?CreateGib@CGibShooter@@UAEPAVCGib@@XZ 1002abf5 f   effects.obj
 0001:00029c8e       ?ShootThink@CGibShooter@@QAEXXZ 1002ac8e f   effects.obj
 0001:00029fc6       _env_shooter               1002afc6 f   effects.obj
 0001:00029fd7       ?KeyValue@CEnvShooter@@EAEXPAUKeyValueData_s@@@Z 1002afd7 f   effects.obj
 0001:0002a0db       ?Precache@CEnvShooter@@EAEXXZ 1002b0db f   effects.obj
 0001:0002a11d       ?CreateGib@CEnvShooter@@EAEPAVCGib@@XZ 1002b11d f   effects.obj
 0001:0002a253       _test_effect               1002b253 f   effects.obj
 0001:0002a264       ?Spawn@CTestEffect@@UAEXXZ 1002b264 f   effects.obj
 0001:0002a27a       ?Precache@CTestEffect@@UAEXXZ 1002b27a f   effects.obj
 0001:0002a293       ?TestThink@CTestEffect@@QAEXXZ 1002b293 f   effects.obj
 0001:0002a553       ?Use@CTestEffect@@UAEXPAVCBaseEntity@@0W4USE_TYPE@@M@Z 1002b553 f   effects.obj
 0001:0002a59a       _env_blood                 1002b59a f   effects.obj
 0001:0002a5ab       ?Spawn@CBlood@@UAEXXZ      1002b5ab f   effects.obj
 0001:0002a605       ?KeyValue@CBlood@@UAEXPAUKeyValueData_s@@@Z 1002b605 f   effects.obj
 0001:0002a6c2       ?Direction@CBlood@@QAE?AVVector@@XZ 1002b6c2 f   effects.obj
 0001:0002a713       ?BloodPosition@CBlood@@QAE?AVVector@@PAVCBaseEntity@@@Z 1002b713 f   effects.obj
 0001:0002a80b       ?Use@CBlood@@UAEXPAVCBaseEntity@@0W4USE_TYPE@@M@Z 1002b80b f   effects.obj
 0001:0002a9ce       _env_shake                 1002b9ce f   effects.obj
 0001:0002a9df       ?Spawn@CShake@@UAEXXZ      1002b9df f   effects.obj
 0001:0002aa4d       ?KeyValue@CShake@@UAEXPAUKeyValueData_s@@@Z 1002ba4d f   effects.obj
 0001:0002ab76       ?Use@CShake@@UAEXPAVCBaseEntity@@0W4USE_TYPE@@M@Z 1002bb76 f   effects.obj
 0001:0002abc5       _env_fade                  1002bbc5 f   effects.obj
 0001:0002abd6       ?Spawn@CFade@@UAEXXZ       1002bbd6 f   effects.obj
 0001:0002ac21       ?KeyValue@CFade@@UAEXPAUKeyValueData_s@@@Z 1002bc21 f   effects.obj
 0001:0002acc0       ?Use@CFade@@UAEXPAVCBaseEntity@@0W4USE_TYPE@@M@Z 1002bcc0 f   effects.obj
 0001:0002adce       _env_message               1002bdce f   effects.obj
 0001:0002addf       ?Spawn@CMessage@@UAEXXZ    1002bddf f   effects.obj
 0001:0002aeb9       ?Precache@CMessage@@UAEXXZ 1002beb9 f   effects.obj
 0001:0002aef5       ?KeyValue@CMessage@@UAEXPAUKeyValueData_s@@@Z 1002bef5 f   effects.obj
 0001:0002afda       ?Use@CMessage@@UAEXPAVCBaseEntity@@0W4USE_TYPE@@M@Z 1002bfda f   effects.obj
 0001:0002b10c       ?Precache@CEnvFunnel@@UAEXXZ 1002c10c f   effects.obj
 0001:0002b12b       _env_funnel                1002c12b f   effects.obj
 0001:0002b13c       ?Use@CEnvFunnel@@UAEXPAVCBaseEntity@@0W4USE_TYPE@@M@Z 1002c13c f   effects.obj
 0001:0002b1fc       ?Spawn@CEnvFunnel@@UAEXXZ  1002c1fc f   effects.obj
 0001:0002b232       ?Precache@CEnvBeverage@@UAEXXZ 1002c232 f   effects.obj
 0001:0002b259       _env_beverage              1002c259 f   effects.obj
 0001:0002b26a       ?Use@CEnvBeverage@@UAEXPAVCBaseEntity@@0W4USE_TYPE@@M@Z 1002c26a f   effects.obj
 0001:0002b34d       ?Spawn@CEnvBeverage@@UAEXXZ 1002c34d f   effects.obj
 0001:0002b3bc       ?Precache@CItemSoda@@UAEXXZ 1002c3bc f   effects.obj
 0001:0002b3c7       _item_sodacan              1002c3c7 f   effects.obj
 0001:0002b3d8       ?Spawn@CItemSoda@@UAEXXZ   1002c3d8 f   effects.obj
 0001:0002b481       ?CanThink@CItemSoda@@QAEXXZ 1002c481 f   effects.obj
 0001:0002b517       ?CanTouch@CItemSoda@@QAEXPAVCBaseEntity@@@Z 1002c517 f   effects.obj
 0001:0002b5e0       ?GetType@CBeam@@QAEHXZ     1002c5e0 f i effects.obj
 0001:0002b600       ?GetStartEntity@CBeam@@QAEHXZ 1002c600 f i effects.obj
 0001:0002b620       ?GetEndEntity@CBeam@@QAEHXZ 1002c620 f i effects.obj
 0001:0002b640       ?SetTexture@CBeam@@QAEXH@Z 1002c640 f i effects.obj
 0001:0002b660       ?SetWidth@CBeam@@QAEXH@Z   1002c660 f i effects.obj
 0001:0002b680       ?SetNoise@CBeam@@QAEXH@Z   1002c680 f i effects.obj
 0001:0002b6a0       ?SetColor@CBeam@@QAEXHHH@Z 1002c6a0 f i effects.obj
 0001:0002b6e0       ?SetBrightness@CBeam@@QAEXH@Z 1002c6e0 f i effects.obj
 0001:0002b700       ?SetFrame@CBeam@@QAEXM@Z   1002c700 f i effects.obj
 0001:0002b720       ?SetScrollRate@CBeam@@QAEXH@Z 1002c720 f i effects.obj
 0001:0002b740       ?SetType@CBeam@@QAEXH@Z    1002c740 f i effects.obj
 0001:0002b780       ?SetStartPos@CBeam@@QAEXABVVector@@@Z 1002c780 f i effects.obj
 0001:0002b7b0       ?SetEndPos@CBeam@@QAEXABVVector@@@Z 1002c7b0 f i effects.obj
 0001:0002b7e0       ?SetStartAttachment@CBeam@@QAEXH@Z 1002c7e0 f i effects.obj
 0001:0002b820       ?SetEndAttachment@CBeam@@QAEXH@Z 1002c820 f i effects.obj
 0001:0002b860       ?ServerSide@CLightning@@QAEHXZ 1002c860 f i effects.obj
 0001:0002b8a0       ?BeamDamageInstant@CBeam@@QAEXPAUTraceResult@@M@Z 1002c8a0 f i effects.obj
 0001:0002b8f0       ?SetFlags@CBeam@@QAEXH@Z   1002c8f0 f i effects.obj
 0001:0002b930       ?SetColor@CBlood@@QAEXH@Z  1002c930 f i effects.obj
 0001:0002b950       ?SetBloodAmount@CBlood@@QAEXM@Z 1002c950 f i effects.obj
 0001:0002b970       ?Color@CBlood@@QAEHXZ      1002c970 f i effects.obj
 0001:0002b990       ?BloodAmount@CBlood@@QAEMXZ 1002c990 f i effects.obj
 0001:0002b9b0       ?SetAmplitude@CShake@@QAEXM@Z 1002c9b0 f i effects.obj
 0001:0002b9d0       ?SetFrequency@CShake@@QAEXM@Z 1002c9d0 f i effects.obj
 0001:0002b9f0       ?SetDuration@CShake@@QAEXM@Z 1002c9f0 f i effects.obj
 0001:0002ba10       ?SetRadius@CShake@@QAEXM@Z 1002ca10 f i effects.obj
 0001:0002ba30       ?Amplitude@CShake@@QAEMXZ  1002ca30 f i effects.obj
 0001:0002ba50       ?Frequency@CShake@@QAEMXZ  1002ca50 f i effects.obj
 0001:0002ba70       ?Duration@CShake@@QAEMXZ   1002ca70 f i effects.obj
 0001:0002ba90       ?Radius@CShake@@QAEMXZ     1002ca90 f i effects.obj
 0001:0002bab0       ?SetDuration@CFade@@QAEXM@Z 1002cab0 f i effects.obj
 0001:0002bad0       ?SetHoldTime@CFade@@QAEXM@Z 1002cad0 f i effects.obj
 0001:0002baf0       ?Duration@CFade@@QAEMXZ    1002caf0 f i effects.obj
 0001:0002bb10       ?HoldTime@CFade@@QAEMXZ    1002cb10 f i effects.obj
 0001:0002bb30       ?GetClassPtr@@YAPAVCPointEntity@@PAV1@@Z 1002cb30 f i effects.obj
 0001:0002bbc0       ?GetClassPtr@@YAPAVCBubbling@@PAV1@@Z 1002cbc0 f i effects.obj
 0001:0002bc50       ?GetClassPtr@@YAPAVCBeam@@PAV1@@Z 1002cc50 f i effects.obj
 0001:0002bce0       ?GetClassPtr@@YAPAVCLightning@@PAV1@@Z 1002cce0 f i effects.obj
 0001:0002bd70       ?GetClassPtr@@YAPAVCLaser@@PAV1@@Z 1002cd70 f i effects.obj
 0001:0002be00       ?GetClassPtr@@YAPAVCGlow@@PAV1@@Z 1002ce00 f i effects.obj
 0001:0002be90       ?GetClassPtr@@YAPAVCSprite@@PAV1@@Z 1002ce90 f i effects.obj
 0001:0002bf20       ?GetClassPtr@@YAPAVCGibShooter@@PAV1@@Z 1002cf20 f i effects.obj
 0001:0002bfb0       ?GetClassPtr@@YAPAVCEnvShooter@@PAV1@@Z 1002cfb0 f i effects.obj
 0001:0002c040       ?GetClassPtr@@YAPAVCTestEffect@@PAV1@@Z 1002d040 f i effects.obj
 0001:0002c0d0       ?GetClassPtr@@YAPAVCBlood@@PAV1@@Z 1002d0d0 f i effects.obj
 0001:0002c160       ?GetClassPtr@@YAPAVCShake@@PAV1@@Z 1002d160 f i effects.obj
 0001:0002c1f0       ?GetClassPtr@@YAPAVCFade@@PAV1@@Z 1002d1f0 f i effects.obj
 0001:0002c280       ?GetClassPtr@@YAPAVCMessage@@PAV1@@Z 1002d280 f i effects.obj
 0001:0002c310       ?GetClassPtr@@YAPAVCEnvFunnel@@PAV1@@Z 1002d310 f i effects.obj
 0001:0002c3a0       ?GetClassPtr@@YAPAVCEnvBeverage@@PAV1@@Z 1002d3a0 f i effects.obj
 0001:0002c430       ?GetClassPtr@@YAPAVCItemSoda@@PAV1@@Z 1002d430 f i effects.obj
 0001:0002c4c0       ??0CBubbling@@QAE@XZ       1002d4c0 f i effects.obj
 0001:0002c4e0       ?ObjectCaps@CBubbling@@UAEHXZ 1002d4e0 f i effects.obj
 0001:0002c500       ??0CBeam@@QAE@XZ           1002d500 f i effects.obj
 0001:0002c520       ?ObjectCaps@CBeam@@UAEHXZ  1002d520 f i effects.obj
 0001:0002c560       ?Center@CBeam@@UAE?AVVector@@XZ 1002d560 f i effects.obj
 0001:0002c5b0       ??0CLightning@@QAE@XZ      1002d5b0 f i effects.obj
 0001:0002c5d0       ??0CLaser@@QAE@XZ          1002d5d0 f i effects.obj
 0001:0002c600       ??0CGlow@@QAE@XZ           1002d600 f i effects.obj
 0001:0002c620       ??0CSprite@@QAE@XZ         1002d620 f i effects.obj
 0001:0002c640       ?ObjectCaps@CSprite@@UAEHXZ 1002d640 f i effects.obj
 0001:0002c680       ??0CGibShooter@@QAE@XZ     1002d680 f i effects.obj
 0001:0002c6a0       ??0CEnvShooter@@QAE@XZ     1002d6a0 f i effects.obj
 0001:0002c6c0       ??0CTestEffect@@QAE@XZ     1002d6c0 f i effects.obj
 0001:0002c6e0       ??0CBlood@@QAE@XZ          1002d6e0 f i effects.obj
 0001:0002c700       ??0CShake@@QAE@XZ          1002d700 f i effects.obj
 0001:0002c720       ??0CFade@@QAE@XZ           1002d720 f i effects.obj
 0001:0002c740       ??0CMessage@@QAE@XZ        1002d740 f i effects.obj
 0001:0002c760       ??0CEnvFunnel@@QAE@XZ      1002d760 f i effects.obj
 0001:0002c780       ??0CEnvBeverage@@QAE@XZ    1002d780 f i effects.obj
 0001:0002c7a0       ??0CItemSoda@@QAE@XZ       1002d7a0 f i effects.obj
 0001:0002c7c0       _weapon_egon               1002d7c0 f   egon.obj
 0001:0002c7d1       ?Spawn@CEgon@@UAEXXZ       1002d7d1 f   egon.obj
 0001:0002c824       ?Precache@CEgon@@UAEXXZ    1002d824 f   egon.obj
 0001:0002c8fd       ?Deploy@CEgon@@UAEHXZ      1002d8fd f   egon.obj
 0001:0002c93c       ?AddToPlayer@CEgon@@UAEHPAVCBasePlayer@@@Z 1002d93c f   egon.obj
 0001:0002c991       ?Holster@CEgon@@UAEXH@Z    1002d991 f   egon.obj
 0001:0002c9d6       ?GetItemInfo@CEgon@@UAEHPAUItemInfo@@@Z 1002d9d6 f   egon.obj
 0001:0002ca6f       ?GetPulseInterval@CEgon@@QAEMXZ 1002da6f f   egon.obj
 0001:0002ca80       ?GetDischargeInterval@CEgon@@QAEMXZ 1002da80 f   egon.obj
 0001:0002ca91       ?HasAmmo@CEgon@@QAEHXZ     1002da91 f   egon.obj
 0001:0002cab1       ?UseAmmo@CEgon@@QAEXH@Z    1002dab1 f   egon.obj
 0001:0002cb24       ?Attack@CEgon@@QAEXXZ      1002db24 f   egon.obj
 0001:0002cdd7       ?PrimaryAttack@CEgon@@UAEXXZ 1002ddd7 f   egon.obj
 0001:0002cdf7       ?Fire@CEgon@@QAEXABVVector@@0@Z 1002ddf7 f   egon.obj
 0001:0002d3e8       ?UpdateEffect@CEgon@@QAEXABVVector@@0M@Z 1002e3e8 f   egon.obj
 0001:0002d5e7       ?CreateEffect@CEgon@@QAEXXZ 1002e5e7 f   egon.obj
 0001:0002d8fd       ?DestroyEffect@CEgon@@QAEXXZ 1002e8fd f   egon.obj
 0001:0002d9af       ?WeaponIdle@CEgon@@UAEXXZ  1002e9af f   egon.obj
 0001:0002da95       ?EndAttack@CEgon@@QAEXXZ   1002ea95 f   egon.obj
 0001:0002db51       _ammo_egonclip             1002eb51 f   egon.obj
 0001:0002db70       ?GetClassPtr@@YAPAVCEgon@@PAV1@@Z 1002eb70 f i egon.obj
 0001:0002dc00       ?GetClassPtr@@YAPAVCEgonAmmo@@PAV1@@Z 1002ec00 f i egon.obj
 0001:0002dc90       ??0CEgon@@QAE@XZ           1002ec90 f i egon.obj
 0001:0002dcb0       ??0CEgonAmmo@@QAE@XZ       1002ecb0 f i egon.obj
 0001:0002dcd0       ?Spawn@CEgonAmmo@@EAEXXZ   1002ecd0 f i egon.obj
 0001:0002dd10       ?Precache@CEgonAmmo@@EAEXXZ 1002ed10 f i egon.obj
 0001:0002dd40       ?AddAmmo@CEgonAmmo@@EAEHPAVCBaseEntity@@@Z 1002ed40 f i egon.obj
 0001:0002dda0       ?Frames@CSprite@@QAEMXZ    1002eda0 f i egon.obj
 0001:0002ddc0       ?iItemSlot@CEgon@@UAEHXZ   1002edc0 f i egon.obj
 0001:0002ddd0       ?UseDecrement@CEgon@@UAEHXZ 1002edd0 f i egon.obj
 0001:0002dde0       _spark_shower              1002ede0 f   explode.obj
 0001:0002ddf1       ?Spawn@CShower@@EAEXXZ     1002edf1 f   explode.obj
 0001:0002dfaf       ?Think@CShower@@EAEXXZ     1002efaf f   explode.obj
 0001:0002e04b       ?Touch@CShower@@EAEXPAVCBaseEntity@@@Z 1002f04b f   explode.obj
 0001:0002e115       ?Save@CEnvExplosion@@UAEHAAVCSave@@@Z 1002f115 f   explode.obj
 0001:0002e14e       ?Restore@CEnvExplosion@@UAEHAAVCRestore@@@Z 1002f14e f   explode.obj
 0001:0002e187       _env_explosion             1002f187 f   explode.obj
 0001:0002e198       ?KeyValue@CEnvExplosion@@UAEXPAUKeyValueData_s@@@Z 1002f198 f   explode.obj
 0001:0002e1ed       ?Spawn@CEnvExplosion@@UAEXXZ 1002f1ed f   explode.obj
 0001:0002e26d       ?Use@CEnvExplosion@@UAEXPAVCBaseEntity@@0W4USE_TYPE@@M@Z 1002f26d f   explode.obj
 0001:0002e6b7       ?Smoke@CEnvExplosion@@QAEXXZ 1002f6b7 f   explode.obj
 0001:0002e790       ?ExplosionCreate@@YAXABVVector@@0PAUedict_s@@HH@Z 1002f790 f   explode.obj
 0001:0002e840       ?GetClassPtr@@YAPAVCShower@@PAV1@@Z 1002f840 f i explode.obj
 0001:0002e8d0       ?GetClassPtr@@YAPAVCEnvExplosion@@PAV1@@Z 1002f8d0 f i explode.obj
 0001:0002e960       ??0CShower@@QAE@XZ         1002f960 f i explode.obj
 0001:0002e980       ?ObjectCaps@CShower@@EAEHXZ 1002f980 f i explode.obj
 0001:0002e990       ??0CEnvExplosion@@QAE@XZ   1002f990 f i explode.obj
 0001:0002e9b0       ?CheckLocalMove@CFlyingMonster@@UAEHABVVector@@0PAVCBaseEntity@@PAM@Z 1002f9b0 f   flyingmonster.obj
 0001:0002ead6       ?FTriangulate@CFlyingMonster@@UAEHABVVector@@0MPAVCBaseEntity@@PAV2@@Z 1002fad6 f   flyingmonster.obj
 0001:0002eaff       ?GetStoppedActivity@CFlyingMonster@@UAE?AW4Activity@@XZ 1002faff f   flyingmonster.obj
 0001:0002eb25       ?Stop@CFlyingMonster@@UAEXXZ 1002fb25 f   flyingmonster.obj
 0001:0002eba6       ?ChangeYaw@CFlyingMonster@@UAEMH@Z 1002fba6 f   flyingmonster.obj
 0001:0002ec64       ?Killed@CFlyingMonster@@UAEXPAUentvars_s@@H@Z 1002fc64 f   flyingmonster.obj
 0001:0002ecc6       ?HandleAnimEvent@CFlyingMonster@@UAEXPAUMonsterEvent_t@@@Z 1002fcc6 f   flyingmonster.obj
 0001:0002ed3b       ?Move@CFlyingMonster@@UAEXM@Z 1002fd3b f   flyingmonster.obj
 0001:0002ed72       ?ShouldAdvanceRoute@CFlyingMonster@@UAEHM@Z 1002fd72 f   flyingmonster.obj
 0001:0002edfb       ?MoveExecute@CFlyingMonster@@UAEXPAVCBaseEntity@@ABVVector@@M@Z 1002fdfb f   flyingmonster.obj
 0001:0002f090       ?CeilingZ@CFlyingMonster@@QAEMABVVector@@@Z 10030090 f   flyingmonster.obj
 0001:0002f125       ?ProbeZ@CFlyingMonster@@QAEHABVVector@@0PAM@Z 10030125 f   flyingmonster.obj
 0001:0002f27c       ?FloorZ@CFlyingMonster@@QAEMABVVector@@@Z 1003027c f   flyingmonster.obj
 0001:0002f2e0       ?KeyValue@CBreakable@@UAEXPAUKeyValueData_s@@@Z 100302e0 f   func_break.obj
 0001:0002f517       _func_breakable            10030517 f   func_break.obj
 0001:0002f528       ?Save@CBreakable@@UAEHAAVCSave@@@Z 10030528 f   func_break.obj
 0001:0002f561       ?Restore@CBreakable@@UAEHAAVCRestore@@@Z 10030561 f   func_break.obj
 0001:0002f59a       ?Spawn@CBreakable@@UAEXXZ  1003059a f   func_break.obj
 0001:0002f6cc       ?MaterialSoundList@CBreakable@@SAPAPBDW4Materials@@AAH@Z 100306cc f   func_break.obj
 0001:0002f77d       ?MaterialSoundPrecache@CBreakable@@SAXW4Materials@@@Z 1003077d f   func_break.obj
 0001:0002f7d0       ?MaterialSoundRandom@CBreakable@@SAXPAUedict_s@@W4Materials@@M@Z 100307d0 f   func_break.obj
 0001:0002f82a       ?Precache@CBreakable@@UAEXXZ 1003082a f   func_break.obj
 0001:0002fa1a       ?DamageSound@CBreakable@@QAEXXZ 10030a1a f   func_break.obj
 0001:0002fbca       ?BreakTouch@CBreakable@@QAEXPAVCBaseEntity@@@Z 10030bca f   func_break.obj
 0001:0002fd19       ?Use@CBreakable@@UAEXPAVCBaseEntity@@0W4USE_TYPE@@M@Z 10030d19 f   func_break.obj
 0001:0002fd7c       ?TraceAttack@CBreakable@@UAEXPAUentvars_s@@MVVector@@PAUTraceResult@@H@Z 10030d7c f   func_break.obj
 0001:0002fea0       ?TakeDamage@CBreakable@@UAEHPAUentvars_s@@0MH@Z 10030ea0 f   func_break.obj
 0001:0003006c       ?Die@CBreakable@@QAEXXZ    1003106c f   func_break.obj
 0001:00030937       ?IsBreakable@CBreakable@@QAEHXZ 10031937 f   func_break.obj
 0001:00030950       ?DamageDecal@CBreakable@@UAEHH@Z 10031950 f   func_break.obj
 0001:00030994       ?Save@CPushable@@UAEHAAVCSave@@@Z 10031994 f   func_break.obj
 0001:000309cd       ?Restore@CPushable@@UAEHAAVCRestore@@@Z 100319cd f   func_break.obj
 0001:00030a06       _func_pushable             10031a06 f   func_break.obj
 0001:00030a17       ?Spawn@CPushable@@UAEXXZ   10031a17 f   func_break.obj
 0001:00030b9c       ?Precache@CPushable@@UAEXXZ 10031b9c f   func_break.obj
 0001:00030bf5       ?KeyValue@CPushable@@UAEXPAUKeyValueData_s@@@Z 10031bf5 f   func_break.obj
 0001:00030de6       ?Use@CPushable@@UAEXPAVCBaseEntity@@0W4USE_TYPE@@M@Z 10031de6 f   func_break.obj
 0001:00030e60       ?Touch@CPushable@@UAEXPAVCBaseEntity@@@Z 10031e60 f   func_break.obj
 0001:00030e95       ?Move@CPushable@@QAEXPAVCBaseEntity@@H@Z 10031e95 f   func_break.obj
 0001:00031143       ?TakeDamage@CPushable@@UAEHPAUentvars_s@@0MH@Z 10032143 f   func_break.obj
 0001:00031190       ?MaxSpeed@CPushable@@QAEMXZ 10032190 f i func_break.obj
 0001:000311b0       ?GetClassPtr@@YAPAVCBreakable@@PAV1@@Z 100321b0 f i func_break.obj
 0001:00031240       ?GetClassPtr@@YAPAVCPushable@@PAV1@@Z 10032240 f i func_break.obj
 0001:000312d0       ??0CBreakable@@QAE@XZ      100322d0 f i func_break.obj
 0001:000312f0       ??0CPushable@@QAE@XZ       100322f0 f i func_break.obj
 0001:00031310       ?ObjectCaps@CPushable@@UAEHXZ 10032310 f i func_break.obj
 0001:00031330       ?ObjectCaps@CBreakable@@UAEHXZ 10032330 f i func_break.obj
 0001:00031350       ?Explodable@CBreakable@@QAEHXZ 10032350 f i func_break.obj
 0001:00031370       ?ExplosionMagnitude@CBreakable@@QAEHXZ 10032370 f i func_break.obj
 0001:00031390       ?ExplosionSetMagnitude@CBreakable@@QAEXH@Z 10032390 f i func_break.obj
 0001:000313b0       ?Save@CFuncTank@@UAEHAAVCSave@@@Z 100323b0 f   func_tank.obj
 0001:000313e9       ?Restore@CFuncTank@@UAEHAAVCRestore@@@Z 100323e9 f   func_tank.obj
 0001:000314d7       ?Spawn@CFuncTank@@UAEXXZ   100324d7 f   func_tank.obj
 0001:0003160e       ?Precache@CFuncTank@@UAEXXZ 1003260e f   func_tank.obj
 0001:0003169f       ?KeyValue@CFuncTank@@UAEXPAUKeyValueData_s@@@Z 1003269f f   func_tank.obj
 0001:00031bd8       ?OnControls@CFuncTank@@UAEHPAUentvars_s@@@Z 10032bd8 f   func_tank.obj
 0001:00031c53       ?StartControl@CFuncTank@@QAEHPAVCBasePlayer@@@Z 10032c53 f   func_tank.obj
 0001:00031d71       ?StopControl@CFuncTank@@QAEXXZ 10032d71 f   func_tank.obj
 0001:00031e2c       ?ControllerPostFrame@CFuncTank@@QAEXXZ 10032e2c f   func_tank.obj
 0001:00031f2e       ?Use@CFuncTank@@UAEXPAVCBaseEntity@@0W4USE_TYPE@@M@Z 10032f2e f   func_tank.obj
 0001:00031fee       ?FindTarget@CFuncTank@@QAEPAUedict_s@@PAU2@@Z 10032fee f   func_tank.obj
 0001:00031ffe       ?InRange@CFuncTank@@QAEHM@Z 10032ffe f   func_tank.obj
 0001:00032054       ?Think@CFuncTank@@UAEXXZ   10033054 f   func_tank.obj
 0001:000320e3       ?TrackTarget@CFuncTank@@QAEXXZ 100330e3 f   func_tank.obj
 0001:00032863       ?AdjustAnglesForBarrel@CFuncTank@@QAEXAAVVector@@M@Z 10033863 f   func_tank.obj
 0001:00032993       ?Fire@CFuncTank@@UAEXABVVector@@0PAUentvars_s@@@Z 10033993 f   func_tank.obj
 0001:00032b39       ?TankTrace@CFuncTank@@QAEXABVVector@@00AAUTraceResult@@@Z 10033b39 f   func_tank.obj
 0001:00032c83       ?StartRotSound@CFuncTank@@QAEXXZ 10033c83 f   func_tank.obj
 0001:00032d05       ?StopRotSound@CFuncTank@@QAEXXZ 10033d05 f   func_tank.obj
 0001:00032d6d       _func_tank                 10033d6d f   func_tank.obj
 0001:00032d7e       ?Fire@CFuncTankGun@@UAEXABVVector@@0PAUentvars_s@@@Z 10033d7e f   func_tank.obj
 0001:00032f71       _func_tanklaser            10033f71 f   func_tank.obj
 0001:00032f82       ?Save@CFuncTankLaser@@UAEHAAVCSave@@@Z 10033f82 f   func_tank.obj
 0001:00032fbb       ?Restore@CFuncTankLaser@@UAEHAAVCRestore@@@Z 10033fbb f   func_tank.obj
 0001:00032ff4       ?Activate@CFuncTankLaser@@UAEXXZ 10033ff4 f   func_tank.obj
 0001:00033037       ?KeyValue@CFuncTankLaser@@UAEXPAUKeyValueData_s@@@Z 10034037 f   func_tank.obj
 0001:00033090       ?GetLaser@CFuncTankLaser@@QAEPAVCLaser@@XZ 10034090 f   func_tank.obj
 0001:0003314c       ?Think@CFuncTankLaser@@UAEXXZ 1003414c f   func_tank.obj
 0001:00033191       ?Fire@CFuncTankLaser@@UAEXABVVector@@0PAUentvars_s@@@Z 10034191 f   func_tank.obj
 0001:00033313       _func_tankrocket           10034313 f   func_tank.obj
 0001:00033324       ?Precache@CFuncTankRocket@@UAEXXZ 10034324 f   func_tank.obj
 0001:00033344       ?Fire@CFuncTankRocket@@UAEXABVVector@@0PAUentvars_s@@@Z 10034344 f   func_tank.obj
 0001:00033408       _func_tankmortar           10034408 f   func_tank.obj
 0001:00033419       ?KeyValue@CFuncTankMortar@@UAEXPAUKeyValueData_s@@@Z 10034419 f   func_tank.obj
 0001:00033471       ?Fire@CFuncTankMortar@@UAEXABVVector@@0PAUentvars_s@@@Z 10034471 f   func_tank.obj
 0001:00033565       _func_tankcontrols         10034565 f   func_tank.obj
 0001:00033576       ?Save@CFuncTankControls@@UAEHAAVCSave@@@Z 10034576 f   func_tank.obj
 0001:000335af       ?Restore@CFuncTankControls@@UAEHAAVCRestore@@@Z 100345af f   func_tank.obj
 0001:000335e8       ?ObjectCaps@CFuncTankControls@@UAEHXZ 100345e8 f   func_tank.obj
 0001:000335ff       ?Use@CFuncTankControls@@UAEXPAVCBaseEntity@@0W4USE_TYPE@@M@Z 100345ff f   func_tank.obj
 0001:00033639       ?Think@CFuncTankControls@@UAEXXZ 10034639 f   func_tank.obj
 0001:000336f9       ?Spawn@CFuncTankControls@@UAEXXZ 100346f9 f   func_tank.obj
 0001:000337e0       ?IsActive@CFuncTank@@QAEHXZ 100347e0 f i func_tank.obj
 0001:00033800       ?BarrelPosition@CFuncTank@@QAE?AVVector@@XZ 10034800 f i func_tank.obj
 0001:000338d0       ?TankActivate@CFuncTank@@QAEXXZ 100348d0 f i func_tank.obj
 0001:00033930       ?TankDeactivate@CFuncTank@@QAEXXZ 10034930 f i func_tank.obj
 0001:00033970       ?CanFire@CFuncTank@@QAEHXZ 10034970 f i func_tank.obj
 0001:000339b0       ?GetClassPtr@@YAPAVCFuncTankGun@@PAV1@@Z 100349b0 f i func_tank.obj
 0001:00033a40       ?GetClassPtr@@YAPAVCFuncTankLaser@@PAV1@@Z 10034a40 f i func_tank.obj
 0001:00033ad0       ?GetClassPtr@@YAPAVCFuncTankRocket@@PAV1@@Z 10034ad0 f i func_tank.obj
 0001:00033b60       ?GetClassPtr@@YAPAVCFuncTankMortar@@PAV1@@Z 10034b60 f i func_tank.obj
 0001:00033bf0       ?AnimateAndDie@CSprite@@QAEXM@Z 10034bf0 f i func_tank.obj
 0001:00033c50       ?GetClassPtr@@YAPAVCFuncTankControls@@PAV1@@Z 10034c50 f i func_tank.obj
 0001:00033ce0       ??0CFuncTankGun@@QAE@XZ    10034ce0 f i func_tank.obj
 0001:00033d00       ?UpdateTargetPosition@CFuncTank@@UAE?AVVector@@PAVCBaseEntity@@@Z 10034d00 f i func_tank.obj
 0001:00033d40       ?ObjectCaps@CFuncTank@@UAEHXZ 10034d40 f i func_tank.obj
 0001:00033d60       ??0CFuncTankLaser@@QAE@XZ  10034d60 f i func_tank.obj
 0001:00033d80       ??0CFuncTankRocket@@QAE@XZ 10034d80 f i func_tank.obj
 0001:00033da0       ??0CFuncTankMortar@@QAE@XZ 10034da0 f i func_tank.obj
 0001:00033dc0       ??0CFuncTankControls@@QAE@XZ 10034dc0 f i func_tank.obj
 0001:00033de0       ??0CFuncTank@@QAE@XZ       10034de0 f i func_tank.obj
 0001:00033e30       ?GameDLLInit@@YAXXZ        10034e30 f   game.obj
 0001:00034e60       ?CanHaveAmmo@CGameRules@@UAEHPAVCBasePlayer@@PBDH@Z 10035e60 f   gamerules.obj
 0001:00034ea4       ?GetPlayerSpawnSpot@CGameRules@@UAEPAUedict_s@@PAVCBasePlayer@@@Z 10035ea4 f   gamerules.obj
 0001:00034fa5       ?CanHavePlayerItem@CGameRules@@UAEHPAVCBasePlayer@@PAVCBasePlayerItem@@@Z 10035fa5 f   gamerules.obj
 0001:00035028       ?RefreshSkillData@CGameRules@@UAEXXZ 10036028 f   gamerules.obj
 0001:000356bf       ?InstallGameRules@@YAPAVCGameRules@@XZ 100366bf f   gamerules.obj
 0001:00035800       ?pszAmmo1@CBasePlayerItem@@QAEPBDXZ 10036800 f i gamerules.obj
 0001:00035820       ?iMaxAmmo1@CBasePlayerItem@@QAEHXZ 10036820 f i gamerules.obj
 0001:00035840       _streak_spiral             10036840 f   gargantua.obj
 0001:00035851       _garg_stomp                10036851 f   gargantua.obj
 0001:00035862       ?StompCreate@CStomp@@SAPAV1@ABVVector@@0M@Z 10036862 f   gargantua.obj
 0001:00035903       ?Spawn@CStomp@@UAEXXZ      10036903 f   gargantua.obj
 0001:000359c2       ?Think@CStomp@@UAEXXZ      100369c2 f   gargantua.obj
 0001:00035e24       ?StreakSplash@@YAXABVVector@@0HHHH@Z 10036e24 f   gargantua.obj
 0001:00035ee3       _monster_gargantua         10036ee3 f   gargantua.obj
 0001:00035ef4       ?Save@CGargantua@@UAEHAAVCSave@@@Z 10036ef4 f   gargantua.obj
 0001:00035f2d       ?Restore@CGargantua@@UAEHAAVCRestore@@@Z 10036f2d f   gargantua.obj
 0001:00035f66       ?ScheduleFromName@CGargantua@@UAEPAUSchedule_t@@PBD@Z 10036f66 f   gargantua.obj
 0001:00035fa2       ?EyeOn@CGargantua@@QAEXH@Z 10036fa2 f   gargantua.obj
 0001:00035fbb       ?EyeOff@CGargantua@@QAEXXZ 10036fbb f   gargantua.obj
 0001:00035fd3       ?EyeUpdate@CGargantua@@QAEXXZ 10036fd3 f   gargantua.obj
 0001:000360ba       ?StompAttack@CGargantua@@QAEXXZ 100370ba f   gargantua.obj
 0001:000362aa       ?FlameCreate@CGargantua@@QAEXXZ 100372aa f   gargantua.obj
 0001:000364f6       ?FlameControls@CGargantua@@QAEXMM@Z 100374f6 f   gargantua.obj
 0001:000365e1       ?FlameUpdate@CGargantua@@QAEXXZ 100375e1 f   gargantua.obj
 0001:000368f1       ?FlameDamage@CGargantua@@QAEXVVector@@0PAUentvars_s@@1MHH@Z 100378f1 f   gargantua.obj
 0001:00036bc9       ?FlameDestroy@CGargantua@@QAEXXZ 10037bc9 f   gargantua.obj
 0001:00036c4e       ?PrescheduleThink@CGargantua@@UAEXXZ 10037c4e f   gargantua.obj
 0001:00036c9c       ?Classify@CGargantua@@UAEHXZ 10037c9c f   gargantua.obj
 0001:00036cac       ?SetYawSpeed@CGargantua@@UAEXXZ 10037cac f   gargantua.obj
 0001:00036d37       ?Spawn@CGargantua@@UAEXXZ  10037d37 f   gargantua.obj
 0001:00036ea3       ?Precache@CGargantua@@UAEXXZ 10037ea3 f   gargantua.obj
 0001:00037116       ?TraceAttack@CGargantua@@UAEXPAUentvars_s@@MVVector@@PAUTraceResult@@H@Z 10038116 f   gargantua.obj
 0001:0003729d       ?TakeDamage@CGargantua@@UAEHPAUentvars_s@@0MH@Z 1003829d f   gargantua.obj
 0001:00037313       ?DeathEffect@CGargantua@@QAEXXZ 10038313 f   gargantua.obj
 0001:00037487       ?Killed@CGargantua@@UAEXPAUentvars_s@@H@Z 10038487 f   gargantua.obj
 0001:000374c9       ?CheckMeleeAttack1@CGargantua@@UAEHMM@Z 100384c9 f   gargantua.obj
 0001:000374ff       ?CheckMeleeAttack2@CGargantua@@UAEHMM@Z 100384ff f   gargantua.obj
 0001:0003755c       ?CheckRangeAttack1@CGargantua@@UAEHMM@Z 1003855c f   gargantua.obj
 0001:000375a9       ?HandleAnimEvent@CGargantua@@UAEXPAUMonsterEvent_t@@@Z 100385a9 f   gargantua.obj
 0001:00037841       ?GargantuaCheckTraceHullAttack@CGargantua@@AAEPAVCBaseEntity@@MHH@Z 10038841 f   gargantua.obj
 0001:0003796f       ?GetScheduleOfType@CGargantua@@UAEPAUSchedule_t@@H@Z 1003896f f   gargantua.obj
 0001:000379c0       ?StartTask@CGargantua@@UAEXPAUTask_t@@@Z 100389c0 f   gargantua.obj
 0001:00037aca       ?RunTask@CGargantua@@UAEXPAUTask_t@@@Z 10038aca f   gargantua.obj
 0001:00037f5f       _env_smoker                10038f5f f   gargantua.obj
 0001:00037f70       ?Spawn@CSmoker@@UAEXXZ     10038f70 f   gargantua.obj
 0001:00038004       ?Think@CSmoker@@UAEXXZ     10039004 f   gargantua.obj
 0001:0003819e       ?Spawn@CSpiral@@UAEXXZ     1003919e f   gargantua.obj
 0001:00038232       ?Create@CSpiral@@SAPAV1@ABVVector@@MMM@Z 10039232 f   gargantua.obj
 0001:000382ff       ?Think@CSpiral@@UAEXXZ     100392ff f   gargantua.obj
 0001:00038522       ?SpawnExplosion@@YAXVVector@@MMH@Z 10039522 f   gargantua.obj
 0001:00038610       ?FlameIsOn@CGargantua@@QAEHXZ 10039610 f i gargantua.obj
 0001:00038630       ?GetClassPtr@@YAPAVCSpiral@@PAV1@@Z 10039630 f i gargantua.obj
 0001:000386c0       ?GetClassPtr@@YAPAVCStomp@@PAV1@@Z 100396c0 f i gargantua.obj
 0001:00038750       ?GetClassPtr@@YAPAVCGargantua@@PAV1@@Z 10039750 f i gargantua.obj
 0001:000387e0       ?GetClassPtr@@YAPAVCSmoker@@PAV1@@Z 100397e0 f i gargantua.obj
 0001:00038870       ??0CSpiral@@QAE@XZ         10039870 f i gargantua.obj
 0001:00038890       ?ObjectCaps@CSpiral@@UAEHXZ 10039890 f i gargantua.obj
 0001:000388a0       ??0CStomp@@QAE@XZ          100398a0 f i gargantua.obj
 0001:000388c0       ??0CGargantua@@QAE@XZ      100398c0 f i gargantua.obj
 0001:000388e0       ?SetObjectCollisionBox@CGargantua@@UAEXXZ 100398e0 f i gargantua.obj
 0001:00038980       ??0CSmoker@@QAE@XZ         10039980 f i gargantua.obj
 0001:000389a0       _weapon_gauss              100399a0 f   gauss.obj
 0001:000389b1       ?GetFullChargeTime@CGauss@@QAEMXZ 100399b1 f   gauss.obj
 0001:000389de       ?Spawn@CGauss@@UAEXXZ      100399de f   gauss.obj
 0001:00038a31       ?Precache@CGauss@@UAEXXZ   10039a31 f   gauss.obj
 0001:00038b33       ?AddToPlayer@CGauss@@UAEHPAVCBasePlayer@@@Z 10039b33 f   gauss.obj
 0001:00038b88       ?GetItemInfo@CGauss@@UAEHPAUItemInfo@@@Z 10039b88 f   gauss.obj
 0001:00038c21       ?Deploy@CGauss@@UAEHXZ     10039c21 f   gauss.obj
 0001:00038c59       ?Holster@CGauss@@UAEXH@Z   10039c59 f   gauss.obj
 0001:00038ced       ?PrimaryAttack@CGauss@@UAEXXZ 10039ced f   gauss.obj
 0001:00038e17       ?SecondaryAttack@CGauss@@UAEXXZ 10039e17 f   gauss.obj
 0001:00039473       ?StartFire@CGauss@@QAEXXZ  1003a473 f   gauss.obj
 0001:00039659       ?Fire@CGauss@@QAEXVVector@@0M@Z 1003a659 f   gauss.obj
 0001:00039ceb       ?WeaponIdle@CGauss@@UAEXXZ 1003aceb f   gauss.obj
 0001:00039f4c       _ammo_gaussclip            1003af4c f   gauss.obj
 0001:00039f60       ?VARS@@YAPAUentvars_s@@H@Z 1003af60 f i gauss.obj
 0001:00039f80       ?GetClassPtr@@YAPAVCGauss@@PAV1@@Z 1003af80 f i gauss.obj
 0001:0003a010       ?GetClassPtr@@YAPAVCGaussAmmo@@PAV1@@Z 1003b010 f i gauss.obj
 0001:0003a0a0       ??0CGauss@@QAE@XZ          1003b0a0 f i gauss.obj
 0001:0003a0c0       ??0CGaussAmmo@@QAE@XZ      1003b0c0 f i gauss.obj
 0001:0003a0e0       ?Spawn@CGaussAmmo@@EAEXXZ  1003b0e0 f i gauss.obj
 0001:0003a120       ?Precache@CGaussAmmo@@EAEXXZ 1003b120 f i gauss.obj
 0001:0003a150       ?AddAmmo@CGaussAmmo@@EAEHPAVCBaseEntity@@@Z 1003b150 f i gauss.obj
 0001:0003a1b0       ?iItemSlot@CGauss@@UAEHXZ  1003b1b0 f i gauss.obj
 0001:0003a1c0       ?UseDecrement@CGauss@@UAEHXZ 1003b1c0 f i gauss.obj
 0001:0003a1d0       _monster_generic           1003b1d0 f   genericmonster.obj
 0001:0003a1e1       ?Classify@CGenericMonster@@UAEHXZ 1003b1e1 f   genericmonster.obj
 0001:0003a1f1       ?SetYawSpeed@CGenericMonster@@UAEXXZ 1003b1f1 f   genericmonster.obj
 0001:0003a220       ?HandleAnimEvent@CGenericMonster@@UAEXPAUMonsterEvent_t@@@Z 1003b220 f   genericmonster.obj
 0001:0003a243       ?ISoundMask@CGenericMonster@@UAEHXZ 1003b243 f   genericmonster.obj
 0001:0003a250       ?Spawn@CGenericMonster@@UAEXXZ 1003b250 f   genericmonster.obj
 0001:0003a402       ?Precache@CGenericMonster@@UAEXXZ 1003b402 f   genericmonster.obj
 0001:0003a430       ?GetClassPtr@@YAPAVCGenericMonster@@PAV1@@Z 1003b430 f i genericmonster.obj
 0001:0003a4c0       ??0CGenericMonster@@QAE@XZ 1003b4c0 f i genericmonster.obj
 0001:0003a4e0       _grenade                   1003b4e0 f   ggrenade.obj
 0001:0003a4f1       ?Explode@CGrenade@@QAEXVVector@@0@Z 1003b4f1 f   ggrenade.obj
 0001:0003a563       ?Explode@CGrenade@@QAEXPAUTraceResult@@H@Z 1003b563 f   ggrenade.obj
 0001:0003a969       ?Smoke@CGrenade@@QAEXXZ    1003b969 f   ggrenade.obj
 0001:0003aaea       ?Killed@CGrenade@@UAEXPAUentvars_s@@H@Z 1003baea f   ggrenade.obj
 0001:0003aaff       ?DetonateUse@CGrenade@@QAEXPAVCBaseEntity@@0W4USE_TYPE@@M@Z 1003baff f   ggrenade.obj
 0001:0003ab29       ?PreDetonate@CGrenade@@QAEXXZ 1003bb29 f   ggrenade.obj
 0001:0003ab75       ?Detonate@CGrenade@@QAEXXZ 1003bb75 f   ggrenade.obj
 0001:0003ac16       ?ExplodeTouch@CGrenade@@QAEXPAVCBaseEntity@@@Z 1003bc16 f   ggrenade.obj
 0001:0003ad0a       ?DangerSoundThink@CGrenade@@QAEXXZ 1003bd0a f   ggrenade.obj
 0001:0003ade3       ?BounceTouch@CGrenade@@QAEXPAVCBaseEntity@@@Z 1003bde3 f   ggrenade.obj
 0001:0003b09d       ?SlideTouch@CGrenade@@QAEXPAVCBaseEntity@@@Z 1003c09d f   ggrenade.obj
 0001:0003b13f       ?BounceSound@CGrenade@@UAEXXZ 1003c13f f   ggrenade.obj
 0001:0003b1ef       ?TumbleThink@CGrenade@@QAEXXZ 1003c1ef f   ggrenade.obj
 0001:0003b32d       ?Spawn@CGrenade@@UAEXXZ    1003c32d f   ggrenade.obj
 0001:0003b3db       ?ShootContact@CGrenade@@SAPAV1@PAUentvars_s@@VVector@@1@Z 1003c3db f   ggrenade.obj
 0001:0003b4d8       ?ShootTimed@CGrenade@@SAPAV1@PAUentvars_s@@VVector@@1M@Z 1003c4d8 f   ggrenade.obj
 0001:0003b678       ?ShootSatchelCharge@CGrenade@@SAPAV1@PAUentvars_s@@VVector@@1@Z 1003c678 f   ggrenade.obj
 0001:0003b7cc       ?UseSatchelCharges@CGrenade@@SAXPAUentvars_s@@W4SATCHELCODE@1@@Z 1003c7cc f   ggrenade.obj
 0001:0003b8b0       ?FIND_ENTITY_BY_CLASSNAME@@YAPAUedict_s@@PAU1@PBD@Z 1003c8b0 f i ggrenade.obj
 0001:0003b8d0       ?GetClassPtr@@YAPAVCGrenade@@PAV1@@Z 1003c8d0 f i ggrenade.obj
 0001:0003b9b0       _monster_gman              1003c9b0 f   gman.obj
 0001:0003b9c1       ?Save@CGMan@@UAEHAAVCSave@@@Z 1003c9c1 f   gman.obj
 0001:0003b9fa       ?Restore@CGMan@@UAEHAAVCRestore@@@Z 1003c9fa f   gman.obj
 0001:0003ba33       ?Classify@CGMan@@UAEHXZ    1003ca33 f   gman.obj
 0001:0003ba40       ?SetYawSpeed@CGMan@@UAEXXZ 1003ca40 f   gman.obj
 0001:0003ba6f       ?HandleAnimEvent@CGMan@@UAEXPAUMonsterEvent_t@@@Z 1003ca6f f   gman.obj
 0001:0003ba92       ?ISoundMask@CGMan@@UAEHXZ  1003ca92 f   gman.obj
 0001:0003ba9f       ?Spawn@CGMan@@UAEXXZ       1003ca9f f   gman.obj
 0001:0003bb76       ?Precache@CGMan@@UAEXXZ    1003cb76 f   gman.obj
 0001:0003bb8f       ?StartTask@CGMan@@UAEXPAUTask_t@@@Z 1003cb8f f   gman.obj
 0001:0003bbea       ?RunTask@CGMan@@UAEXPAUTask_t@@@Z 1003cbea f   gman.obj
 0001:0003bdbf       ?TakeDamage@CGMan@@UAEHPAUentvars_s@@0MH@Z 1003cdbf f   gman.obj
 0001:0003be29       ?TraceAttack@CGMan@@UAEXPAUentvars_s@@MVVector@@PAUTraceResult@@H@Z 1003ce29 f   gman.obj
 0001:0003be62       ?PlayScriptedSentence@CGMan@@UAEXPBDMMMHPAVCBaseEntity@@@Z 1003ce62 f   gman.obj
 0001:0003bec0       ?GetClassPtr@@YAPAVCGMan@@PAV1@@Z 1003cec0 f i gman.obj
 0001:0003bf50       ??0CGMan@@QAE@XZ           1003cf50 f i gman.obj
 0001:0003bf70       ?FBoxVisible@@YAHPAUentvars_s@@0AAVVector@@M@Z 1003cf70 f   h_ai.obj
 0001:0003c0ea       ?VecCheckToss@@YA?AVVector@@PAUentvars_s@@ABV1@V1@M@Z 1003d0ea f   h_ai.obj
 0001:0003c4c7       ?VecCheckThrow@@YA?AVVector@@PAUentvars_s@@ABV1@V1@MM@Z 1003d4c7 f   h_ai.obj
 0001:0003c660       ??KVector@@QBE?AV0@M@Z     1003d660 f i h_ai.obj
 0001:0003c6b0       ?Save@CRecharge@@UAEHAAVCSave@@@Z 1003d6b0 f   h_battery.obj
 0001:0003c6e9       ?Restore@CRecharge@@UAEHAAVCRestore@@@Z 1003d6e9 f   h_battery.obj
 0001:0003c722       _func_recharge             1003d722 f   h_battery.obj
 0001:0003c733       ?KeyValue@CRecharge@@UAEXPAUKeyValueData_s@@@Z 1003d733 f   h_battery.obj
 0001:0003c80c       ?Spawn@CRecharge@@UAEXXZ   1003d80c f   h_battery.obj
 0001:0003c8d9       ?Precache@CRecharge@@UAEXXZ 1003d8d9 f   h_battery.obj
 0001:0003c90e       ?Use@CRecharge@@UAEXPAVCBaseEntity@@0W4USE_TYPE@@M@Z 1003d90e f   h_battery.obj
 0001:0003cbe4       ?Recharge@CRecharge@@QAEXXZ 1003dbe4 f   h_battery.obj
 0001:0003cc1d       ?Off@CRecharge@@QAEXXZ     1003dc1d f   h_battery.obj
 0001:0003cce0       ?GetClassPtr@@YAPAVCRecharge@@PAV1@@Z 1003dce0 f i h_battery.obj
 0001:0003cd70       ??0CRecharge@@QAE@XZ       1003dd70 f i h_battery.obj
 0001:0003cd90       ?ObjectCaps@CRecharge@@UAEHXZ 1003dd90 f i h_battery.obj
 0001:0003cdb0       _monster_cine_scientist    1003ddb0 f   h_cine.obj
 0001:0003cdc1       _monster_cine_panther      1003ddc1 f   h_cine.obj
 0001:0003cdd2       _monster_cine_barney       1003ddd2 f   h_cine.obj
 0001:0003cde3       _monster_cine2_scientist   1003dde3 f   h_cine.obj
 0001:0003cdf4       _monster_cine2_hvyweapons  1003ddf4 f   h_cine.obj
 0001:0003ce05       _monster_cine2_slave       1003de05 f   h_cine.obj
 0001:0003ce16       _monster_cine3_scientist   1003de16 f   h_cine.obj
 0001:0003ce27       _monster_cine3_barney      1003de27 f   h_cine.obj
 0001:0003ce38       ?CineSpawn@CLegacyCineMonster@@QAEXPAD@Z 1003de38 f   h_cine.obj
 0001:0003cf7b       ?Use@CLegacyCineMonster@@UAEXPAVCBaseEntity@@0W4USE_TYPE@@M@Z 1003df7b f   h_cine.obj
 0001:0003cfb6       ?Die@CLegacyCineMonster@@QAEXXZ 1003dfb6 f   h_cine.obj
 0001:0003cfcb       ?Pain@CLegacyCineMonster@@QAEXXZ 1003dfcb f   h_cine.obj
 0001:0003cfff       ?CineThink@CLegacyCineMonster@@QAEXXZ 1003dfff f   h_cine.obj
 0001:0003d078       _cine_blood                1003e078 f   h_cine.obj
 0001:0003d089       ?BloodGush@CCineBlood@@QAEXXZ 1003e089 f   h_cine.obj
 0001:0003d340       ?BloodStart@CCineBlood@@QAEXPAVCBaseEntity@@0W4USE_TYPE@@M@Z 1003e340 f   h_cine.obj
 0001:0003d36a       ?Spawn@CCineBlood@@UAEXXZ  1003e36a f   h_cine.obj
 0001:0003d3a0       ?GetClassPtr@@YAPAVCCineScientist@@PAV1@@Z 1003e3a0 f i h_cine.obj
 0001:0003d430       ?GetClassPtr@@YAPAVCCinePanther@@PAV1@@Z 1003e430 f i h_cine.obj
 0001:0003d4c0       ?GetClassPtr@@YAPAVCCineBarney@@PAV1@@Z 1003e4c0 f i h_cine.obj
 0001:0003d550       ?GetClassPtr@@YAPAVCCine2Scientist@@PAV1@@Z 1003e550 f i h_cine.obj
 0001:0003d5e0       ?GetClassPtr@@YAPAVCCine2HeavyWeapons@@PAV1@@Z 1003e5e0 f i h_cine.obj
 0001:0003d670       ?GetClassPtr@@YAPAVCCine2Slave@@PAV1@@Z 1003e670 f i h_cine.obj
 0001:0003d700       ?GetClassPtr@@YAPAVCCine3Scientist@@PAV1@@Z 1003e700 f i h_cine.obj
 0001:0003d790       ?GetClassPtr@@YAPAVCCine3Barney@@PAV1@@Z 1003e790 f i h_cine.obj
 0001:0003d820       ?GetClassPtr@@YAPAVCCineBlood@@PAV1@@Z 1003e820 f i h_cine.obj
 0001:0003d8b0       ??0CCineScientist@@QAE@XZ  1003e8b0 f i h_cine.obj
 0001:0003d8d0       ?Spawn@CCineScientist@@UAEXXZ 1003e8d0 f i h_cine.obj
 0001:0003d8f0       ??0CCinePanther@@QAE@XZ    1003e8f0 f i h_cine.obj
 0001:0003d910       ?Spawn@CCinePanther@@UAEXXZ 1003e910 f i h_cine.obj
 0001:0003d930       ??0CCineBarney@@QAE@XZ     1003e930 f i h_cine.obj
 0001:0003d950       ?Spawn@CCineBarney@@UAEXXZ 1003e950 f i h_cine.obj
 0001:0003d970       ??0CCine2Scientist@@QAE@XZ 1003e970 f i h_cine.obj
 0001:0003d990       ?Spawn@CCine2Scientist@@UAEXXZ 1003e990 f i h_cine.obj
 0001:0003d9b0       ??0CCine2HeavyWeapons@@QAE@XZ 1003e9b0 f i h_cine.obj
 0001:0003d9d0       ?Spawn@CCine2HeavyWeapons@@UAEXXZ 1003e9d0 f i h_cine.obj
 0001:0003d9f0       ??0CCine2Slave@@QAE@XZ     1003e9f0 f i h_cine.obj
 0001:0003da10       ?Spawn@CCine2Slave@@UAEXXZ 1003ea10 f i h_cine.obj
 0001:0003da30       ??0CCine3Scientist@@QAE@XZ 1003ea30 f i h_cine.obj
 0001:0003da50       ?Spawn@CCine3Scientist@@UAEXXZ 1003ea50 f i h_cine.obj
 0001:0003da70       ??0CCine3Barney@@QAE@XZ    1003ea70 f i h_cine.obj
 0001:0003da90       ?Spawn@CCine3Barney@@UAEXXZ 1003ea90 f i h_cine.obj
 0001:0003dab0       ??0CCineBlood@@QAE@XZ      1003eab0 f i h_cine.obj
 0001:0003dad0       ??0CLegacyCineMonster@@QAE@XZ 1003ead0 f i h_cine.obj
 0001:0003daf0       ?Save@CCycler@@UAEHAAVCSave@@@Z 1003eaf0 f   h_cycler.obj
 0001:0003db29       ?Restore@CCycler@@UAEHAAVCRestore@@@Z 1003eb29 f   h_cycler.obj
 0001:0003db62       _cycler                    1003eb62 f   h_cycler.obj
 0001:0003db73       _cycler_prdroid            1003eb73 f   h_cycler.obj
 0001:0003db84       ?Spawn@CCyclerProbe@@UAEXXZ 1003eb84 f   h_cycler.obj
 0001:0003dc1f       ?GenericCyclerSpawn@CCycler@@QAEXPADVVector@@1@Z 1003ec1f f   h_cycler.obj
 0001:0003dcf6       ?Spawn@CCycler@@UAEXXZ     1003ecf6 f   h_cycler.obj
 0001:0003de21       ?Think@CCycler@@UAEXXZ     1003ee21 f   h_cycler.obj
 0001:0003dedc       ?Use@CCycler@@UAEXPAVCBaseEntity@@0W4USE_TYPE@@M@Z 1003eedc f   h_cycler.obj
 0001:0003df2f       ?TakeDamage@CCycler@@UAEHPAUentvars_s@@0MH@Z 1003ef2f f   h_cycler.obj
 0001:0003e008       _cycler_sprite             1003f008 f   h_cycler.obj
 0001:0003e019       ?Save@CCyclerSprite@@UAEHAAVCSave@@@Z 1003f019 f   h_cycler.obj
 0001:0003e052       ?Restore@CCyclerSprite@@UAEHAAVCRestore@@@Z 1003f052 f   h_cycler.obj
 0001:0003e08b       ?Spawn@CCyclerSprite@@UAEXXZ 1003f08b f   h_cycler.obj
 0001:0003e198       ?Think@CCyclerSprite@@UAEXXZ 1003f198 f   h_cycler.obj
 0001:0003e202       ?Use@CCyclerSprite@@UAEXPAVCBaseEntity@@0W4USE_TYPE@@M@Z 1003f202 f   h_cycler.obj
 0001:0003e24a       ?TakeDamage@CCyclerSprite@@UAEHPAUentvars_s@@0MH@Z 1003f24a f   h_cycler.obj
 0001:0003e27c       ?Animate@CCyclerSprite@@QAEXM@Z 1003f27c f   h_cycler.obj
 0001:0003e2ee       _cycler_weapon             1003f2ee f   h_cycler.obj
 0001:0003e2ff       ?Spawn@CWeaponCycler@@UAEXXZ 1003f2ff f   h_cycler.obj
 0001:0003e408       ?Deploy@CWeaponCycler@@UAEHXZ 1003f408 f   h_cycler.obj
 0001:0003e46d       ?Holster@CWeaponCycler@@UAEXH@Z 1003f46d f   h_cycler.obj
 0001:0003e496       ?PrimaryAttack@CWeaponCycler@@UAEXXZ 1003f496 f   h_cycler.obj
 0001:0003e4d6       ?SecondaryAttack@CWeaponCycler@@UAEXXZ 1003f4d6 f   h_cycler.obj
 0001:0003e5bd       ?Save@CWreckage@@EAEHAAVCSave@@@Z 1003f5bd f   h_cycler.obj
 0001:0003e5f6       ?Restore@CWreckage@@EAEHAAVCRestore@@@Z 1003f5f6 f   h_cycler.obj
 0001:0003e62f       _cycler_wreckage           1003f62f f   h_cycler.obj
 0001:0003e640       ?Spawn@CWreckage@@EAEXXZ   1003f640 f   h_cycler.obj
 0001:0003e732       ?Precache@CWreckage@@EAEXXZ 1003f732 f   h_cycler.obj
 0001:0003e76e       ?Think@CWreckage@@EAEXXZ   1003f76e f   h_cycler.obj
 0001:0003e940       ?ShouldAnimate@CCyclerSprite@@QAEHXZ 1003f940 f i h_cycler.obj
 0001:0003e980       ?GetClassPtr@@YAPAVCGenericCycler@@PAV1@@Z 1003f980 f i h_cycler.obj
 0001:0003ea10       ?GetClassPtr@@YAPAVCCyclerProbe@@PAV1@@Z 1003fa10 f i h_cycler.obj
 0001:0003eaa0       ?GetClassPtr@@YAPAVCCyclerSprite@@PAV1@@Z 1003faa0 f i h_cycler.obj
 0001:0003eb30       ?GetClassPtr@@YAPAVCWeaponCycler@@PAV1@@Z 1003fb30 f i h_cycler.obj
 0001:0003ebc0       ?GetClassPtr@@YAPAVCWreckage@@PAV1@@Z 1003fbc0 f i h_cycler.obj
 0001:0003ec50       ??0CGenericCycler@@QAE@XZ  1003fc50 f i h_cycler.obj
 0001:0003ec70       ?ObjectCaps@CCycler@@UAEHXZ 1003fc70 f i h_cycler.obj
 0001:0003ec90       ?IsAlive@CCycler@@UAEHXZ   1003fc90 f i h_cycler.obj
 0001:0003eca0       ?Spawn@CGenericCycler@@UAEXXZ 1003fca0 f i h_cycler.obj
 0001:0003ed10       ??0CCyclerProbe@@QAE@XZ    1003fd10 f i h_cycler.obj
 0001:0003ed30       ??0CCyclerSprite@@QAE@XZ   1003fd30 f i h_cycler.obj
 0001:0003ed50       ?ObjectCaps@CCyclerSprite@@UAEHXZ 1003fd50 f i h_cycler.obj
 0001:0003ed70       ??0CWeaponCycler@@QAE@XZ   1003fd70 f i h_cycler.obj
 0001:0003ed90       ?iItemSlot@CWeaponCycler@@UAEHXZ 1003fd90 f i h_cycler.obj
 0001:0003eda0       ?GetItemInfo@CWeaponCycler@@UAEHPAUItemInfo@@@Z 1003fda0 f i h_cycler.obj
 0001:0003edb0       ??0CWreckage@@QAE@XZ       1003fdb0 f i h_cycler.obj
 0001:0003edd0       ??0CCycler@@QAE@XZ         1003fdd0 f i h_cycler.obj
 0001:0003edf0       _DllMain@12                1003fdf0 f   h_export.obj
 0001:0003edfc       ?GiveFnptrsToDll@@YGXPAUenginefuncs_s@@PAUglobalvars_t@@@Z 1003fdfc f   h_export.obj
 0001:0003ee30       _weapon_handgrenade        1003fe30 f   handgrenade.obj
 0001:0003ee41       ?Spawn@CHandGrenade@@UAEXXZ 1003fe41 f   handgrenade.obj
 0001:0003eea6       ?Precache@CHandGrenade@@UAEXXZ 1003fea6 f   handgrenade.obj
 0001:0003eef5       ?GetItemInfo@CHandGrenade@@UAEHPAUItemInfo@@@Z 1003fef5 f   handgrenade.obj
 0001:0003ef8e       ?Deploy@CHandGrenade@@UAEHXZ 1003ff8e f   handgrenade.obj
 0001:0003efc0       ?CanHolster@CHandGrenade@@UAEHXZ 1003ffc0 f   handgrenade.obj
 0001:0003eff3       ?Holster@CHandGrenade@@UAEXH@Z 1003fff3 f   handgrenade.obj
 0001:0003f0be       ?PrimaryAttack@CHandGrenade@@UAEXXZ 100400be f   handgrenade.obj
 0001:0003f181       ?WeaponIdle@CHandGrenade@@UAEXXZ 10040181 f   handgrenade.obj
 0001:0003f6b0       ?GetClassPtr@@YAPAVCHandGrenade@@PAV1@@Z 100406b0 f i handgrenade.obj
 0001:0003f740       ??0CHandGrenade@@QAE@XZ    10040740 f i handgrenade.obj
 0001:0003f760       ?iItemSlot@CHandGrenade@@UAEHXZ 10040760 f i handgrenade.obj
 0001:0003f770       ?UseDecrement@CHandGrenade@@UAEHXZ 10040770 f i handgrenade.obj
 0001:0003f780       _monster_human_assassin    10040780 f   hassassin.obj
 0001:0003f791       ?Save@CHAssassin@@UAEHAAVCSave@@@Z 10040791 f   hassassin.obj
 0001:0003f7ca       ?Restore@CHAssassin@@UAEHAAVCRestore@@@Z 100407ca f   hassassin.obj
 0001:0003f803       ?DeathSound@CHAssassin@@UAEXXZ 10040803 f   hassassin.obj
 0001:0003f80e       ?IdleSound@CHAssassin@@UAEXXZ 1004080e f   hassassin.obj
 0001:0003f819       ?ISoundMask@CHAssassin@@UAEHXZ 10040819 f   hassassin.obj
 0001:0003f829       ?Classify@CHAssassin@@UAEHXZ 10040829 f   hassassin.obj
 0001:0003f839       ?SetYawSpeed@CHAssassin@@UAEXXZ 10040839 f   hassassin.obj
 0001:0003f87f       ?Shoot@CHAssassin@@QAEXXZ  1004087f f   hassassin.obj
 0001:0003fc2c       ?HandleAnimEvent@CHAssassin@@UAEXPAUMonsterEvent_t@@@Z 10040c2c f   hassassin.obj
 0001:0003fda4       ?Spawn@CHAssassin@@UAEXXZ  10040da4 f   hassassin.obj
 0001:0003ff04       ?Precache@CHAssassin@@UAEXXZ 10040f04 f   hassassin.obj
 0001:0003ff5e       ?ScheduleFromName@CHAssassin@@UAEPAUSchedule_t@@PBD@Z 10040f5e f   hassassin.obj
 0001:0003ff9a       ?CheckMeleeAttack1@CHAssassin@@UAEHMM@Z 10040f9a f   hassassin.obj
 0001:0004018a       ?CheckRangeAttack1@CHAssassin@@UAEHMM@Z 1004118a f   hassassin.obj
 0001:0004026c       ?CheckRangeAttack2@CHAssassin@@UAEHMM@Z 1004126c f   hassassin.obj
 0001:000403ac       ?RunAI@CHAssassin@@UAEXXZ  100413ac f   hassassin.obj
 0001:000406b4       ?StartTask@CHAssassin@@UAEXPAUTask_t@@@Z 100416b4 f   hassassin.obj
 0001:0004070b       ?RunTask@CHAssassin@@UAEXPAUTask_t@@@Z 1004170b f   hassassin.obj
 0001:0004084d       ?GetSchedule@CHAssassin@@UAEPAUSchedule_t@@XZ 1004184d f   hassassin.obj
 0001:00040b4e       ?GetScheduleOfType@CHAssassin@@UAEPAUSchedule_t@@H@Z 10041b4e f   hassassin.obj
 0001:00040cb0       ?GetClassPtr@@YAPAVCHAssassin@@PAV1@@Z 10041cb0 f i hassassin.obj
 0001:00040d40       ??0CHAssassin@@QAE@XZ      10041d40 f i hassassin.obj
 0001:00040d80       _monster_headcrab          10041d80 f   headcrab.obj
 0001:00040d91       ?ScheduleFromName@CHeadCrab@@UAEPAUSchedule_t@@PBD@Z 10041d91 f   headcrab.obj
 0001:00040dcd       ?Classify@CHeadCrab@@UAEHXZ 10041dcd f   headcrab.obj
 0001:00040ddd       ?Center@CHeadCrab@@UAE?AVVector@@XZ 10041ddd f   headcrab.obj
 0001:00040e27       ?BodyTarget@CHeadCrab@@UAE?AVVector@@ABV2@@Z 10041e27 f   headcrab.obj
 0001:00040e54       ?SetYawSpeed@CHeadCrab@@UAEXXZ 10041e54 f   headcrab.obj
 0001:00040ef8       ?HandleAnimEvent@CHeadCrab@@UAEXPAUMonsterEvent_t@@@Z 10041ef8 f   headcrab.obj
 0001:00041238       ?Spawn@CHeadCrab@@UAEXXZ   10042238 f   headcrab.obj
 0001:0004135e       ?Precache@CHeadCrab@@UAEXXZ 1004235e f   headcrab.obj
 0001:0004148d       ?RunTask@CHeadCrab@@UAEXPAUTask_t@@@Z 1004248d f   headcrab.obj
 0001:000414e8       ?LeapTouch@CHeadCrab@@QAEXPAVCBaseEntity@@@Z 100424e8 f   headcrab.obj
 0001:000415d3       ?PrescheduleThink@CHeadCrab@@UAEXXZ 100425d3 f   headcrab.obj
 0001:00041615       ?StartTask@CHeadCrab@@UAEXPAUTask_t@@@Z 10042615 f   headcrab.obj
 0001:000416a7       ?CheckRangeAttack1@CHeadCrab@@UAEHMM@Z 100426a7 f   headcrab.obj
 0001:000416f3       ?CheckRangeAttack2@CHeadCrab@@UAEHMM@Z 100426f3 f   headcrab.obj
 0001:00041702       ?TakeDamage@CHeadCrab@@UAEHPAUentvars_s@@0MH@Z 10042702 f   headcrab.obj
 0001:0004173a       ?IdleSound@CHeadCrab@@UAEXXZ 1004273a f   headcrab.obj
 0001:00041795       ?AlertSound@CHeadCrab@@UAEXXZ 10042795 f   headcrab.obj
 0001:000417f0       ?PainSound@CHeadCrab@@UAEXXZ 100427f0 f   headcrab.obj
 0001:0004184b       ?DeathSound@CHeadCrab@@UAEXXZ 1004284b f   headcrab.obj
 0001:000418a6       ?GetScheduleOfType@CHeadCrab@@UAEPAUSchedule_t@@H@Z 100428a6 f   headcrab.obj
 0001:000418d6       _monster_babycrab          100428d6 f   headcrab.obj
 0001:000418e7       ?Spawn@CBabyCrab@@UAEXXZ   100428e7 f   headcrab.obj
 0001:00041991       ?Precache@CBabyCrab@@UAEXXZ 10042991 f   headcrab.obj
 0001:000419b2       ?SetYawSpeed@CBabyCrab@@UAEXXZ 100429b2 f   headcrab.obj
 0001:000419cd       ?CheckRangeAttack1@CBabyCrab@@UAEHMM@Z 100429cd f   headcrab.obj
 0001:00041a48       ?GetScheduleOfType@CBabyCrab@@UAEPAUSchedule_t@@H@Z 10042a48 f   headcrab.obj
 0001:00041aa0       ?GetClassPtr@@YAPAVCHeadCrab@@PAV1@@Z 10042aa0 f i headcrab.obj
 0001:00041b30       ?GetClassPtr@@YAPAVCBabyCrab@@PAV1@@Z 10042b30 f i headcrab.obj
 0001:00041bc0       ??0CHeadCrab@@QAE@XZ       10042bc0 f i headcrab.obj
 0001:00041be0       ?GetDamageAmount@CHeadCrab@@UAEMXZ 10042be0 f i headcrab.obj
 0001:00041c00       ?GetVoicePitch@CHeadCrab@@UAEHXZ 10042c00 f i headcrab.obj
 0001:00041c10       ?GetSoundVolue@CHeadCrab@@UAEMXZ 10042c10 f i headcrab.obj
 0001:00041c30       ??0CBabyCrab@@QAE@XZ       10042c30 f i headcrab.obj
 0001:00041c50       ?GetDamageAmount@CBabyCrab@@UAEMXZ 10042c50 f i headcrab.obj
 0001:00041c70       ?GetVoicePitch@CBabyCrab@@UAEHXZ 10042c70 f i headcrab.obj
 0001:00041c90       ?GetSoundVolue@CBabyCrab@@UAEMXZ 10042c90 f i headcrab.obj
 0001:00041cb0       _item_healthkit            10042cb0 f   healthkit.obj
 0001:00041cc1       ?Spawn@CHealthKit@@EAEXXZ  10042cc1 f   healthkit.obj
 0001:00041cfd       ?Precache@CHealthKit@@EAEXXZ 10042cfd f   healthkit.obj
 0001:00041d24       ?MyTouch@CHealthKit@@EAEHPAVCBasePlayer@@@Z 10042d24 f   healthkit.obj
 0001:00041e0b       ?Save@CWallHealth@@UAEHAAVCSave@@@Z 10042e0b f   healthkit.obj
 0001:00041e44       ?Restore@CWallHealth@@UAEHAAVCRestore@@@Z 10042e44 f   healthkit.obj
 0001:00041e7d       _func_healthcharger        10042e7d f   healthkit.obj
 0001:00041e8e       ?KeyValue@CWallHealth@@UAEXPAUKeyValueData_s@@@Z 10042e8e f   healthkit.obj
 0001:00041f67       ?Spawn@CWallHealth@@UAEXXZ 10042f67 f   healthkit.obj
 0001:00042034       ?Precache@CWallHealth@@UAEXXZ 10043034 f   healthkit.obj
 0001:00042069       ?Use@CWallHealth@@UAEXPAVCBaseEntity@@0W4USE_TYPE@@M@Z 10043069 f   healthkit.obj
 0001:00042286       ?Recharge@CWallHealth@@QAEXXZ 10043286 f   healthkit.obj
 0001:000422e8       ?Off@CWallHealth@@QAEXXZ   100432e8 f   healthkit.obj
 0001:000423a0       ?GetClassPtr@@YAPAVCHealthKit@@PAV1@@Z 100433a0 f i healthkit.obj
 0001:00042430       ?GetClassPtr@@YAPAVCWallHealth@@PAV1@@Z 10043430 f i healthkit.obj
 0001:000424c0       ??0CHealthKit@@QAE@XZ      100434c0 f i healthkit.obj
 0001:000424e0       ??0CWallHealth@@QAE@XZ     100434e0 f i healthkit.obj
 0001:00042500       ?ObjectCaps@CWallHealth@@UAEHXZ 10043500 f i healthkit.obj
 0001:00042520       ??0CItem@@QAE@XZ           10043520 f i healthkit.obj
 0001:00042540       ?MyTouch@CItem@@UAEHPAVCBasePlayer@@@Z 10043540 f i healthkit.obj
 0001:00042550       _monster_human_grunt       10043550 f   hgrunt.obj
 0001:00042561       ?Save@CHGrunt@@UAEHAAVCSave@@@Z 10043561 f   hgrunt.obj
 0001:0004259a       ?Restore@CHGrunt@@UAEHAAVCRestore@@@Z 1004359a f   hgrunt.obj
 0001:000425d3       ?SpeakSentence@CHGrunt@@QAEXXZ 100435d3 f   hgrunt.obj
 0001:0004263f       ?IRelationship@CHGrunt@@UAEHPAVCBaseEntity@@@Z 1004363f f   hgrunt.obj
 0001:0004268f       ?GibMonster@CHGrunt@@UAEXXZ 1004368f f   hgrunt.obj
 0001:0004289d       ?ISoundMask@CHGrunt@@UAEHXZ 1004389d f   hgrunt.obj
 0001:000428ad       ?FOkToSpeak@CHGrunt@@QAEHXZ 100438ad f   hgrunt.obj
 0001:000428f8       ?JustSpoke@CHGrunt@@QAEXXZ 100438f8 f   hgrunt.obj
 0001:00042930       ?PrescheduleThink@CHGrunt@@UAEXXZ 10043930 f   hgrunt.obj
 0001:000429b4       ?FCanCheckAttacks@CHGrunt@@UAEHXZ 100439b4 f   hgrunt.obj
 0001:000429d9       ?CheckMeleeAttack1@CHGrunt@@UAEHMM@Z 100439d9 f   hgrunt.obj
 0001:00042a6c       ?CheckRangeAttack1@CHGrunt@@UAEHMM@Z 10043a6c f   hgrunt.obj
 0001:00042b87       ?CheckRangeAttack2@CHGrunt@@UAEHMM@Z 10043b87 f   hgrunt.obj
 0001:000430eb       ?TraceAttack@CHGrunt@@UAEXPAUentvars_s@@MVVector@@PAUTraceResult@@H@Z 100440eb f   hgrunt.obj
 0001:00043185       ?TakeDamage@CHGrunt@@UAEHPAUentvars_s@@0MH@Z 10044185 f   hgrunt.obj
 0001:000431b4       ?SetYawSpeed@CHGrunt@@UAEXXZ 100441b4 f   hgrunt.obj
 0001:000432b0       ?IdleSound@CHGrunt@@UAEXXZ 100442b0 f   hgrunt.obj
 0001:00043469       ?CheckAmmo@CHGrunt@@UAEXXZ 10044469 f   hgrunt.obj
 0001:0004348a       ?Classify@CHGrunt@@UAEHXZ  1004448a f   hgrunt.obj
 0001:0004349a       ?Kick@CHGrunt@@QAEPAVCBaseEntity@@XZ 1004449a f   hgrunt.obj
 0001:0004355e       ?GetGunPosition@CHGrunt@@UAE?AVVector@@XZ 1004455e f   hgrunt.obj
 0001:000435db       ?Shoot@CHGrunt@@QAEXXZ     100445db f   hgrunt.obj
 0001:00043808       ?Shotgun@CHGrunt@@QAEXXZ   10044808 f   hgrunt.obj
 0001:00043a3f       ?HandleAnimEvent@CHGrunt@@UAEXPAUMonsterEvent_t@@@Z 10044a3f f   hgrunt.obj
 0001:00044058       ?Spawn@CHGrunt@@UAEXXZ     10045058 f   hgrunt.obj
 0001:000442c1       ?Precache@CHGrunt@@UAEXXZ  100452c1 f   hgrunt.obj
 0001:00044405       ?StartTask@CHGrunt@@UAEXPAUTask_t@@@Z 10045405 f   hgrunt.obj
 0001:0004454a       ?RunTask@CHGrunt@@UAEXPAUTask_t@@@Z 1004554a f   hgrunt.obj
 0001:000445ef       ?PainSound@CHGrunt@@UAEXXZ 100455ef f   hgrunt.obj
 0001:0004473e       ?DeathSound@CHGrunt@@UAEXXZ 1004573e f   hgrunt.obj
 0001:000447ee       ?ScheduleFromName@CHGrunt@@UAEPAUSchedule_t@@PBD@Z 100457ee f   hgrunt.obj
 0001:0004482a       ?SetActivity@CHGrunt@@UAEXW4Activity@@@Z 1004582a f   hgrunt.obj
 0001:00044aac       ?GetSchedule@CHGrunt@@UAEPAUSchedule_t@@XZ 10045aac f   hgrunt.obj
 0001:00045132       ?GetScheduleOfType@CHGrunt@@UAEPAUSchedule_t@@H@Z 10046132 f   hgrunt.obj
 0001:000454ad       _monster_grunt_repel       100464ad f   hgrunt.obj
 0001:000454be       ?Spawn@CHGruntRepel@@UAEXXZ 100464be f   hgrunt.obj
 0001:000454ee       ?Precache@CHGruntRepel@@UAEXXZ 100464ee f   hgrunt.obj
 0001:0004551d       ?RepelUse@CHGruntRepel@@QAEXPAVCBaseEntity@@0W4USE_TYPE@@M@Z 1004651d f   hgrunt.obj
 0001:000456f7       ?KeyValue@CDeadHGrunt@@UAEXPAUKeyValueData_s@@@Z 100466f7 f   hgrunt.obj
 0001:0004574c       _monster_hgrunt_dead       1004674c f   hgrunt.obj
 0001:0004575d       ?Spawn@CDeadHGrunt@@UAEXXZ 1004675d f   hgrunt.obj
 0001:00045960       ?ClearConditions@CBaseMonster@@QAEXH@Z 10046960 f i hgrunt.obj
 0001:00045990       ?MySquadLeader@CSquadMonster@@QAEPAV1@XZ 10046990 f i hgrunt.obj
 0001:000459c0       ?InSquad@CSquadMonster@@QAEHXZ 100469c0 f i hgrunt.obj
 0001:000459e0       ?IsLeader@CSquadMonster@@QAEHXZ 100469e0 f i hgrunt.obj
 0001:00045a10       ?GetClassPtr@@YAPAVCHGrunt@@PAV1@@Z 10046a10 f i hgrunt.obj
 0001:00045aa0       ?GetClassPtr@@YAPAVCHGruntRepel@@PAV1@@Z 10046aa0 f i hgrunt.obj
 0001:00045b30       ?GetClassPtr@@YAPAVCDeadHGrunt@@PAV1@@Z 10046b30 f i hgrunt.obj
 0001:00045bc0       ??0CHGrunt@@QAE@XZ         10046bc0 f i hgrunt.obj
 0001:00045bf0       ??0CHGruntRepel@@QAE@XZ    10046bf0 f i hgrunt.obj
 0001:00045c10       ??0CDeadHGrunt@@QAE@XZ     10046c10 f i hgrunt.obj
 0001:00045c30       ?Classify@CDeadHGrunt@@UAEHXZ 10046c30 f i hgrunt.obj
 0001:00045c40       _weapon_glock              10046c40 f   hl_wpn_glock.obj
 0001:00045c51       _weapon_9mmhandgun         10046c51 f   hl_wpn_glock.obj
 0001:00045c62       ?Spawn@CGlock@@UAEXXZ      10046c62 f   hl_wpn_glock.obj
 0001:00045ccd       ?Precache@CGlock@@UAEXXZ   10046ccd f   hl_wpn_glock.obj
 0001:00045d93       ?GetItemInfo@CGlock@@UAEHPAUItemInfo@@@Z 10046d93 f   hl_wpn_glock.obj
 0001:00045e2c       ?Deploy@CGlock@@UAEHXZ     10046e2c f   hl_wpn_glock.obj
 0001:00045e54       ?SecondaryAttack@CGlock@@UAEXXZ 10046e54 f   hl_wpn_glock.obj
 0001:00045e73       ?PrimaryAttack@CGlock@@UAEXXZ 10046e73 f   hl_wpn_glock.obj
 0001:00045e92       ?GlockFire@CGlock@@QAEXMMH@Z 10046e92 f   hl_wpn_glock.obj
 0001:0004616c       ?Reload@CGlock@@UAEXXZ     1004716c f   hl_wpn_glock.obj
 0001:000461fa       ?WeaponIdle@CGlock@@UAEXXZ 100471fa f   hl_wpn_glock.obj
 0001:000462fd       _ammo_glockclip            100472fd f   hl_wpn_glock.obj
 0001:0004630e       _ammo_9mmclip              1004730e f   hl_wpn_glock.obj
 0001:00046320       ?GetClassPtr@@YAPAVCGlock@@PAV1@@Z 10047320 f i hl_wpn_glock.obj
 0001:000463b0       ?GetClassPtr@@YAPAVCGlockAmmo@@PAV1@@Z 100473b0 f i hl_wpn_glock.obj
 0001:00046440       ??0CGlock@@QAE@XZ          10047440 f i hl_wpn_glock.obj
 0001:00046460       ??0CGlockAmmo@@QAE@XZ      10047460 f i hl_wpn_glock.obj
 0001:00046480       ?Spawn@CGlockAmmo@@EAEXXZ  10047480 f i hl_wpn_glock.obj
 0001:000464c0       ?Precache@CGlockAmmo@@EAEXXZ 100474c0 f i hl_wpn_glock.obj
 0001:000464f0       ?AddAmmo@CGlockAmmo@@EAEHPAVCBaseEntity@@@Z 100474f0 f i hl_wpn_glock.obj
 0001:00046550       ?iItemSlot@CGlock@@UAEHXZ  10047550 f i hl_wpn_glock.obj
 0001:00046560       ?UseDecrement@CGlock@@UAEHXZ 10047560 f i hl_wpn_glock.obj
 0001:00046570       _hornet                    10047570 f   hornet.obj
 0001:00046581       ?Save@CHornet@@UAEHAAVCSave@@@Z 10047581 f   hornet.obj
 0001:000465ba       ?Restore@CHornet@@UAEHAAVCRestore@@@Z 100475ba f   hornet.obj
 0001:000465f3       ?TakeDamage@CHornet@@UAEHPAUentvars_s@@0MH@Z 100475f3 f   hornet.obj
 0001:0004662a       ?Spawn@CHornet@@UAEXXZ     1004762a f   hornet.obj
 0001:00046842       ?Precache@CHornet@@UAEXXZ  10047842 f   hornet.obj
 0001:000468ff       ?IRelationship@CHornet@@UAEHPAVCBaseEntity@@@Z 100478ff f   hornet.obj
 0001:00046936       ?Classify@CHornet@@UAEHXZ  10047936 f   hornet.obj
 0001:00046975       ?StartTrack@CHornet@@QAEXXZ 10047975 f   hornet.obj
 0001:000469bb       ?StartDart@CHornet@@QAEXXZ 100479bb f   hornet.obj
 0001:000469fc       ?IgniteTrail@CHornet@@QAEXXZ 100479fc f   hornet.obj
 0001:00046ad6       ?TrackTarget@CHornet@@QAEXXZ 10047ad6 f   hornet.obj
 0001:000472dd       ?TrackTouch@CHornet@@QAEXPAVCBaseEntity@@@Z 100482dd f   hornet.obj
 0001:0004742c       ?DartTouch@CHornet@@QAEXPAVCBaseEntity@@@Z 1004842c f   hornet.obj
 0001:00047445       ?DieTouch@CHornet@@QAEXPAVCBaseEntity@@@Z 10048445 f   hornet.obj
 0001:000475a0       ?GetClassPtr@@YAPAVCHornet@@PAV1@@Z 100485a0 f i hornet.obj
 0001:00047630       ??0CHornet@@QAE@XZ         10048630 f i hornet.obj
 0001:00047650       _weapon_hornetgun          10048650 f   hornetgun.obj
 0001:00047661       ?IsUseable@CHgun@@UAEHXZ   10048661 f   hornetgun.obj
 0001:00047671       ?Spawn@CHgun@@UAEXXZ       10048671 f   hornetgun.obj
 0001:000476d1       ?Precache@CHgun@@UAEXXZ    100486d1 f   hornetgun.obj
 0001:0004772d       ?AddToPlayer@CHgun@@UAEHPAVCBasePlayer@@@Z 1004872d f   hornetgun.obj
 0001:000477b4       ?GetItemInfo@CHgun@@UAEHPAUItemInfo@@@Z 100487b4 f   hornetgun.obj
 0001:0004784d       ?Deploy@CHgun@@UAEHXZ      1004884d f   hornetgun.obj
 0001:00047875       ?Holster@CHgun@@UAEXH@Z    10048875 f   hornetgun.obj
 0001:000478f1       ?PrimaryAttack@CHgun@@UAEXXZ 100488f1 f   hornetgun.obj
 0001:00047b44       ?SecondaryAttack@CHgun@@UAEXXZ 10048b44 f   hornetgun.obj
 0001:00048192       ?Reload@CHgun@@UAEXXZ      10049192 f   hornetgun.obj
 0001:00048231       ?WeaponIdle@CHgun@@UAEXXZ  10049231 f   hornetgun.obj
 0001:00048310       ?GetClassPtr@@YAPAVCHgun@@PAV1@@Z 10049310 f i hornetgun.obj
 0001:000483a0       ??0CHgun@@QAE@XZ           100493a0 f i hornetgun.obj
 0001:000483c0       ?iItemSlot@CHgun@@UAEHXZ   100493c0 f i hornetgun.obj
 0001:000483d0       ?UseDecrement@CHgun@@UAEHXZ 100493d0 f i hornetgun.obj
 0001:000483e0       _monster_houndeye          100493e0 f   houndeye.obj
 0001:000483f1       ?Save@CHoundeye@@UAEHAAVCSave@@@Z 100493f1 f   houndeye.obj
 0001:0004842a       ?Restore@CHoundeye@@UAEHAAVCRestore@@@Z 1004942a f   houndeye.obj
 0001:00048463       ?Classify@CHoundeye@@UAEHXZ 10049463 f   houndeye.obj
 0001:00048473       ?FValidateHintType@CHoundeye@@UAEHF@Z 10049473 f   houndeye.obj
 0001:000484c8       ?FCanActiveIdle@CHoundeye@@UAEHXZ 100494c8 f   houndeye.obj
 0001:0004853f       ?CheckRangeAttack1@CHoundeye@@UAEHMM@Z 1004953f f   houndeye.obj
 0001:00048575       ?SetYawSpeed@CHoundeye@@UAEXXZ 10049575 f   houndeye.obj
 0001:0004861a       ?SetActivity@CHoundeye@@UAEXW4Activity@@@Z 1004961a f   houndeye.obj
 0001:000486da       ?HandleAnimEvent@CHoundeye@@UAEXPAUMonsterEvent_t@@@Z 100496da f   houndeye.obj
 0001:00048850       ?Spawn@CHoundeye@@UAEXXZ   10049850 f   houndeye.obj
 0001:00048977       ?Precache@CHoundeye@@UAEXXZ 10049977 f   houndeye.obj
 0001:00048acd       ?IdleSound@CHoundeye@@UAEXXZ 10049acd f   houndeye.obj
 0001:00048b7d       ?WarmUpSound@CHoundeye@@QAEXXZ 10049b7d f   houndeye.obj
 0001:00048bfc       ?WarnSound@CHoundeye@@QAEXXZ 10049bfc f   houndeye.obj
 0001:00048cac       ?AlertSound@CHoundeye@@UAEXXZ 10049cac f   houndeye.obj
 0001:00048d79       ?DeathSound@CHoundeye@@UAEXXZ 10049d79 f   houndeye.obj
 0001:00048e29       ?PainSound@CHoundeye@@UAEXXZ 10049e29 f   houndeye.obj
 0001:00048ed9       ?WriteBeamColor@CHoundeye@@QAEXXZ 10049ed9 f   houndeye.obj
 0001:00048f9d       ?SonicAttack@CHoundeye@@QAEXXZ 10049f9d f   houndeye.obj
 0001:00049425       ?StartTask@CHoundeye@@UAEXPAUTask_t@@@Z 1004a425 f   houndeye.obj
 0001:000495a5       ?RunTask@CHoundeye@@UAEXPAUTask_t@@@Z 1004a5a5 f   houndeye.obj
 0001:00049847       ?PrescheduleThink@CHoundeye@@UAEXXZ 1004a847 f   houndeye.obj
 0001:000499af       ?ScheduleFromName@CHoundeye@@UAEPAUSchedule_t@@PBD@Z 1004a9af f   houndeye.obj
 0001:000499eb       ?GetScheduleOfType@CHoundeye@@UAEPAUSchedule_t@@H@Z 1004a9eb f   houndeye.obj
 0001:00049bd5       ?GetSchedule@CHoundeye@@UAEPAUSchedule_t@@XZ 1004abd5 f   houndeye.obj
 0001:00049d40       ?GetClassPtr@@YAPAVCHoundeye@@PAV1@@Z 1004ad40 f i houndeye.obj
 0001:00049dd0       ??0CHoundeye@@QAE@XZ       1004add0 f i houndeye.obj
 0001:00049e00       ?MySquadMember@CSquadMonster@@QAEPAV1@H@Z 1004ae00 f i houndeye.obj
 0001:00049e30       _monster_ichthyosaur       1004ae30 f   ichthyosaur.obj
 0001:00049e41       ?Save@CIchthyosaur@@UAEHAAVCSave@@@Z 1004ae41 f   ichthyosaur.obj
 0001:00049e7a       ?Restore@CIchthyosaur@@UAEHAAVCRestore@@@Z 1004ae7a f   ichthyosaur.obj
 0001:00049eb3       ?IdleSound@CIchthyosaur@@UAEXXZ 1004aeb3 f   ichthyosaur.obj
 0001:00049f07       ?AlertSound@CIchthyosaur@@UAEXXZ 1004af07 f   ichthyosaur.obj
 0001:00049f5b       ?AttackSound@CIchthyosaur@@QAEXXZ 1004af5b f   ichthyosaur.obj
 0001:00049faf       ?BiteSound@CIchthyosaur@@QAEXXZ 1004afaf f   ichthyosaur.obj
 0001:0004a003       ?DeathSound@CIchthyosaur@@UAEXXZ 1004b003 f   ichthyosaur.obj
 0001:0004a057       ?PainSound@CIchthyosaur@@UAEXXZ 1004b057 f   ichthyosaur.obj
 0001:0004a0ab       ?ScheduleFromName@CIchthyosaur@@UAEPAUSchedule_t@@PBD@Z 1004b0ab f   ichthyosaur.obj
 0001:0004a0e7       ?Classify@CIchthyosaur@@UAEHXZ 1004b0e7 f   ichthyosaur.obj
 0001:0004a0f7       ?CheckMeleeAttack1@CIchthyosaur@@UAEHMM@Z 1004b0f7 f   ichthyosaur.obj
 0001:0004a13d       ?BiteTouch@CIchthyosaur@@QAEXPAVCBaseEntity@@@Z 1004b13d f   ichthyosaur.obj
 0001:0004a17b       ?CombatUse@CIchthyosaur@@QAEXPAVCBaseEntity@@0W4USE_TYPE@@M@Z 1004b17b f   ichthyosaur.obj
 0001:0004a1cc       ?CheckRangeAttack1@CIchthyosaur@@UAEHMM@Z 1004b1cc f   ichthyosaur.obj
 0001:0004a224       ?SetYawSpeed@CIchthyosaur@@UAEXXZ 1004b224 f   ichthyosaur.obj
 0001:0004a23f       ?Killed@CIchthyosaur@@UAEXPAUentvars_s@@H@Z 1004b23f f   ichthyosaur.obj
 0001:0004a285       ?BecomeDead@CIchthyosaur@@UAEXXZ 1004b285 f   ichthyosaur.obj
 0001:0004a2ce       ?HandleAnimEvent@CIchthyosaur@@UAEXPAUMonsterEvent_t@@@Z 1004b2ce f   ichthyosaur.obj
 0001:0004a643       ?Spawn@CIchthyosaur@@UAEXXZ 1004b643 f   ichthyosaur.obj
 0001:0004a85a       ?Precache@CIchthyosaur@@UAEXXZ 1004b85a f   ichthyosaur.obj
 0001:0004a989       ?GetSchedule@CIchthyosaur@@UAEPAUSchedule_t@@XZ 1004b989 f   ichthyosaur.obj
 0001:0004aabd       ?GetScheduleOfType@CIchthyosaur@@UAEPAUSchedule_t@@H@Z 1004babd f   ichthyosaur.obj
 0001:0004ab63       ?StartTask@CIchthyosaur@@UAEXPAUTask_t@@@Z 1004bb63 f   ichthyosaur.obj
 0001:0004ac72       ?RunTask@CIchthyosaur@@UAEXPAUTask_t@@@Z 1004bc72 f   ichthyosaur.obj
 0001:0004b31d       ?VectorToPitch@CIchthyosaur@@QAEMABVVector@@@Z 1004c31d f   ichthyosaur.obj
 0001:0004b3cd       ?Move@CIchthyosaur@@UAEXM@Z 1004c3cd f   ichthyosaur.obj
 0001:0004b3e6       ?FlPitchDiff@CIchthyosaur@@QAEMXZ 1004c3e6 f   ichthyosaur.obj
 0001:0004b48b       ?ChangePitch@CIchthyosaur@@QAEMH@Z 1004c48b f   ichthyosaur.obj
 0001:0004b52e       ?ChangeYaw@CIchthyosaur@@UAEMH@Z 1004c52e f   ichthyosaur.obj
 0001:0004b5d7       ?GetStoppedActivity@CIchthyosaur@@UAE?AW4Activity@@XZ 1004c5d7 f   ichthyosaur.obj
 0001:0004b5fd       ?MoveExecute@CIchthyosaur@@UAEXPAVCBaseEntity@@ABVVector@@M@Z 1004c5fd f   ichthyosaur.obj
 0001:0004b63b       ?MonsterThink@CIchthyosaur@@UAEXXZ 1004c63b f   ichthyosaur.obj
 0001:0004b716       ?Stop@CIchthyosaur@@UAEXXZ 1004c716 f   ichthyosaur.obj
 0001:0004b73a       ?Swim@CIchthyosaur@@QAEXXZ 1004c73a f   ichthyosaur.obj
 0001:0004c425       ?DoProbe@CIchthyosaur@@QAE?AVVector@@ABV2@@Z 1004d425 f   ichthyosaur.obj
 0001:0004c6b0       ?CrossProduct@@YA?AVVector@@ABV1@0@Z 1004d6b0 f i ichthyosaur.obj
 0001:0004c730       ?GetClassPtr@@YAPAVCIchthyosaur@@PAV1@@Z 1004d730 f i ichthyosaur.obj
 0001:0004c7c0       ??0CIchthyosaur@@QAE@XZ    1004d7c0 f i ichthyosaur.obj
 0001:0004c7f0       ??0CFlyingMonster@@QAE@XZ  1004d7f0 f i ichthyosaur.obj
 0001:0004c820       ?SetFlyingMomentum@CFlyingMonster@@QAEXM@Z 1004d820 f i ichthyosaur.obj
 0001:0004c840       ?SetFlyingSpeed@CFlyingMonster@@QAEXM@Z 1004d840 f i ichthyosaur.obj
 0001:0004c860       _monster_alien_slave       1004d860 f   islave.obj
 0001:0004c871       _monster_vortigaunt        1004d871 f   islave.obj
 0001:0004c882       ?Save@CISlave@@UAEHAAVCSave@@@Z 1004d882 f   islave.obj
 0001:0004c8bb       ?Restore@CISlave@@UAEHAAVCRestore@@@Z 1004d8bb f   islave.obj
 0001:0004c8f4       ?Classify@CISlave@@UAEHXZ  1004d8f4 f   islave.obj
 0001:0004c904       ?IRelationship@CISlave@@UAEHPAVCBaseEntity@@@Z 1004d904 f   islave.obj
 0001:0004c956       ?CallForHelp@CISlave@@QAEXPADMVEHANDLE@@AAVVector@@@Z 1004d956 f   islave.obj
 0001:0004ca33       ?AlertSound@CISlave@@UAEXXZ 1004da33 f   islave.obj
 0001:0004cab0       ?IdleSound@CISlave@@UAEXXZ 1004dab0 f   islave.obj
 0001:0004caff       ?PainSound@CISlave@@UAEXXZ 1004daff f   islave.obj
 0001:0004cb60       ?DeathSound@CISlave@@UAEXXZ 1004db60 f   islave.obj
 0001:0004cbb0       ?ISoundMask@CISlave@@UAEHXZ 1004dbb0 f   islave.obj
 0001:0004cbc0       ?Killed@CISlave@@UAEXPAUentvars_s@@H@Z 1004dbc0 f   islave.obj
 0001:0004cbe5       ?SetYawSpeed@CISlave@@UAEXXZ 1004dbe5 f   islave.obj
 0001:0004cc43       ?HandleAnimEvent@CISlave@@UAEXPAUMonsterEvent_t@@@Z 1004dc43 f   islave.obj
 0001:0004d2f7       ?CheckRangeAttack1@CISlave@@UAEHMM@Z 1004e2f7 f   islave.obj
 0001:0004d330       ?CheckRangeAttack2@CISlave@@UAEHMM@Z 1004e330 f   islave.obj
 0001:0004d477       ?StartTask@CISlave@@UAEXPAUTask_t@@@Z 1004e477 f   islave.obj
 0001:0004d498       ?Spawn@CISlave@@UAEXXZ     1004e498 f   islave.obj
 0001:0004d5d1       ?Precache@CISlave@@UAEXXZ  1004e5d1 f   islave.obj
 0001:0004d721       ?TakeDamage@CISlave@@UAEHPAUentvars_s@@0MH@Z 1004e721 f   islave.obj
 0001:0004d78f       ?TraceAttack@CISlave@@UAEXPAUentvars_s@@MVVector@@PAUTraceResult@@H@Z 1004e78f f   islave.obj
 0001:0004d7d2       ?ScheduleFromName@CISlave@@UAEPAUSchedule_t@@PBD@Z 1004e7d2 f   islave.obj
 0001:0004d80e       ?GetSchedule@CISlave@@UAEPAUSchedule_t@@XZ 1004e80e f   islave.obj
 0001:0004d963       ?GetScheduleOfType@CISlave@@UAEPAUSchedule_t@@H@Z 1004e963 f   islave.obj
 0001:0004d9c5       ?ArmBeam@CISlave@@QAEXH@Z  1004e9c5 f   islave.obj
 0001:0004dd20       ?BeamGlow@CISlave@@QAEXXZ  1004ed20 f   islave.obj
 0001:0004dd9d       ?WackBeam@CISlave@@QAEXHPAVCBaseEntity@@@Z 1004ed9d f   islave.obj
 0001:0004dedb       ?ZapBeam@CISlave@@QAEXH@Z  1004eedb f   islave.obj
 0001:0004e238       ?ClearBeams@CISlave@@QAEXXZ 1004f238 f   islave.obj
 0001:0004e2e0       ?GetClassPtr@@YAPAVCISlave@@PAV1@@Z 1004f2e0 f i islave.obj
 0001:0004e370       ??0CISlave@@QAE@XZ         1004f370 f i islave.obj
 0001:0004e390       ?GetBrightness@CBeam@@QAEHXZ 1004f390 f i islave.obj
 0001:0004e3b0       _world_items               1004f3b0 f   items.obj
 0001:0004e3c1       ?KeyValue@CWorldItem@@UAEXPAUKeyValueData_s@@@Z 1004f3c1 f   items.obj
 0001:0004e413       ?Spawn@CWorldItem@@UAEXXZ  1004f413 f   items.obj
 0001:0004e574       ?Spawn@CItem@@UAEXXZ       1004f574 f   items.obj
 0001:0004e67a       ?ItemTouch@CItem@@QAEXPAVCBaseEntity@@@Z 1004f67a f   items.obj
 0001:0004e766       ?Respawn@CItem@@UAEPAVCBaseEntity@@XZ 1004f766 f   items.obj
 0001:0004e7f4       ?Materialize@CItem@@QAEXXZ 1004f7f4 f   items.obj
 0001:0004e884       _item_suit                 1004f884 f   items.obj
 0001:0004e895       _item_battery              1004f895 f   items.obj
 0001:0004e8a6       _item_antidote             1004f8a6 f   items.obj
 0001:0004e8b7       _item_security             1004f8b7 f   items.obj
 0001:0004e8c8       _item_longjump             1004f8c8 f   items.obj
 0001:0004e8e0       ?GetClassPtr@@YAPAVCWorldItem@@PAV1@@Z 1004f8e0 f i items.obj
 0001:0004e970       ?GetClassPtr@@YAPAVCItemSuit@@PAV1@@Z 1004f970 f i items.obj
 0001:0004ea00       ?GetClassPtr@@YAPAVCItemBattery@@PAV1@@Z 1004fa00 f i items.obj
 0001:0004ea90       ?GetClassPtr@@YAPAVCItemAntidote@@PAV1@@Z 1004fa90 f i items.obj
 0001:0004eb20       ?GetClassPtr@@YAPAVCItemSecurity@@PAV1@@Z 1004fb20 f i items.obj
 0001:0004ebb0       ?GetClassPtr@@YAPAVCItemLongJump@@PAV1@@Z 1004fbb0 f i items.obj
 0001:0004ec40       ??0CWorldItem@@QAE@XZ      1004fc40 f i items.obj
 0001:0004ec60       ??0CItemSuit@@QAE@XZ       1004fc60 f i items.obj
 0001:0004ec80       ?Spawn@CItemSuit@@EAEXXZ   1004fc80 f i items.obj
 0001:0004ecc0       ?Precache@CItemSuit@@EAEXXZ 1004fcc0 f i items.obj
 0001:0004ece0       ?MyTouch@CItemSuit@@EAEHPAVCBasePlayer@@@Z 1004fce0 f i items.obj
 0001:0004ed70       ??0CItemBattery@@QAE@XZ    1004fd70 f i items.obj
 0001:0004ed90       ?Spawn@CItemBattery@@EAEXXZ 1004fd90 f i items.obj
 0001:0004edd0       ?Precache@CItemBattery@@EAEXXZ 1004fdd0 f i items.obj
 0001:0004ee00       ?MyTouch@CItemBattery@@EAEHPAVCBasePlayer@@@Z 1004fe00 f i items.obj
 0001:0004ef90       ??0CItemAntidote@@QAE@XZ   1004ff90 f i items.obj
 0001:0004efb0       ?Spawn@CItemAntidote@@EAEXXZ 1004ffb0 f i items.obj
 0001:0004eff0       ?Precache@CItemAntidote@@EAEXXZ 1004fff0 f i items.obj
 0001:0004f010       ?MyTouch@CItemAntidote@@EAEHPAVCBasePlayer@@@Z 10050010 f i items.obj
 0001:0004f050       ??0CItemSecurity@@QAE@XZ   10050050 f i items.obj
 0001:0004f070       ?Spawn@CItemSecurity@@EAEXXZ 10050070 f i items.obj
 0001:0004f0b0       ?Precache@CItemSecurity@@EAEXXZ 100500b0 f i items.obj
 0001:0004f0d0       ?MyTouch@CItemSecurity@@EAEHPAVCBasePlayer@@@Z 100500d0 f i items.obj
 0001:0004f100       ??0CItemLongJump@@QAE@XZ   10050100 f i items.obj
 0001:0004f120       ?Spawn@CItemLongJump@@EAEXXZ 10050120 f i items.obj
 0001:0004f160       ?Precache@CItemLongJump@@EAEXXZ 10050160 f i items.obj
 0001:0004f180       ?MyTouch@CItemLongJump@@EAEHPAVCBasePlayer@@@Z 10050180 f i items.obj
 0001:0004f240       _monster_leech             10050240 f   leech.obj
 0001:0004f251       ?Save@CLeech@@UAEHAAVCSave@@@Z 10050251 f   leech.obj
 0001:0004f28a       ?Restore@CLeech@@UAEHAAVCRestore@@@Z 1005028a f   leech.obj
 0001:0004f2c3       ?Spawn@CLeech@@UAEXXZ      100502c3 f   leech.obj
 0001:0004f444       ?Activate@CLeech@@UAEXXZ   10050444 f   leech.obj
 0001:0004f457       ?RecalculateWaterlevel@CLeech@@QAEXXZ 10050457 f   leech.obj
 0001:0004f5ce       ?SwitchLeechState@CLeech@@QAEXXZ 100505ce f   leech.obj
 0001:0004f6c6       ?IRelationship@CLeech@@UAEHPAVCBaseEntity@@@Z 100506c6 f   leech.obj
 0001:0004f6f8       ?AttackSound@CLeech@@QAEXXZ 100506f8 f   leech.obj
 0001:0004f76e       ?AlertSound@CLeech@@UAEXXZ 1005076e f   leech.obj
 0001:0004f7b6       ?Precache@CLeech@@UAEXXZ   100507b6 f   leech.obj
 0001:0004f82d       ?TakeDamage@CLeech@@UAEHPAUentvars_s@@0MH@Z 1005082d f   leech.obj
 0001:0004f8c9       ?HandleAnimEvent@CLeech@@UAEXPAUMonsterEvent_t@@@Z 100508c9 f   leech.obj
 0001:0004fa23       ?MakeVectors@CLeech@@QAEXXZ 10050a23 f   leech.obj
 0001:0004fa56       ?ObstacleDistance@CLeech@@QAEMPAVCBaseEntity@@@Z 10050a56 f   leech.obj
 0001:0004fd34       ?DeadThink@CLeech@@QAEXXZ  10050d34 f   leech.obj
 0001:0004fe76       ?UpdateMotion@CLeech@@QAEXXZ 10050e76 f   leech.obj
 0001:000501c0       ?SwimThink@CLeech@@QAEXXZ  100511c0 f   leech.obj
 0001:00050971       ?Killed@CLeech@@UAEXPAUentvars_s@@H@Z 10051971 f   leech.obj
 0001:00050ae0       ?GetClassPtr@@YAPAVCLeech@@PAV1@@Z 10051ae0 f i leech.obj
 0001:00050b70       ??0CLeech@@QAE@XZ          10051b70 f i leech.obj
 0001:00050b90       ?Touch@CLeech@@UAEXPAVCBaseEntity@@@Z 10051b90 f i leech.obj
 0001:00050c10       ?SetObjectCollisionBox@CLeech@@UAEXXZ 10051c10 f i leech.obj
 0001:00050cb0       ?BloodColor@CLeech@@UAEHXZ 10051cb0 f i leech.obj
 0001:00050cc0       ?Classify@CLeech@@UAEHXZ   10051cc0 f i leech.obj
 0001:00050cd0       _light                     10051cd0 f   lights.obj
 0001:00050ce1       ?Save@CLight@@UAEHAAVCSave@@@Z 10051ce1 f   lights.obj
 0001:00050d1a       ?Restore@CLight@@UAEHAAVCRestore@@@Z 10051d1a f   lights.obj
 0001:00050d53       ?KeyValue@CLight@@UAEXPAUKeyValueData_s@@@Z 10051d53 f   lights.obj
 0001:00050e23       ?Spawn@CLight@@UAEXXZ      10051e23 f   lights.obj
 0001:00050ed7       ?Use@CLight@@UAEXPAVCBaseEntity@@0W4USE_TYPE@@M@Z 10051ed7 f   lights.obj
 0001:00050fbc       _light_spot                10051fbc f   lights.obj
 0001:00050fcd       _light_environment         10051fcd f   lights.obj
 0001:00050fde       ?KeyValue@CEnvLight@@UAEXPAUKeyValueData_s@@@Z 10051fde f   lights.obj
 0001:000511a6       ?Spawn@CEnvLight@@UAEXXZ   100521a6 f   lights.obj
 0001:00051270       ?GetClassPtr@@YAPAVCLight@@PAV1@@Z 10052270 f i lights.obj
 0001:00051300       ?GetClassPtr@@YAPAVCEnvLight@@PAV1@@Z 10052300 f i lights.obj
 0001:00051390       ??0CLight@@QAE@XZ          10052390 f i lights.obj
 0001:000513b0       ??0CEnvLight@@QAE@XZ       100523b0 f i lights.obj
 0001:000513d0       ?Save@CRuleEntity@@UAEHAAVCSave@@@Z 100523d0 f   maprules.obj
 0001:00051409       ?Restore@CRuleEntity@@UAEHAAVCRestore@@@Z 10052409 f   maprules.obj
 0001:00051442       ?Spawn@CRuleEntity@@UAEXXZ 10052442 f   maprules.obj
 0001:0005147d       ?KeyValue@CRuleEntity@@UAEXPAUKeyValueData_s@@@Z 1005247d f   maprules.obj
 0001:000514d3       ?CanFireForActivator@CRuleEntity@@IAEHPAVCBaseEntity@@@Z 100524d3 f   maprules.obj
 0001:00051510       ?Spawn@CRulePointEntity@@UAEXXZ 10052510 f   maprules.obj
 0001:00051543       ?Spawn@CRuleBrushEntity@@UAEXXZ 10052543 f   maprules.obj
 0001:00051581       _game_score                10052581 f   maprules.obj
 0001:00051592       ?Spawn@CGameScore@@UAEXXZ  10052592 f   maprules.obj
 0001:000515a5       ?KeyValue@CGameScore@@UAEXPAUKeyValueData_s@@@Z 100525a5 f   maprules.obj
 0001:000515fa       ?Use@CGameScore@@UAEXPAVCBaseEntity@@0W4USE_TYPE@@M@Z 100525fa f   maprules.obj
 0001:00051673       _game_end                  10052673 f   maprules.obj
 0001:00051684       ?Use@CGameEnd@@UAEXPAVCBaseEntity@@0W4USE_TYPE@@M@Z 10052684 f   maprules.obj
 0001:000516b7       _game_text                 100526b7 f   maprules.obj
 0001:000516c8       ?Save@CGameText@@UAEHAAVCSave@@@Z 100526c8 f   maprules.obj
 0001:00051701       ?Restore@CGameText@@UAEHAAVCRestore@@@Z 10052701 f   maprules.obj
 0001:0005173a       ?KeyValue@CGameText@@UAEXPAUKeyValueData_s@@@Z 1005273a f   maprules.obj
 0001:000519ec       ?Use@CGameText@@UAEXPAVCBaseEntity@@0W4USE_TYPE@@M@Z 100529ec f   maprules.obj
 0001:00051a5f       _game_team_master          10052a5f f   maprules.obj
 0001:00051a70       ?KeyValue@CGameTeamMaster@@UAEXPAUKeyValueData_s@@@Z 10052a70 f   maprules.obj
 0001:00051b30       ?Use@CGameTeamMaster@@UAEXPAVCBaseEntity@@0W4USE_TYPE@@M@Z 10052b30 f   maprules.obj
 0001:00051bde       ?IsTriggered@CGameTeamMaster@@UAEHPAVCBaseEntity@@@Z 10052bde f   maprules.obj
 0001:00051bf7       ?TeamID@CGameTeamMaster@@UAEPBDXZ 10052bf7 f   maprules.obj
 0001:00051c2c       ?TeamMatch@CGameTeamMaster@@AAEHPAVCBaseEntity@@@Z 10052c2c f   maprules.obj
 0001:00051c85       _game_team_set             10052c85 f   maprules.obj
 0001:00051c96       ?Use@CGameTeamSet@@UAEXPAVCBaseEntity@@0W4USE_TYPE@@M@Z 10052c96 f   maprules.obj
 0001:00051cfe       _game_zone_player          10052cfe f   maprules.obj
 0001:00051d0f       ?Save@CGamePlayerZone@@UAEHAAVCSave@@@Z 10052d0f f   maprules.obj
 0001:00051d48       ?Restore@CGamePlayerZone@@UAEHAAVCRestore@@@Z 10052d48 f   maprules.obj
 0001:00051d81       ?KeyValue@CGamePlayerZone@@UAEXPAUKeyValueData_s@@@Z 10052d81 f   maprules.obj
 0001:00051e88       ?Use@CGamePlayerZone@@UAEXPAVCBaseEntity@@0W4USE_TYPE@@M@Z 10052e88 f   maprules.obj
 0001:0005204b       _game_player_hurt          1005304b f   maprules.obj
 0001:0005205c       ?Use@CGamePlayerHurt@@UAEXPAVCBaseEntity@@0W4USE_TYPE@@M@Z 1005305c f   maprules.obj
 0001:0005211e       _game_counter              1005311e f   maprules.obj
 0001:0005212f       ?Spawn@CGameCounter@@UAEXXZ 1005312f f   maprules.obj
 0001:00052153       ?Use@CGameCounter@@UAEXPAVCBaseEntity@@0W4USE_TYPE@@M@Z 10053153 f   maprules.obj
 0001:0005220a       _game_counter_set          1005320a f   maprules.obj
 0001:0005221b       ?Use@CGameCounterSet@@UAEXPAVCBaseEntity@@0W4USE_TYPE@@M@Z 1005321b f   maprules.obj
 0001:0005226d       _game_player_equip         1005326d f   maprules.obj
 0001:0005227e       ?KeyValue@CGamePlayerEquip@@UAEXPAUKeyValueData_s@@@Z 1005327e f   maprules.obj
 0001:0005238d       ?Touch@CGamePlayerEquip@@UAEXPAVCBaseEntity@@@Z 1005338d f   maprules.obj
 0001:000523c6       ?EquipPlayer@CGamePlayerEquip@@AAEXPAVCBaseEntity@@@Z 100533c6 f   maprules.obj
 0001:0005246a       ?Use@CGamePlayerEquip@@UAEXPAVCBaseEntity@@0W4USE_TYPE@@M@Z 1005346a f   maprules.obj
 0001:00052483       _game_player_team          10053483 f   maprules.obj
 0001:00052494       ?TargetTeamName@CGamePlayerTeam@@AAEPBDPBD@Z 10053494 f   maprules.obj
 0001:000524ef       ?Use@CGamePlayerTeam@@UAEXPAVCBaseEntity@@0W4USE_TYPE@@M@Z 100534ef f   maprules.obj
 0001:000525a0       ?SetMaster@CRuleEntity@@QAEXH@Z 100535a0 f i maprules.obj
 0001:000525c0       ?SetPoints@CGameScore@@QAEXH@Z 100535c0 f i maprules.obj
 0001:000525e0       ?Points@CGameScore@@QAEHXZ 100535e0 f i maprules.obj
 0001:00052600       ?AllowNegativeScore@CGameScore@@QAEHXZ 10053600 f i maprules.obj
 0001:00052620       ?AwardToTeam@CGameScore@@QAEHXZ 10053620 f i maprules.obj
 0001:00052640       ?MessageToAll@CGameText@@QAEHXZ 10053640 f i maprules.obj
 0001:00052660       ?MessageGet@CGameText@@QAEPBDXZ 10053660 f i maprules.obj
 0001:00052690       ?RemoveOnFire@CGameTeamMaster@@QAEHXZ 10053690 f i maprules.obj
 0001:000526b0       ?AnyTeam@CGameTeamMaster@@QAEHXZ 100536b0 f i maprules.obj
 0001:000526d0       ?RemoveOnFire@CGameTeamSet@@QAEHXZ 100536d0 f i maprules.obj
 0001:000526f0       ?ShouldClearTeam@CGameTeamSet@@QAEHXZ 100536f0 f i maprules.obj
 0001:00052710       ?RemoveOnFire@CGamePlayerHurt@@QAEHXZ 10053710 f i maprules.obj
 0001:00052730       ?CountValue@CGameCounter@@QAEHXZ 10053730 f i maprules.obj
 0001:00052750       ?SetInitialValue@CGameCounter@@AAEXH@Z 10053750 f i maprules.obj
 0001:00052770       ?RemoveOnFire@CGameCounter@@QAEHXZ 10053770 f i maprules.obj
 0001:00052790       ?ResetOnFire@CGameCounter@@QAEHXZ 10053790 f i maprules.obj
 0001:000527b0       ?CountUp@CGameCounter@@QAEXXZ 100537b0 f i maprules.obj
 0001:000527e0       ?CountDown@CGameCounter@@QAEXXZ 100537e0 f i maprules.obj
 0001:00052810       ?ResetCount@CGameCounter@@QAEXXZ 10053810 f i maprules.obj
 0001:00052840       ?HitLimit@CGameCounter@@QAEHXZ 10053840 f i maprules.obj
 0001:00052870       ?LimitValue@CGameCounter@@QAEHXZ 10053870 f i maprules.obj
 0001:00052890       ?SetCountValue@CGameCounter@@AAEXH@Z 10053890 f i maprules.obj
 0001:000528b0       ?RemoveOnFire@CGameCounterSet@@QAEHXZ 100538b0 f i maprules.obj
 0001:000528d0       ?UseOnly@CGamePlayerEquip@@QAEHXZ 100538d0 f i maprules.obj
 0001:000528f0       ?RemoveOnFire@CGamePlayerTeam@@AAEHXZ 100538f0 f i maprules.obj
 0001:00052910       ?ShouldKillPlayer@CGamePlayerTeam@@AAEHXZ 10053910 f i maprules.obj
 0001:00052930       ?ShouldGibPlayer@CGamePlayerTeam@@AAEHXZ 10053930 f i maprules.obj
 0001:00052950       ?GetClassPtr@@YAPAVCGameScore@@PAV1@@Z 10053950 f i maprules.obj
 0001:000529e0       ?GetClassPtr@@YAPAVCGameEnd@@PAV1@@Z 100539e0 f i maprules.obj
 0001:00052a70       ?GetClassPtr@@YAPAVCGameText@@PAV1@@Z 10053a70 f i maprules.obj
 0001:00052b00       ?GetClassPtr@@YAPAVCGameTeamMaster@@PAV1@@Z 10053b00 f i maprules.obj
 0001:00052b90       ?GetClassPtr@@YAPAVCGameTeamSet@@PAV1@@Z 10053b90 f i maprules.obj
 0001:00052c20       ?GetClassPtr@@YAPAVCGamePlayerZone@@PAV1@@Z 10053c20 f i maprules.obj
 0001:00052cb0       ?GetClassPtr@@YAPAVCGamePlayerHurt@@PAV1@@Z 10053cb0 f i maprules.obj
 0001:00052d40       ?GetClassPtr@@YAPAVCGameCounter@@PAV1@@Z 10053d40 f i maprules.obj
 0001:00052dd0       ?GetClassPtr@@YAPAVCGameCounterSet@@PAV1@@Z 10053dd0 f i maprules.obj
 0001:00052e60       ?GetClassPtr@@YAPAVCGamePlayerEquip@@PAV1@@Z 10053e60 f i maprules.obj
 0001:00052ef0       ?GetClassPtr@@YAPAVCGamePlayerTeam@@PAV1@@Z 10053ef0 f i maprules.obj
 0001:00052f80       ??0CGameScore@@QAE@XZ      10053f80 f i maprules.obj
 0001:00052fa0       ??0CGameEnd@@QAE@XZ        10053fa0 f i maprules.obj
 0001:00052fc0       ??0CGameText@@QAE@XZ       10053fc0 f i maprules.obj
 0001:00052fe0       ??0CGameTeamMaster@@QAE@XZ 10053fe0 f i maprules.obj
 0001:00053000       ?ObjectCaps@CGameTeamMaster@@UAEHXZ 10054000 f i maprules.obj
 0001:00053020       ??0CGameTeamSet@@QAE@XZ    10054020 f i maprules.obj
 0001:00053040       ??0CGamePlayerZone@@QAE@XZ 10054040 f i maprules.obj
 0001:00053060       ??0CGamePlayerHurt@@QAE@XZ 10054060 f i maprules.obj
 0001:00053080       ??0CGameCounter@@QAE@XZ    10054080 f i maprules.obj
 0001:000530a0       ??0CGameCounterSet@@QAE@XZ 100540a0 f i maprules.obj
 0001:000530c0       ??0CGamePlayerEquip@@QAE@XZ 100540c0 f i maprules.obj
 0001:000530e0       ??0CGamePlayerTeam@@QAE@XZ 100540e0 f i maprules.obj
 0001:00053100       ??0CRulePointEntity@@QAE@XZ 10054100 f i maprules.obj
 0001:00053120       ??0CRuleBrushEntity@@QAE@XZ 10054120 f i maprules.obj
 0001:00053140       ??0CRuleEntity@@QAE@XZ     10054140 f i maprules.obj
 0001:00053160       _monstermaker              10054160 f   monstermaker.obj
 0001:00053171       ?Save@CMonsterMaker@@UAEHAAVCSave@@@Z 10054171 f   monstermaker.obj
 0001:000531aa       ?Restore@CMonsterMaker@@UAEHAAVCRestore@@@Z 100541aa f   monstermaker.obj
 0001:000531e3       ?KeyValue@CMonsterMaker@@UAEXPAUKeyValueData_s@@@Z 100541e3 f   monstermaker.obj
 0001:000532b4       ?Spawn@CMonsterMaker@@UAEXXZ 100542b4 f   monstermaker.obj
 0001:000533d3       ?Precache@CMonsterMaker@@UAEXXZ 100543d3 f   monstermaker.obj
 0001:00053403       ?MakeMonster@CMonsterMaker@@QAEXXZ 10054403 f   monstermaker.obj
 0001:00053761       ?CyclicUse@CMonsterMaker@@QAEXPAVCBaseEntity@@0W4USE_TYPE@@M@Z 10054761 f   monstermaker.obj
 0001:00053776       ?ToggleUse@CMonsterMaker@@QAEXPAVCBaseEntity@@0W4USE_TYPE@@M@Z 10054776 f   monstermaker.obj
 0001:000537ef       ?MakerThink@CMonsterMaker@@QAEXXZ 100547ef f   monstermaker.obj
 0001:0005381b       ?DeathNotice@CMonsterMaker@@UAEXPAUentvars_s@@@Z 1005481b f   monstermaker.obj
 0001:00053860       ?GetClassPtr@@YAPAVCMonsterMaker@@PAV1@@Z 10054860 f i monstermaker.obj
 0001:000538f0       ??0CMonsterMaker@@QAE@XZ   100548f0 f i monstermaker.obj
 0001:00053910       ?Save@CBaseMonster@@UAEHAAVCSave@@@Z 10054910 f   monsters.obj
 0001:00053949       ?Restore@CBaseMonster@@UAEHAAVCRestore@@@Z 10054949 f   monsters.obj
 0001:000539d8       ?Eat@CBaseMonster@@QAEXM@Z 100549d8 f   monsters.obj
 0001:000539f8       ?FShouldEat@CBaseMonster@@QAEHXZ 100549f8 f   monsters.obj
 0001:00053a24       ?BarnacleVictimBitten@CBaseMonster@@UAEXPAUentvars_s@@@Z 10054a24 f   monsters.obj
 0001:00053a58       ?BarnacleVictimReleased@CBaseMonster@@UAEXXZ 10054a58 f   monsters.obj
 0001:00053aa1       ?Listen@CBaseMonster@@QAEXXZ 10054aa1 f   monsters.obj
 0001:00053c29       ?FLSoundVolume@CBaseMonster@@QAEMPAVCSound@@@Z 10054c29 f   monsters.obj
 0001:00053c61       ?FValidateHintType@CBaseMonster@@UAEHF@Z 10054c61 f   monsters.obj
 0001:00053c70       ?Look@CBaseMonster@@UAEXH@Z 10054c70 f   monsters.obj
 0001:00053fd9       ?ISoundMask@CBaseMonster@@UAEHXZ 10054fd9 f   monsters.obj
 0001:00053fe9       ?PBestSound@CBaseMonster@@UAEPAVCSound@@XZ 10054fe9 f   monsters.obj
 0001:000540d2       ?PBestScent@CBaseMonster@@UAEPAVCSound@@XZ 100550d2 f   monsters.obj
 0001:00054197       ?MonsterThink@CBaseMonster@@UAEXXZ 10055197 f   monsters.obj
 0001:00054284       ?MonsterUse@CBaseMonster@@QAEXPAVCBaseEntity@@0W4USE_TYPE@@M@Z 10055284 f   monsters.obj
 0001:0005429e       ?IgnoreConditions@CBaseMonster@@UAEHXZ 1005529e f   monsters.obj
 0001:00054303       ?RouteClear@CBaseMonster@@QAEXXZ 10055303 f   monsters.obj
 0001:0005433a       ?RouteNew@CBaseMonster@@QAEXXZ 1005533a f   monsters.obj
 0001:0005435f       ?FRouteClear@CBaseMonster@@QAEHXZ 1005535f f   monsters.obj
 0001:00054398       ?FRefreshRoute@CBaseMonster@@QAEHXZ 10055398 f   monsters.obj
 0001:000545a0       ?MoveToEnemy@CBaseMonster@@QAEHW4Activity@@M@Z 100555a0 f   monsters.obj
 0001:000545da       ?MoveToLocation@CBaseMonster@@QAEHW4Activity@@MABVVector@@@Z 100555da f   monsters.obj
 0001:0005462f       ?MoveToTarget@CBaseMonster@@QAEHW4Activity@@M@Z 1005562f f   monsters.obj
 0001:00054669       ?MoveToNode@CBaseMonster@@QAEHW4Activity@@MABVVector@@@Z 10055669 f   monsters.obj
 0001:000546be       ?ShouldSimplify@@YAHH@Z    100556be f   monsters.obj
 0001:000546e7       ?RouteSimplify@CBaseMonster@@QAEXPAVCBaseEntity@@@Z 100556e7 f   monsters.obj
 0001:00054c77       ?FBecomeProne@CBaseMonster@@UAEHXZ 10055c77 f   monsters.obj
 0001:00054cc8       ?CheckRangeAttack1@CBaseMonster@@UAEHMM@Z 10055cc8 f   monsters.obj
 0001:00054d0e       ?CheckRangeAttack2@CBaseMonster@@UAEHMM@Z 10055d0e f   monsters.obj
 0001:00054d54       ?CheckMeleeAttack1@CBaseMonster@@UAEHMM@Z 10055d54 f   monsters.obj
 0001:00054dbd       ?CheckMeleeAttack2@CBaseMonster@@UAEHMM@Z 10055dbd f   monsters.obj
 0001:00054df3       ?CheckAttacks@CBaseMonster@@QAEXPAVCBaseEntity@@M@Z 10055df3 f   monsters.obj
 0001:00054f7b       ?FCanCheckAttacks@CBaseMonster@@UAEHXZ 10055f7b f   monsters.obj
 0001:00054fae       ?CheckEnemy@CBaseMonster@@UAEHPAVCBaseEntity@@@Z 10055fae f   monsters.obj
 0001:00055312       ?PushEnemy@CBaseMonster@@QAEXPAVCBaseEntity@@AAVVector@@@Z 10056312 f   monsters.obj
 0001:000553b8       ?PopEnemy@CBaseMonster@@QAEHXZ 100563b8 f   monsters.obj
 0001:0005548f       ?SetActivity@CBaseMonster@@UAEXW4Activity@@@Z 1005648f f   monsters.obj
 0001:0005557e       ?SetSequenceByName@CBaseMonster@@QAEXPAD@Z 1005657e f   monsters.obj
 0001:0005562b       ?CheckLocalMove@CBaseMonster@@UAEHABVVector@@0PAVCBaseEntity@@PAM@Z 1005662b f   monsters.obj
 0001:00055810       ?OpenDoorAndWait@CBaseMonster@@QAEMPAUentvars_s@@@Z 10056810 f   monsters.obj
 0001:00055949       ?AdvanceRoute@CBaseMonster@@QAEXM@Z 10056949 f   monsters.obj
 0001:00055b40       ?RouteClassify@CBaseMonster@@QAEHH@Z 10056b40 f   monsters.obj
 0001:00055bb6       ?BuildRoute@CBaseMonster@@QAEHABVVector@@HPAVCBaseEntity@@@Z 10056bb6 f   monsters.obj
 0001:00055d31       ?InsertWaypoint@CBaseMonster@@QAEXVVector@@H@Z 10056d31 f   monsters.obj
 0001:00055df6       ?FTriangulate@CBaseMonster@@UAEHABVVector@@0MPAVCBaseEntity@@PAV2@@Z 10056df6 f   monsters.obj
 0001:00056449       ?Move@CBaseMonster@@UAEXM@Z 10057449 f   monsters.obj
 0001:00056919       ?ShouldAdvanceRoute@CBaseMonster@@UAEHM@Z 10057919 f   monsters.obj
 0001:0005693f       ?MoveExecute@CBaseMonster@@UAEXPAVCBaseEntity@@ABVVector@@M@Z 1005793f f   monsters.obj
 0001:00056a08       ?MonsterInit@CBaseMonster@@UAEXXZ 10057a08 f   monsters.obj
 0001:00056ba6       ?MonsterInitThink@CBaseMonster@@QAEXXZ 10057ba6 f   monsters.obj
 0001:00056bbf       ?StartMonster@CBaseMonster@@UAEXXZ 10057bbf f   monsters.obj
 0001:00056ee3       ?MovementComplete@CBaseMonster@@QAEXXZ 10057ee3 f   monsters.obj
 0001:00056f52       ?TaskIsRunning@CBaseMonster@@QAEHXZ 10057f52 f   monsters.obj
 0001:00056f7e       ?IRelationship@CBaseMonster@@UAEHPAVCBaseEntity@@@Z 10057f7e f   monsters.obj
 0001:00056faf       ?FindCover@CBaseMonster@@UAEHVVector@@0MM@Z 10057faf f   monsters.obj
 0001:0005726b       ?BuildNearestRoute@CBaseMonster@@UAEHVVector@@0MM@Z 1005826b f   monsters.obj
 0001:000574bd       ?BestVisibleEnemy@CBaseMonster@@UAEPAVCBaseEntity@@XZ 100584bd f   monsters.obj
 0001:000575e3       ?MakeIdealYaw@CBaseMonster@@QAEXVVector@@@Z 100585e3 f   monsters.obj
 0001:000576b1       ?FlYawDiff@CBaseMonster@@QAEMXZ 100586b1 f   monsters.obj
 0001:0005770a       ?ChangeYaw@CBaseMonster@@UAEMH@Z 1005870a f   monsters.obj
 0001:00057888       ?VecToYaw@CBaseMonster@@QAEMVVector@@@Z 10058888 f   monsters.obj
 0001:000578dc       ?SetEyePosition@CBaseMonster@@QAEXXZ 100588dc f   monsters.obj
 0001:0005797d       ?HandleAnimEvent@CBaseMonster@@UAEXPAUMonsterEvent_t@@@Z 1005897d f   monsters.obj
 0001:00057cce       ?GetGunPosition@CBaseMonster@@UAE?AVVector@@XZ 10058cce f   monsters.obj
 0001:00057d86       ?FGetNodeRoute@CBaseMonster@@QAEHVVector@@@Z 10058d86 f   monsters.obj
 0001:00057f02       ?FindHintNode@CBaseMonster@@QAEHXZ 10058f02 f   monsters.obj
 0001:00058069       ?ReportAIState@CBaseMonster@@UAEXXZ 10059069 f   monsters.obj
 0001:000583b3       ?KeyValue@CBaseMonster@@UAEXPAUKeyValueData_s@@@Z 100593b3 f   monsters.obj
 0001:00058445       ?FCheckAITrigger@CBaseMonster@@QAEHXZ 10059445 f   monsters.obj
 0001:000586c2       ?CanPlaySequence@CBaseMonster@@UAEHHH@Z 100596c2 f   monsters.obj
 0001:00058750       ?FindLateralCover@CBaseMonster@@QAEHABVVector@@0@Z 10059750 f   monsters.obj
 0001:00058a17       ?ShootAtEnemy@CBaseMonster@@QAE?AVVector@@ABV2@@Z 10059a17 f   monsters.obj
 0001:00058ab8       ?FacingIdeal@CBaseMonster@@QAEHXZ 10059ab8 f   monsters.obj
 0001:00058aef       ?FCanActiveIdle@CBaseMonster@@UAEHXZ 10059aef f   monsters.obj
 0001:00058afc       ?PlaySentence@CBaseMonster@@UAEXPBDMMM@Z 10059afc f   monsters.obj
 0001:00058b72       ?PlayScriptedSentence@CBaseMonster@@UAEXPBDMMMHPAVCBaseEntity@@@Z 10059b72 f   monsters.obj
 0001:00058b9d       ?SentenceStop@CBaseMonster@@UAEXXZ 10059b9d f   monsters.obj
 0001:00058bca       ?CorpseFallThink@CBaseMonster@@QAEXXZ 10059bca f   monsters.obj
 0001:00058c37       ?MonsterInitDead@CBaseMonster@@UAEXXZ 10059c37 f   monsters.obj
 0001:00058d23       ?BBoxFlat@CBaseMonster@@QAEHXZ 10059d23 f   monsters.obj
 0001:00058ff8       ?GetEnemy@CBaseMonster@@QAEHXZ 10059ff8 f   monsters.obj
 0001:000591b1       ?DropItem@CBaseMonster@@QAEPAVCBaseEntity@@PADABVVector@@1@Z 1005a1b1 f   monsters.obj
 0001:00059274       ?ShouldFadeOnDeath@CBaseMonster@@UAEHXZ 1005a274 f   monsters.obj
 0001:000592c0       ?IsLockedByMaster@CBaseEntity@@QAEHXZ 1005a2c0 f i monsters.obj
 0001:000592d0       ?Node@CGraph@@QAEAAVCNode@@H@Z 1005a2d0 f i monsters.obj
 0001:000592f0       ?GetMonsterPointer@CBaseEntity@@QAEPAVCBaseMonster@@PAUedict_s@@@Z 1005a2f0 f i monsters.obj
 0001:00059330       ?SetState@CBaseMonster@@QAEXW4MONSTERSTATE@@@Z 1005a330 f   monsterstate.obj
 0001:00059397       ?RunAI@CBaseMonster@@UAEXXZ 1005a397 f   monsterstate.obj
 0001:000594fb       ?GetIdealState@CBaseMonster@@UAE?AW4MONSTERSTATE@@XZ 1005a4fb f   monsterstate.obj
 0001:00059730       _func_mortar_field         1005a730 f   mortar.obj
 0001:00059741       ?Save@CFuncMortarField@@UAEHAAVCSave@@@Z 1005a741 f   mortar.obj
 0001:0005977a       ?Restore@CFuncMortarField@@UAEHAAVCRestore@@@Z 1005a77a f   mortar.obj
 0001:000597b3       ?KeyValue@CFuncMortarField@@UAEXPAUKeyValueData_s@@@Z 1005a7b3 f   mortar.obj
 0001:000598f2       ?Spawn@CFuncMortarField@@UAEXXZ 1005a8f2 f   mortar.obj
 0001:0005997e       ?Precache@CFuncMortarField@@UAEXXZ 1005a97e f   mortar.obj
 0001:000599b3       ?FieldUse@CFuncMortarField@@QAEXPAVCBaseEntity@@0W4USE_TYPE@@M@Z 1005a9b3 f   mortar.obj
 0001:00059d31       _monster_mortar            1005ad31 f   mortar.obj
 0001:00059d42       ?Spawn@CMortar@@UAEXXZ     1005ad42 f   mortar.obj
 0001:00059da2       ?Precache@CMortar@@UAEXXZ  1005ada2 f   mortar.obj
 0001:00059dc4       ?MortarExplode@CMortar@@QAEXXZ 1005adc4 f   mortar.obj
 0001:00059fa0       ?GetClassPtr@@YAPAVCFuncMortarField@@PAV1@@Z 1005afa0 f i mortar.obj
 0001:0005a030       ?GetClassPtr@@YAPAVCMortar@@PAV1@@Z 1005b030 f i mortar.obj
 0001:0005a0c0       ??0CFuncMortarField@@QAE@XZ 1005b0c0 f i mortar.obj
 0001:0005a0e0       ?ObjectCaps@CFuncMortarField@@UAEHXZ 1005b0e0 f i mortar.obj
 0001:0005a100       ??0CMortar@@QAE@XZ         1005b100 f i mortar.obj
 0001:0005a120       _weapon_mp5                1005b120 f   mp5.obj
 0001:0005a131       _weapon_9mmAR              1005b131 f   mp5.obj
 0001:0005a142       ?SecondaryAmmoIndex@CMP5@@UAEHXZ 1005b142 f   mp5.obj
 0001:0005a156       ?Spawn@CMP5@@UAEXXZ        1005b156 f   mp5.obj
 0001:0005a1c1       ?Precache@CMP5@@UAEXXZ     1005b1c1 f   mp5.obj
 0001:0005a2db       ?GetItemInfo@CMP5@@UAEHPAUItemInfo@@@Z 1005b2db f   mp5.obj
 0001:0005a374       ?AddToPlayer@CMP5@@UAEHPAVCBasePlayer@@@Z 1005b374 f   mp5.obj
 0001:0005a3c9       ?Deploy@CMP5@@UAEHXZ       1005b3c9 f   mp5.obj
 0001:0005a3f1       ?PrimaryAttack@CMP5@@UAEXXZ 1005b3f1 f   mp5.obj
 0001:0005a78e       ?SecondaryAttack@CMP5@@UAEXXZ 1005b78e f   mp5.obj
 0001:0005a9dc       ?Reload@CMP5@@UAEXXZ       1005b9dc f   mp5.obj
 0001:0005aa08       ?WeaponIdle@CMP5@@UAEXXZ   1005ba08 f   mp5.obj
 0001:0005aab4       _ammo_mp5clip              1005bab4 f   mp5.obj
 0001:0005aac5       _ammo_9mmAR                1005bac5 f   mp5.obj
 0001:0005aad6       _ammo_9mmbox               1005bad6 f   mp5.obj
 0001:0005aae7       _ammo_mp5grenades          1005bae7 f   mp5.obj
 0001:0005aaf8       _ammo_ARgrenades           1005baf8 f   mp5.obj
 0001:0005ab10       ?GetClassPtr@@YAPAVCMP5@@PAV1@@Z 1005bb10 f i mp5.obj
 0001:0005aba0       ?GetClassPtr@@YAPAVCMP5AmmoClip@@PAV1@@Z 1005bba0 f i mp5.obj
 0001:0005ac30       ?GetClassPtr@@YAPAVCMP5Chainammo@@PAV1@@Z 1005bc30 f i mp5.obj
 0001:0005acc0       ?GetClassPtr@@YAPAVCMP5AmmoGrenade@@PAV1@@Z 1005bcc0 f i mp5.obj
 0001:0005ad50       ??0CMP5@@QAE@XZ            1005bd50 f i mp5.obj
 0001:0005ad70       ??0CMP5AmmoClip@@QAE@XZ    1005bd70 f i mp5.obj
 0001:0005ad90       ?Spawn@CMP5AmmoClip@@EAEXXZ 1005bd90 f i mp5.obj
 0001:0005add0       ?Precache@CMP5AmmoClip@@EAEXXZ 1005bdd0 f i mp5.obj
 0001:0005ae00       ?AddAmmo@CMP5AmmoClip@@EAEHPAVCBaseEntity@@@Z 1005be00 f i mp5.obj
 0001:0005ae70       ??0CMP5Chainammo@@QAE@XZ   1005be70 f i mp5.obj
 0001:0005ae90       ?Spawn@CMP5Chainammo@@EAEXXZ 1005be90 f i mp5.obj
 0001:0005aed0       ?Precache@CMP5Chainammo@@EAEXXZ 1005bed0 f i mp5.obj
 0001:0005af00       ?AddAmmo@CMP5Chainammo@@EAEHPAVCBaseEntity@@@Z 1005bf00 f i mp5.obj
 0001:0005af70       ??0CMP5AmmoGrenade@@QAE@XZ 1005bf70 f i mp5.obj
 0001:0005af90       ?Spawn@CMP5AmmoGrenade@@EAEXXZ 1005bf90 f i mp5.obj
 0001:0005afd0       ?Precache@CMP5AmmoGrenade@@EAEXXZ 1005bfd0 f i mp5.obj
 0001:0005b000       ?AddAmmo@CMP5AmmoGrenade@@EAEHPAVCBaseEntity@@@Z 1005c000 f i mp5.obj
 0001:0005b060       ?iItemSlot@CMP5@@UAEHXZ    1005c060 f i mp5.obj
 0001:0005b070       ?UseDecrement@CMP5@@UAEHXZ 1005c070 f i mp5.obj
 0001:0005b0fe       ??0CHalfLifeMultiplay@@QAE@XZ 1005c0fe f   multiplay_gamerules.obj
 0001:0005b236       ?ClientCommand@CHalfLifeMultiplay@@UAEHPAVCBasePlayer@@PBD@Z 1005c236 f   multiplay_gamerules.obj
 0001:0005b275       ?RefreshSkillData@CHalfLifeMultiplay@@UAEXXZ 1005c275 f   multiplay_gamerules.obj
 0001:0005b31e       ?Think@CHalfLifeMultiplay@@UAEXXZ 1005c31e f   multiplay_gamerules.obj
 0001:0005b5aa       ?IsMultiplayer@CHalfLifeMultiplay@@UAEHXZ 1005c5aa f   multiplay_gamerules.obj
 0001:0005b5ba       ?IsDeathmatch@CHalfLifeMultiplay@@UAEHXZ 1005c5ba f   multiplay_gamerules.obj
 0001:0005b5ca       ?IsCoOp@CHalfLifeMultiplay@@UAEHXZ 1005c5ca f   multiplay_gamerules.obj
 0001:0005b5e2       ?FShouldSwitchWeapon@CHalfLifeMultiplay@@UAEHPAVCBasePlayer@@PAVCBasePlayerItem@@@Z 1005c5e2 f   multiplay_gamerules.obj
 0001:0005b661       ?GetNextBestWeapon@CHalfLifeMultiplay@@UAEHPAVCBasePlayer@@PAVCBasePlayerItem@@@Z 1005c661 f   multiplay_gamerules.obj
 0001:0005b78b       ?ClientConnected@CHalfLifeMultiplay@@UAEHPAUedict_s@@PBD1QAD@Z 1005c78b f   multiplay_gamerules.obj
 0001:0005b7ab       ?UpdateGameMode@CHalfLifeMultiplay@@UAEXPAVCBasePlayer@@@Z 1005c7ab f   multiplay_gamerules.obj
 0001:0005b7e4       ?InitHUD@CHalfLifeMultiplay@@UAEXPAVCBasePlayer@@@Z 1005c7e4 f   multiplay_gamerules.obj
 0001:0005bac1       ?ClientDisconnected@CHalfLifeMultiplay@@UAEXPAUedict_s@@@Z 1005cac1 f   multiplay_gamerules.obj
 0001:0005bbed       ?FlPlayerFallDamage@CHalfLifeMultiplay@@UAEMPAVCBasePlayer@@@Z 1005cbed f   multiplay_gamerules.obj
 0001:0005bc4d       ?FPlayerCanTakeDamage@CHalfLifeMultiplay@@UAEHPAVCBasePlayer@@PAVCBaseEntity@@@Z 1005cc4d f   multiplay_gamerules.obj
 0001:0005bc5f       ?PlayerThink@CHalfLifeMultiplay@@UAEXPAVCBasePlayer@@@Z 1005cc5f f   multiplay_gamerules.obj
 0001:0005bc92       ?PlayerSpawn@CHalfLifeMultiplay@@UAEXPAVCBasePlayer@@@Z 1005cc92 f   multiplay_gamerules.obj
 0001:0005bd39       ?FPlayerCanRespawn@CHalfLifeMultiplay@@UAEHPAVCBasePlayer@@@Z 1005cd39 f   multiplay_gamerules.obj
 0001:0005bd4b       ?FlPlayerSpawnTime@CHalfLifeMultiplay@@UAEMPAVCBasePlayer@@@Z 1005cd4b f   multiplay_gamerules.obj
 0001:0005bd5f       ?AllowAutoTargetCrosshair@CHalfLifeMultiplay@@UAEHXZ 1005cd5f f   multiplay_gamerules.obj
 0001:0005bd92       ?IPointsForKill@CHalfLifeMultiplay@@UAEHPAVCBasePlayer@@0@Z 1005cd92 f   multiplay_gamerules.obj
 0001:0005bda4       ?PlayerKilled@CHalfLifeMultiplay@@UAEXPAVCBasePlayer@@PAUentvars_s@@1@Z 1005cda4 f   multiplay_gamerules.obj
 0001:0005c04c       ?DeathNotice@CHalfLifeMultiplay@@UAEXPAVCBasePlayer@@PAUentvars_s@@1@Z 1005d04c f   multiplay_gamerules.obj
 0001:0005c62f       ?PlayerGotWeapon@CHalfLifeMultiplay@@UAEXPAVCBasePlayer@@PAVCBasePlayerItem@@@Z 1005d62f f   multiplay_gamerules.obj
 0001:0005c63c       ?FlWeaponRespawnTime@CHalfLifeMultiplay@@UAEMPAVCBasePlayerItem@@@Z 1005d63c f   multiplay_gamerules.obj
 0001:0005c688       ?FlWeaponTryRespawn@CHalfLifeMultiplay@@UAEMPAVCBasePlayerItem@@@Z 1005d688 f   multiplay_gamerules.obj
 0001:0005c6ee       ?VecWeaponRespawnSpot@CHalfLifeMultiplay@@UAE?AVVector@@PAVCBasePlayerItem@@@Z 1005d6ee f   multiplay_gamerules.obj
 0001:0005c710       ?WeaponShouldRespawn@CHalfLifeMultiplay@@UAEHPAVCBasePlayerItem@@@Z 1005d710 f   multiplay_gamerules.obj
 0001:0005c73f       ?CanHavePlayerItem@CHalfLifeMultiplay@@UAEHPAVCBasePlayer@@PAVCBasePlayerItem@@@Z 1005d73f f   multiplay_gamerules.obj
 0001:0005c7df       ?CanHaveItem@CHalfLifeMultiplay@@UAEHPAVCBasePlayer@@PAVCItem@@@Z 1005d7df f   multiplay_gamerules.obj
 0001:0005c7f1       ?PlayerGotItem@CHalfLifeMultiplay@@UAEXPAVCBasePlayer@@PAVCItem@@@Z 1005d7f1 f   multiplay_gamerules.obj
 0001:0005c7fe       ?ItemShouldRespawn@CHalfLifeMultiplay@@UAEHPAVCItem@@@Z 1005d7fe f   multiplay_gamerules.obj
 0001:0005c82d       ?FlItemRespawnTime@CHalfLifeMultiplay@@UAEMPAVCItem@@@Z 1005d82d f   multiplay_gamerules.obj
 0001:0005c847       ?VecItemRespawnSpot@CHalfLifeMultiplay@@UAE?AVVector@@PAVCItem@@@Z 1005d847 f   multiplay_gamerules.obj
 0001:0005c869       ?PlayerGotAmmo@CHalfLifeMultiplay@@UAEXPAVCBasePlayer@@PADH@Z 1005d869 f   multiplay_gamerules.obj
 0001:0005c876       ?IsAllowedToSpawn@CHalfLifeMultiplay@@UAEHPAVCBaseEntity@@@Z 1005d876 f   multiplay_gamerules.obj
 0001:0005c888       ?AmmoShouldRespawn@CHalfLifeMultiplay@@UAEHPAVCBasePlayerAmmo@@@Z 1005d888 f   multiplay_gamerules.obj
 0001:0005c8b7       ?FlAmmoRespawnTime@CHalfLifeMultiplay@@UAEMPAVCBasePlayerAmmo@@@Z 1005d8b7 f   multiplay_gamerules.obj
 0001:0005c8d1       ?VecAmmoRespawnSpot@CHalfLifeMultiplay@@UAE?AVVector@@PAVCBasePlayerAmmo@@@Z 1005d8d1 f   multiplay_gamerules.obj
 0001:0005c8f3       ?FlHealthChargerRechargeTime@CHalfLifeMultiplay@@UAEMXZ 1005d8f3 f   multiplay_gamerules.obj
 0001:0005c904       ?FlHEVChargerRechargeTime@CHalfLifeMultiplay@@UAEMXZ 1005d904 f   multiplay_gamerules.obj
 0001:0005c915       ?DeadPlayerWeapons@CHalfLifeMultiplay@@UAEHPAVCBasePlayer@@@Z 1005d915 f   multiplay_gamerules.obj
 0001:0005c927       ?DeadPlayerAmmo@CHalfLifeMultiplay@@UAEHPAVCBasePlayer@@@Z 1005d927 f   multiplay_gamerules.obj
 0001:0005c939       ?GetPlayerSpawnSpot@CHalfLifeMultiplay@@UAEPAUedict_s@@PAVCBasePlayer@@@Z 1005d939 f   multiplay_gamerules.obj
 0001:0005c99e       ?PlayerRelationship@CHalfLifeMultiplay@@UAEHPAVCBaseEntity@@0@Z 1005d99e f   multiplay_gamerules.obj
 0001:0005c9ad       ?PlayFootstepSounds@CHalfLifeMultiplay@@UAEHPAVCBasePlayer@@M@Z 1005d9ad f   multiplay_gamerules.obj
 0001:0005ca0c       ?FAllowFlashlight@CHalfLifeMultiplay@@UAEHXZ 1005da0c f   multiplay_gamerules.obj
 0001:0005ca3f       ?FAllowMonsters@CHalfLifeMultiplay@@UAEHXZ 1005da3f f   multiplay_gamerules.obj
 0001:0005ca72       ?GoToIntermission@CHalfLifeMultiplay@@MAEXXZ 1005da72 f   multiplay_gamerules.obj
 0001:0005cb32       ?DestroyMapCycle@@YAXPAUmapcycle_s@@@Z 1005db32 f   multiplay_gamerules.obj
 0001:0005cba9       ?COM_Parse@@YAPADPAD@Z     1005dba9 f   multiplay_gamerules.obj
 0001:0005cd33       ?COM_TokenWaiting@@YAHPAD@Z 1005dd33 f   multiplay_gamerules.obj
 0001:0005cd90       ?ReloadMapCycleFile@@YAHPADPAUmapcycle_s@@@Z 1005dd90 f   multiplay_gamerules.obj
 0001:0005d209       ?CountPlayers@@YAHXZ       1005e209 f   multiplay_gamerules.obj
 0001:0005d260       ?ExtractCommandString@@YAXPAD0@Z 1005e260 f   multiplay_gamerules.obj
 0001:0005d3c2       ?ChangeLevel@CHalfLifeMultiplay@@MAEXXZ 1005e3c2 f   multiplay_gamerules.obj
 0001:0005d735       ?SendMOTDToClient@CHalfLifeMultiplay@@IAEXPAUedict_s@@@Z 1005e735 f   multiplay_gamerules.obj
 0001:0005d890       ??1CMultiplayGameMgrHelper@@UAE@XZ 1005e890 f i multiplay_gamerules.obj
 0001:0005d8b0       ??0CMultiplayGameMgrHelper@@QAE@XZ 1005e8b0 f i multiplay_gamerules.obj
 0001:0005d8d0       ?CanPlayerHearPlayer@CMultiplayGameMgrHelper@@UAE_NPAVCBasePlayer@@0@Z 1005e8d0 f i multiplay_gamerules.obj
 0001:0005d910       ??_ECMultiplayGameMgrHelper@@UAEPAXI@Z 1005e910 f i multiplay_gamerules.obj
 0001:0005d910       ??_GCMultiplayGameMgrHelper@@UAEPAXI@Z 1005e910 f i multiplay_gamerules.obj
 0001:0005d940       ??0IVoiceGameMgrHelper@@QAE@XZ 1005e940 f i multiplay_gamerules.obj
 0001:0005d960       ??0CGameRules@@QAE@XZ      1005e960 f i multiplay_gamerules.obj
 0001:0005d980       ?pszName@CBasePlayerItem@@QAEPBDXZ 1005e980 f i multiplay_gamerules.obj
 0001:0005d9a0       ?iWeight@CBasePlayerItem@@QAEHXZ 1005e9a0 f i multiplay_gamerules.obj
 0001:0005d9c0       ?iFlags@CBasePlayerItem@@QAEHXZ 1005e9c0 f i multiplay_gamerules.obj
 0001:0005d9e0       ?IsTeamplay@CGameRules@@UAEHXZ 1005e9e0 f i multiplay_gamerules.obj
 0001:0005d9f0       ?GetGameDescription@CGameRules@@UAEPBDXZ 1005e9f0 f i multiplay_gamerules.obj
 0001:0005da00       ?UpdateGameMode@CGameRules@@UAEXPAVCBasePlayer@@@Z 1005ea00 f i multiplay_gamerules.obj
 0001:0005da10       ?FPlayerCanTakeDamage@CGameRules@@UAEHPAVCBasePlayer@@PAVCBaseEntity@@@Z 1005ea10 f i multiplay_gamerules.obj
 0001:0005da30       ?ShouldAutoAim@CGameRules@@UAEHPAVCBasePlayer@@PAUedict_s@@@Z 1005ea30 f i multiplay_gamerules.obj
 0001:0005da50       ?AllowAutoTargetCrosshair@CGameRules@@UAEHXZ 1005ea50 f i multiplay_gamerules.obj
 0001:0005da60       ?ClientCommand@CGameRules@@UAEHPAVCBasePlayer@@PBD@Z 1005ea60 f i multiplay_gamerules.obj
 0001:0005da70       ?ClientUserInfoChanged@CGameRules@@UAEXPAVCBasePlayer@@PAD@Z 1005ea70 f i multiplay_gamerules.obj
 0001:0005da80       ?FlHEVChargerRechargeTime@CGameRules@@UAEMXZ 1005ea80 f i multiplay_gamerules.obj
 0001:0005daa0       ?GetTeamIndex@CGameRules@@UAEHPBD@Z 1005eaa0 f i multiplay_gamerules.obj
 0001:0005dab0       ?GetIndexedTeamName@CGameRules@@UAEPBDH@Z 1005eab0 f i multiplay_gamerules.obj
 0001:0005dad0       ?IsValidTeam@CGameRules@@UAEHPBD@Z 1005ead0 f i multiplay_gamerules.obj
 0001:0005daf0       ?ChangePlayerTeam@CGameRules@@UAEXPAVCBasePlayer@@PBDHH@Z 1005eaf0 f i multiplay_gamerules.obj
 0001:0005db00       ?SetDefaultPlayerTeam@CGameRules@@UAEPBDPAVCBasePlayer@@@Z 1005eb00 f i multiplay_gamerules.obj
 0001:0005db20       ?PlayTextureSounds@CGameRules@@UAEHXZ 1005eb20 f i multiplay_gamerules.obj
 0001:0005db30       ?PlayFootstepSounds@CGameRules@@UAEHPAVCBasePlayer@@M@Z 1005eb30 f i multiplay_gamerules.obj
 0001:0005db50       ?EndMultiplayerGame@CGameRules@@UAEXXZ 1005eb50 f i multiplay_gamerules.obj
 0001:0005db60       ?GetTeamID@CHalfLifeMultiplay@@UAEPBDPAVCBaseEntity@@@Z 1005eb60 f i multiplay_gamerules.obj
 0001:0005db80       ?PlayTextureSounds@CHalfLifeMultiplay@@UAEHXZ 1005eb80 f i multiplay_gamerules.obj
 0001:0005db90       ?EndMultiplayerGame@CHalfLifeMultiplay@@UAEXXZ 1005eb90 f i multiplay_gamerules.obj
 0001:0005dbb0       ??1IVoiceGameMgrHelper@@UAE@XZ 1005ebb0 f i multiplay_gamerules.obj
 0001:0005dbd0       ??_GIVoiceGameMgrHelper@@UAEPAXI@Z 1005ebd0 f i multiplay_gamerules.obj
 0001:0005dbd0       ??_EIVoiceGameMgrHelper@@UAEPAXI@Z 1005ebd0 f i multiplay_gamerules.obj
 0001:0005dc00       _monster_nihilanth         1005ec00 f   nihilanth.obj
 0001:0005dc11       ?Save@CNihilanth@@UAEHAAVCSave@@@Z 1005ec11 f   nihilanth.obj
 0001:0005dc4a       ?Restore@CNihilanth@@UAEHAAVCRestore@@@Z 1005ec4a f   nihilanth.obj
 0001:0005dc83       _nihilanth_energy_ball     1005ec83 f   nihilanth.obj
 0001:0005dc94       ?Save@CNihilanthHVR@@UAEHAAVCSave@@@Z 1005ec94 f   nihilanth.obj
 0001:0005dccd       ?Restore@CNihilanthHVR@@UAEHAAVCRestore@@@Z 1005eccd f   nihilanth.obj
 0001:0005dd06       ?Spawn@CNihilanth@@UAEXXZ  1005ed06 f   nihilanth.obj
 0001:0005dfc3       ?Precache@CNihilanth@@UAEXXZ 1005efc3 f   nihilanth.obj
 0001:0005e163       ?PainSound@CNihilanth@@UAEXXZ 1005f163 f   nihilanth.obj
 0001:0005e240       ?DeathSound@CNihilanth@@UAEXXZ 1005f240 f   nihilanth.obj
 0001:0005e27d       ?NullThink@CNihilanth@@QAEXXZ 1005f27d f   nihilanth.obj
 0001:0005e2b2       ?StartupUse@CNihilanth@@QAEXPAVCBaseEntity@@0W4USE_TYPE@@M@Z 1005f2b2 f   nihilanth.obj
 0001:0005e2f2       ?StartupThink@CNihilanth@@QAEXXZ 1005f2f2 f   nihilanth.obj
 0001:0005e400       ?Killed@CNihilanth@@UAEXPAUentvars_s@@H@Z 1005f400 f   nihilanth.obj
 0001:0005e41d       ?DyingThink@CNihilanth@@QAEXXZ 1005f41d f   nihilanth.obj
 0001:0005ebfe       ?CrashTouch@CNihilanth@@QAEXPAVCBaseEntity@@@Z 1005fbfe f   nihilanth.obj
 0001:0005ec38       ?GibMonster@CNihilanth@@UAEXXZ 1005fc38 f   nihilanth.obj
 0001:0005ec43       ?FloatSequence@CNihilanth@@QAEXXZ 1005fc43 f   nihilanth.obj
 0001:0005ed58       ?ShootBalls@CNihilanth@@QAEXXZ 1005fd58 f   nihilanth.obj
 0001:0005f0e0       ?MakeFriend@CNihilanth@@QAEXVVector@@@Z 100600e0 f   nihilanth.obj
 0001:0005f3ff       ?NextActivity@CNihilanth@@QAEXXZ 100603ff f   nihilanth.obj
 0001:0005fc73       ?HuntThink@CNihilanth@@QAEXXZ 10060c73 f   nihilanth.obj
 0001:0005ff9c       ?Flight@CNihilanth@@QAEXXZ 10060f9c f   nihilanth.obj
 0001:000604ae       ?AbsorbSphere@CNihilanth@@QAEHXZ 100614ae f   nihilanth.obj
 0001:0006053a       ?EmitSphere@CNihilanth@@QAEHXZ 1006153a f   nihilanth.obj
 0001:00060655       ?TargetSphere@CNihilanth@@QAEXW4USE_TYPE@@M@Z 10061655 f   nihilanth.obj
 0001:000607c0       ?HandleAnimEvent@CNihilanth@@UAEXPAUMonsterEvent_t@@@Z 100617c0 f   nihilanth.obj
 0001:00060ec3       ?CommandUse@CNihilanth@@QAEXPAVCBaseEntity@@0W4USE_TYPE@@M@Z 10061ec3 f   nihilanth.obj
 0001:00060f4d       ?TakeDamage@CNihilanth@@UAEHPAUentvars_s@@0MH@Z 10061f4d f   nihilanth.obj
 0001:00060fd2       ?TraceAttack@CNihilanth@@UAEXPAUentvars_s@@MVVector@@PAUTraceResult@@H@Z 10061fd2 f   nihilanth.obj
 0001:000610c3       ?RandomTargetname@CNihilanth@@QAEPAVCBaseEntity@@PBD@Z 100620c3 f   nihilanth.obj
 0001:0006112b       ?Spawn@CNihilanthHVR@@UAEXXZ 1006212b f   nihilanth.obj
 0001:00061171       ?Precache@CNihilanthHVR@@UAEXXZ 10062171 f   nihilanth.obj
 0001:00061208       ?CircleInit@CNihilanthHVR@@QAEXPAVCBaseEntity@@@Z 10062208 f   nihilanth.obj
 0001:00061334       ?RandomClassname@CNihilanthHVR@@QAEPAVCBaseEntity@@PBD@Z 10062334 f   nihilanth.obj
 0001:0006139c       ?HoverThink@CNihilanthHVR@@QAEXXZ 1006239c f   nihilanth.obj
 0001:00061464       ?ZapInit@CNihilanthHVR@@QAEXPAVCBaseEntity@@@Z 10062464 f   nihilanth.obj
 0001:000615a3       ?ZapThink@CNihilanthHVR@@QAEXXZ 100625a3 f   nihilanth.obj
 0001:00061a37       ?ZapTouch@CNihilanthHVR@@QAEXPAVCBaseEntity@@@Z 10062a37 f   nihilanth.obj
 0001:00061b01       ?TeleportInit@CNihilanthHVR@@QAEXPAVCNihilanth@@PAVCBaseEntity@@11@Z 10062b01 f   nihilanth.obj
 0001:00061c27       ?GreenBallInit@CNihilanthHVR@@QAEXXZ 10062c27 f   nihilanth.obj
 0001:00061cb3       ?TeleportThink@CNihilanthHVR@@QAEXXZ 10062cb3 f   nihilanth.obj
 0001:00062002       ?AbsorbInit@CNihilanthHVR@@QAEXXZ 10063002 f   nihilanth.obj
 0001:00062106       ?TeleportTouch@CNihilanthHVR@@QAEXPAVCBaseEntity@@@Z 10063106 f   nihilanth.obj
 0001:000621fd       ?DissipateThink@CNihilanthHVR@@QAEXXZ 100631fd f   nihilanth.obj
 0001:000623a8       ?CircleTarget@CNihilanthHVR@@QAEHVVector@@@Z 100633a8 f   nihilanth.obj
 0001:000627d6       ?MovetoTarget@CNihilanthHVR@@QAEXVVector@@@Z 100637d6 f   nihilanth.obj
 0001:00062903       ?Crawl@CNihilanthHVR@@UAEXXZ 10063903 f   nihilanth.obj
 0001:00062aa0       ?RemoveTouch@CNihilanthHVR@@QAEXPAVCBaseEntity@@@Z 10063aa0 f   nihilanth.obj
 0001:00062ad1       ?BounceTouch@CNihilanthHVR@@QAEXPAVCBaseEntity@@@Z 10063ad1 f   nihilanth.obj
 0001:00062bc0       ?GetClassPtr@@YAPAVCNihilanth@@PAV1@@Z 10063bc0 f i nihilanth.obj
 0001:00062c50       ?GetClassPtr@@YAPAVCNihilanthHVR@@PAV1@@Z 10063c50 f i nihilanth.obj
 0001:00062ce0       ??0CNihilanth@@QAE@XZ      10063ce0 f i nihilanth.obj
 0001:00062d70       ?Classify@CNihilanth@@UAEHXZ 10063d70 f i nihilanth.obj
 0001:00062d80       ?BloodColor@CNihilanth@@UAEHXZ 10063d80 f i nihilanth.obj
 0001:00062d90       ?SetObjectCollisionBox@CNihilanth@@UAEXXZ 10063d90 f i nihilanth.obj
 0001:00062e30       ??0CNihilanthHVR@@QAE@XZ   10063e30 f i nihilanth.obj
 0001:00062e79       _info_node                 10063e79 f   nodes.obj
 0001:00062e8a       _info_node_air             10063e8a f   nodes.obj
 0001:00062e9b       ?InitGraph@CGraph@@QAEXXZ  10063e9b f   nodes.obj
 0001:00062fae       ?AllocNodes@CGraph@@QAEHXZ 10063fae f   nodes.obj
 0001:00062ff5       ?LinkEntForLink@CGraph@@QAEPAUentvars_s@@PAVCLink@@PAVCNode@@@Z 10063ff5 f   nodes.obj
 0001:0006316f       ?HandleLinkEnt@CGraph@@QAEHHPAUentvars_s@@HW4NODEQUERY@1@@Z 1006416f f   nodes.obj
 0001:00063312       ?HullIndex@CGraph@@QAEHPBVCBaseEntity@@@Z 10064312 f   nodes.obj
 0001:000633cf       ?NodeType@CGraph@@QAEHPBVCBaseEntity@@@Z 100643cf f   nodes.obj
 0001:0006340d       ?PathLength@CGraph@@QAEMHHHH@Z 1006440d f   nodes.obj
 0001:00063506       ?NextNodeInRoute@CGraph@@QAEHHHHH@Z 10064506 f   nodes.obj
 0001:00063608       ?FindShortestPath@CGraph@@QAEHPAHHHHH@Z 10064608 f   nodes.obj
 0001:00063aa1       ?CheckNode@CGraph@@QAEXVVector@@H@Z 10064aa1 f   nodes.obj
 0001:00063dff       ?FindNearestNode@CGraph@@QAEHABVVector@@PAVCBaseEntity@@@Z 10064dff f   nodes.obj
 0001:00063e25       ?FindNearestNode@CGraph@@QAEHABVVector@@H@Z 10064e25 f   nodes.obj
 0001:00064a46       ?ShowNodeConnections@CGraph@@QAEXH@Z 10065a46 f   nodes.obj
 0001:00064be4       ?LinkVisibleNodes@CGraph@@QAEHPAVCLink@@PAU_iobuf@@PAH@Z 10065be4 f   nodes.obj
 0001:000650a2       ?RejectInlineLinks@CGraph@@QAEHPAVCLink@@PAU_iobuf@@@Z 100660a2 f   nodes.obj
 0001:00065399       _testhull                  10066399 f   nodes.obj
 0001:000653aa       ?Spawn@CTestHull@@QAEXPAUentvars_s@@@Z 100663aa f   nodes.obj
 0001:000654d0       ?DropDelay@CTestHull@@QAEXXZ 100664d0 f   nodes.obj
 0001:00065532       ?KeyValue@CNodeEnt@@EAEXPAUKeyValueData_s@@@Z 10066532 f   nodes.obj
 0001:000655bd       ?Spawn@CNodeEnt@@EAEXXZ    100665bd f   nodes.obj
 0001:00065761       ?ShowBadNode@CTestHull@@QAEXXZ 10066761 f   nodes.obj
 0001:000658df       ?CallBuildNodeGraph@CTestHull@@QAEXXZ 100668df f   nodes.obj
 0001:00065906       ?BuildNodeGraph@CTestHull@@QAEXXZ 10066906 f   nodes.obj
 0001:00066caf       ?PathFind@CTestHull@@QAEXXZ 10067caf f   nodes.obj
 0001:00066e1c       ??0CStack@@QAE@XZ          10067e1c f   nodes.obj
 0001:00066e37       ?Push@CStack@@QAEXH@Z      10067e37 f   nodes.obj
 0001:00066e86       ?Pop@CStack@@QAEHXZ        10067e86 f   nodes.obj
 0001:00066ec6       ?Top@CStack@@QAEHXZ        10067ec6 f   nodes.obj
 0001:00066ee1       ?CopyToArray@CStack@@QAEXPAH@Z 10067ee1 f   nodes.obj
 0001:00066f26       ??0CQueue@@QAE@XZ          10067f26 f   nodes.obj
 0001:00066f57       ?Insert@CQueue@@QAEXHM@Z   10067f57 f   nodes.obj
 0001:00066fe0       ?Remove@CQueue@@QAEHAAM@Z  10067fe0 f   nodes.obj
 0001:0006704d       ??0CQueuePriority@@QAE@XZ  1006804d f   nodes.obj
 0001:00067064       ?Insert@CQueuePriority@@QAEXHM@Z 10068064 f   nodes.obj
 0001:000670bf       ?Remove@CQueuePriority@@QAEHAAM@Z 100680bf f   nodes.obj
 0001:00067115       ?Heap_SiftDown@CQueuePriority@@AAEXH@Z 10068115 f   nodes.obj
 0001:000671e4       ?Heap_SiftUp@CQueuePriority@@AAEXXZ 100681e4 f   nodes.obj
 0001:0006727b       ?FLoadGraph@CGraph@@QAEHPAD@Z 1006827b f   nodes.obj
 0001:000678bd       ?FSaveGraph@CGraph@@QAEHPAD@Z 100688bd f   nodes.obj
 0001:00067b33       ?FSetGraphPointers@CGraph@@QAEHXZ 10068b33 f   nodes.obj
 0001:00067c6d       ?CheckNODFile@CGraph@@QAEHPAD@Z 10068c6d f   nodes.obj
 0001:00067d4d       ?HashInsert@CGraph@@QAEXHHH@Z 10068d4d f   nodes.obj
 0001:00067e14       ?HashSearch@CGraph@@QAEXHHAAH@Z 10068e14 f   nodes.obj
 0001:00067f0f       ?HashChoosePrimes@CGraph@@QAEXH@Z 10068f0f f   nodes.obj
 0001:000680d5       ?SortNodes@CGraph@@QAEXXZ  100690d5 f   nodes.obj
 0001:00068329       ?BuildLinkLookups@CGraph@@QAEXXZ 10069329 f   nodes.obj
 0001:00068418       ?BuildRegionTables@CGraph@@QAEXXZ 10069418 f   nodes.obj
 0001:00068b5b       ?ComputeStaticRoutingTables@CGraph@@QAEXXZ 10069b5b f   nodes.obj
 0001:0006949d       ?TestRoutingTables@CGraph@@QAEXXZ 1006a49d f   nodes.obj
 0001:00069969       _node_viewer               1006a969 f   nodes.obj
 0001:0006997a       _node_viewer_human         1006a97a f   nodes.obj
 0001:0006998b       _node_viewer_fly           1006a98b f   nodes.obj
 0001:0006999c       _node_viewer_large         1006a99c f   nodes.obj
 0001:000699ad       ?Spawn@CNodeViewer@@UAEXXZ 1006a9ad f   nodes.obj
 0001:00069c70       ?FindNodeConnections@CNodeViewer@@QAEXH@Z 1006ac70 f   nodes.obj
 0001:00069d1f       ?AddNode@CNodeViewer@@QAEXHH@Z 1006ad1f f   nodes.obj
 0001:00069de3       ?DrawThink@CNodeViewer@@QAEXXZ 1006ade3 f   nodes.obj
 0001:0006a010       ??0CGraph@@QAE@XZ          1006b010 f i nodes.obj
 0001:0006a040       ??0CACHE_ENTRY@@QAE@XZ     1006b040 f i nodes.obj
 0001:0006a060       ?CALC_RANGE@@YAHHHH@Z      1006b060 f i nodes.obj
 0001:0006a080       ?UpdateRange@@YAXAAH0HH@Z  1006b080 f i nodes.obj
 0001:0006a0d0       ?CalcBounds@@YAXAAH0HH@Z   1006b0d0 f i nodes.obj
 0001:0006a140       ?Hash@@YAKPAXH@Z           1006b140 f i nodes.obj
 0001:0006a180       ?FIND_ENTITY_BY_TARGET@@YAPAUedict_s@@PAU1@PBD@Z 1006b180 f i nodes.obj
 0001:0006a1a0       ?CapIndex@CGraph@@QAEHH@Z  1006b1a0 f i nodes.obj
 0001:0006a1d0       ?VARS@@YAPAUentvars_s@@PAU1@@Z 1006b1d0 f i nodes.obj
 0001:0006a1e0       ?UTIL_CenterPrintAll@@YAXPBD0000@Z 1006b1e0 f i nodes.obj
 0001:0006a210       ?Link@CGraph@@QAEAAVCLink@@H@Z 1006b210 f i nodes.obj
 0001:0006a230       ?NodeLink@CGraph@@QAEAAVCLink@@HH@Z 1006b230 f i nodes.obj
 0001:0006a260       ?INodeLink@CGraph@@QAEHHH@Z 1006b260 f i nodes.obj
 0001:0006a280       ?Empty@CQueuePriority@@QAEHXZ 1006b280 f i nodes.obj
 0001:0006a2a0       ?Full@CQueue@@QAEHXZ       1006b2a0 f i nodes.obj
 0001:0006a2c0       ?Full@CQueuePriority@@QAEHXZ 1006b2c0 f i nodes.obj
 0001:0006a2e0       ??0CNode@@QAE@ABV0@@Z      1006b2e0 f i nodes.obj
 0001:0006a3b0       ?GetClassPtr@@YAPAVCNodeEnt@@PAV1@@Z 1006b3b0 f i nodes.obj
 0001:0006a440       ?GetClassPtr@@YAPAVCTestHull@@PAV1@@Z 1006b440 f i nodes.obj
 0001:0006a4d0       ?GetClassPtr@@YAPAVCNodeViewer@@PAV1@@Z 1006b4d0 f i nodes.obj
 0001:0006a560       ??0CNodeEnt@@QAE@XZ        1006b560 f i nodes.obj
 0001:0006a580       ?ObjectCaps@CNodeEnt@@EAEHXZ 1006b580 f i nodes.obj
 0001:0006a5a0       ??0CTestHull@@QAE@XZ       1006b5a0 f i nodes.obj
 0001:0006a5d0       ?ObjectCaps@CTestHull@@UAEHXZ 1006b5d0 f i nodes.obj
 0001:0006a5f0       ??0CNodeViewer@@QAE@XZ     1006b5f0 f i nodes.obj
 0001:0006a620       _monster_osprey            1006b620 f   osprey.obj
 0001:0006a631       ?Save@COsprey@@UAEHAAVCSave@@@Z 1006b631 f   osprey.obj
 0001:0006a66a       ?Restore@COsprey@@UAEHAAVCRestore@@@Z 1006b66a f   osprey.obj
 0001:0006a6a3       ?Spawn@COsprey@@UAEXXZ     1006b6a3 f   osprey.obj
 0001:0006a89d       ?Precache@COsprey@@UAEXXZ  1006b89d f   osprey.obj
 0001:0006a960       ?CommandUse@COsprey@@QAEXPAVCBaseEntity@@0W4USE_TYPE@@M@Z 1006b960 f   osprey.obj
 0001:0006a98b       ?FindAllThink@COsprey@@QAEXXZ 1006b98b f   osprey.obj
 0001:0006aaae       ?DeployThink@COsprey@@QAEXXZ 1006baae f   osprey.obj
 0001:0006ae75       ?HasDead@COsprey@@QAEHXZ   1006be75 f   osprey.obj
 0001:0006af29       ?MakeGrunt@COsprey@@QAEPAVCBaseMonster@@VVector@@@Z 1006bf29 f   osprey.obj
 0001:0006b1fd       ?HoverThink@COsprey@@QAEXXZ 1006c1fd f   osprey.obj
 0001:0006b2e0       ?UpdateGoal@COsprey@@QAEXXZ 1006c2e0 f   osprey.obj
 0001:0006b53a       ?FlyThink@COsprey@@QAEXXZ  1006c53a f   osprey.obj
 0001:0006b69c       ?Flight@COsprey@@QAEXXZ    1006c69c f   osprey.obj
 0001:0006bb63       ?HitTouch@COsprey@@QAEXPAVCBaseEntity@@@Z 1006cb63 f   osprey.obj
 0001:0006bb8e       ?Killed@COsprey@@UAEXPAUentvars_s@@H@Z 1006cb8e f   osprey.obj
 0001:0006bcf1       ?CrashTouch@COsprey@@QAEXPAVCBaseEntity@@@Z 1006ccf1 f   osprey.obj
 0001:0006bd5d       ?DyingThink@COsprey@@QAEXXZ 1006cd5d f   osprey.obj
 0001:0006c5c0       ?ShowDamage@COsprey@@QAEXXZ 1006d5c0 f   osprey.obj
 0001:0006c7e5       ?TraceAttack@COsprey@@UAEXPAUentvars_s@@MVVector@@PAUTraceResult@@H@Z 1006d7e5 f   osprey.obj
 0001:0006c900       ?GetClassPtr@@YAPAVCOsprey@@PAV1@@Z 1006d900 f i osprey.obj
 0001:0006c990       ??0COsprey@@QAE@XZ         1006d990 f i osprey.obj
 0001:0006ca30       ?ObjectCaps@COsprey@@UAEHXZ 1006da30 f i osprey.obj
 0001:0006ca50       ?Classify@COsprey@@UAEHXZ  1006da50 f i osprey.obj
 0001:0006ca60       ?BloodColor@COsprey@@UAEHXZ 1006da60 f i osprey.obj
 0001:0006ca70       _path_corner               1006da70 f   pathcorner.obj
 0001:0006ca81       ?Save@CPathCorner@@UAEHAAVCSave@@@Z 1006da81 f   pathcorner.obj
 0001:0006caba       ?Restore@CPathCorner@@UAEHAAVCRestore@@@Z 1006daba f   pathcorner.obj
 0001:0006caf3       ?KeyValue@CPathCorner@@UAEXPAUKeyValueData_s@@@Z 1006daf3 f   pathcorner.obj
 0001:0006cb45       ?Spawn@CPathCorner@@UAEXXZ 1006db45 f   pathcorner.obj
 0001:0006cb50       ?Save@CPathTrack@@UAEHAAVCSave@@@Z 1006db50 f   pathcorner.obj
 0001:0006cb89       ?Restore@CPathTrack@@UAEHAAVCRestore@@@Z 1006db89 f   pathcorner.obj
 0001:0006cbc2       _path_track                1006dbc2 f   pathcorner.obj
 0001:0006cbd3       ?KeyValue@CPathTrack@@UAEXPAUKeyValueData_s@@@Z 1006dbd3 f   pathcorner.obj
 0001:0006cc26       ?Use@CPathTrack@@UAEXPAVCBaseEntity@@0W4USE_TYPE@@M@Z 1006dc26 f   pathcorner.obj
 0001:0006cd14       ?Link@CPathTrack@@QAEXXZ   1006dd14 f   pathcorner.obj
 0001:0006ce2c       ?Spawn@CPathTrack@@UAEXXZ  1006de2c f   pathcorner.obj
 0001:0006ce9c       ?Activate@CPathTrack@@UAEXXZ 1006de9c f   pathcorner.obj
 0001:0006cec8       ?ValidPath@CPathTrack@@QAEPAV1@PAV1@H@Z 1006dec8 f   pathcorner.obj
 0001:0006ceff       ?Project@CPathTrack@@QAEXPAV1@0PAVVector@@M@Z 1006deff f   pathcorner.obj
 0001:0006cf92       ?GetNext@CPathTrack@@QAEPAV1@XZ 1006df92 f   pathcorner.obj
 0001:0006cfdc       ?GetPrevious@CPathTrack@@QAEPAV1@XZ 1006dfdc f   pathcorner.obj
 0001:0006d026       ?SetPrevious@CPathTrack@@QAEXPAV1@@Z 1006e026 f   pathcorner.obj
 0001:0006d079       ?LookAhead@CPathTrack@@QAEPAV1@PAVVector@@MH@Z 1006e079 f   pathcorner.obj
 0001:0006d3ab       ?Nearest@CPathTrack@@QAEPAV1@VVector@@@Z 1006e3ab f   pathcorner.obj
 0001:0006d4cc       ?Instance@CPathTrack@@SAPAV1@PAUedict_s@@@Z 1006e4cc f   pathcorner.obj
 0001:0006d500       ?GetClassPtr@@YAPAVCPathCorner@@PAV1@@Z 1006e500 f i pathcorner.obj
 0001:0006d590       ?GetClassPtr@@YAPAVCPathTrack@@PAV1@@Z 1006e590 f i pathcorner.obj
 0001:0006d620       ??0CPathCorner@@QAE@XZ     1006e620 f i pathcorner.obj
 0001:0006d640       ?GetDelay@CPathCorner@@UAEMXZ 1006e640 f i pathcorner.obj
 0001:0006d660       ??0CPathTrack@@QAE@XZ      1006e660 f i pathcorner.obj
 0001:0006d680       ??0CPlane@@QAE@XZ          1006e680 f   plane.obj
 0001:0006d6a0       ?InitializePlane@CPlane@@QAEXABVVector@@0@Z 1006e6a0 f   plane.obj
 0001:0006d6e3       ?PointInFront@CPlane@@QAEHABVVector@@@Z 1006e6e3 f   plane.obj
 0001:0006d740       ?Save@CBasePlatTrain@@UAEHAAVCSave@@@Z 1006e740 f   plats.obj
 0001:0006d779       ?Restore@CBasePlatTrain@@UAEHAAVCRestore@@@Z 1006e779 f   plats.obj
 0001:0006d7b2       ?KeyValue@CBasePlatTrain@@UAEXPAUKeyValueData_s@@@Z 1006e7b2 f   plats.obj
 0001:0006d985       ?Precache@CBasePlatTrain@@UAEXXZ 1006e985 f   plats.obj
 0001:0006de85       _func_plat                 1006ee85 f   plats.obj
 0001:0006de96       ?Setup@CFuncPlat@@QAEXXZ   1006ee96 f   plats.obj
 0001:0006e082       ?Precache@CFuncPlat@@UAEXXZ 1006f082 f   plats.obj
 0001:0006e0b6       ?Spawn@CFuncPlat@@UAEXXZ   1006f0b6 f   plats.obj
 0001:0006e161       ?SpawnInsideTrigger@CPlatTrigger@@QAEXPAVCFuncPlat@@@Z 1006f161 f   plats.obj
 0001:0006e2fd       ?Touch@CPlatTrigger@@UAEXPAVCBaseEntity@@@Z 1006f2fd f   plats.obj
 0001:0006e392       ?PlatUse@CFuncPlat@@QAEXPAVCBaseEntity@@0W4USE_TYPE@@M@Z 1006f392 f   plats.obj
 0001:0006e42b       ?GoDown@CFuncPlat@@UAEXXZ  1006f42b f   plats.obj
 0001:0006e4c7       ?HitBottom@CFuncPlat@@UAEXXZ 1006f4c7 f   plats.obj
 0001:0006e56f       ?GoUp@CFuncPlat@@UAEXXZ    1006f56f f   plats.obj
 0001:0006e60b       ?HitTop@CFuncPlat@@UAEXXZ  1006f60b f   plats.obj
 0001:0006e6ed       ?Blocked@CFuncPlat@@UAEXPAVCBaseEntity@@@Z 1006f6ed f   plats.obj
 0001:0006e7c5       _func_platrot              1006f7c5 f   plats.obj
 0001:0006e7d6       ?Save@CFuncPlatRot@@UAEHAAVCSave@@@Z 1006f7d6 f   plats.obj
 0001:0006e80f       ?Restore@CFuncPlatRot@@UAEHAAVCRestore@@@Z 1006f80f f   plats.obj
 0001:0006e848       ?SetupRotation@CFuncPlatRot@@QAEXXZ 1006f848 f   plats.obj
 0001:0006e965       ?Spawn@CFuncPlatRot@@UAEXXZ 1006f965 f   plats.obj
 0001:0006e980       ?GoDown@CFuncPlatRot@@UAEXXZ 1006f980 f   plats.obj
 0001:0006e9c1       ?HitBottom@CFuncPlatRot@@UAEXXZ 1006f9c1 f   plats.obj
 0001:0006ea17       ?GoUp@CFuncPlatRot@@UAEXXZ 1006fa17 f   plats.obj
 0001:0006ea58       ?HitTop@CFuncPlatRot@@UAEXXZ 1006fa58 f   plats.obj
 0001:0006eaae       ?RotMove@CFuncPlatRot@@QAEXAAVVector@@M@Z 1006faae f   plats.obj
 0001:0006eb4f       _func_train                1006fb4f f   plats.obj
 0001:0006eb60       ?Save@CFuncTrain@@UAEHAAVCSave@@@Z 1006fb60 f   plats.obj
 0001:0006eb99       ?Restore@CFuncTrain@@UAEHAAVCRestore@@@Z 1006fb99 f   plats.obj
 0001:0006ebd2       ?KeyValue@CFuncTrain@@UAEXPAUKeyValueData_s@@@Z 1006fbd2 f   plats.obj
 0001:0006ec27       ?Blocked@CFuncTrain@@UAEXPAVCBaseEntity@@@Z 1006fc27 f   plats.obj
 0001:0006ec86       ?Use@CFuncTrain@@UAEXPAVCBaseEntity@@0W4USE_TYPE@@M@Z 1006fc86 f   plats.obj
 0001:0006ed9a       ?Wait@CFuncTrain@@QAEXXZ   1006fd9a f   plats.obj
 0001:0006efca       ?Next@CFuncTrain@@QAEXXZ   1006ffca f   plats.obj
 0001:0006f30f       ?Activate@CFuncTrain@@UAEXXZ 1007030f f   plats.obj
 0001:0006f43b       ?Spawn@CFuncTrain@@UAEXXZ  1007043b f   plats.obj
 0001:0006f5b4       ?Precache@CFuncTrain@@UAEXXZ 100705b4 f   plats.obj
 0001:0006f5c7       ?OverrideReset@CFuncTrain@@UAEXXZ 100705c7 f   plats.obj
 0001:0006f69a       ?Save@CFuncTrackTrain@@UAEHAAVCSave@@@Z 1007069a f   plats.obj
 0001:0006f6d3       ?Restore@CFuncTrackTrain@@UAEHAAVCRestore@@@Z 100706d3 f   plats.obj
 0001:0006f70c       _func_tracktrain           1007070c f   plats.obj
 0001:0006f71d       ?KeyValue@CFuncTrackTrain@@UAEXPAUKeyValueData_s@@@Z 1007071d f   plats.obj
 0001:0006f8c1       ?NextThink@CFuncTrackTrain@@QAEXMH@Z 100708c1 f   plats.obj
 0001:0006f921       ?Blocked@CFuncTrackTrain@@UAEXPAVCBaseEntity@@@Z 10070921 f   plats.obj
 0001:0006faa4       ?Use@CFuncTrackTrain@@UAEXPAVCBaseEntity@@0W4USE_TYPE@@M@Z 10070aa4 f   plats.obj
 0001:0006fca3       ?StopSound@CFuncTrackTrain@@QAEXXZ 10070ca3 f   plats.obj
 0001:0006fd6e       ?UpdateSound@CFuncTrackTrain@@QAEXXZ 10070d6e f   plats.obj
 0001:0006ff18       ?Next@CFuncTrackTrain@@QAEXXZ 10070f18 f   plats.obj
 0001:0007071f       ?DeadEnd@CFuncTrackTrain@@QAEXXZ 1007171f f   plats.obj
 0001:0007088d       ?SetControls@CFuncTrackTrain@@QAEXPAUentvars_s@@@Z 1007188d f   plats.obj
 0001:00070916       ?OnControls@CFuncTrackTrain@@UAEHPAUentvars_s@@@Z 10071916 f   plats.obj
 0001:00070a33       ?Find@CFuncTrackTrain@@QAEXXZ 10071a33 f   plats.obj
 0001:00070bdf       ?NearestPath@CFuncTrackTrain@@QAEXXZ 10071bdf f   plats.obj
 0001:00070db3       ?OverrideReset@CFuncTrackTrain@@UAEXXZ 10071db3 f   plats.obj
 0001:00070ded       ?Instance@CFuncTrackTrain@@SAPAV1@PAUedict_s@@@Z 10071ded f   plats.obj
 0001:00070e17       ?Spawn@CFuncTrackTrain@@UAEXXZ 10071e17 f   plats.obj
 0001:00071067       ?Precache@CFuncTrackTrain@@UAEXXZ 10072067 f   plats.obj
 0001:00071232       _func_traincontrols        10072232 f   plats.obj
 0001:00071243       ?Find@CFuncTrainControls@@QAEXXZ 10072243 f   plats.obj
 0001:00071309       ?Spawn@CFuncTrainControls@@UAEXXZ 10072309 f   plats.obj
 0001:000713c5       _func_trackchange          100723c5 f   plats.obj
 0001:000713d6       ?Save@CFuncTrackChange@@UAEHAAVCSave@@@Z 100723d6 f   plats.obj
 0001:0007140f       ?Restore@CFuncTrackChange@@UAEHAAVCRestore@@@Z 1007240f f   plats.obj
 0001:00071448       ?Spawn@CFuncTrackChange@@UAEXXZ 10072448 f   plats.obj
 0001:00071581       ?Precache@CFuncTrackChange@@UAEXXZ 10072581 f   plats.obj
 0001:000715a2       ?Touch@CFuncTrackChange@@UAEXPAVCBaseEntity@@@Z 100725a2 f   plats.obj
 0001:000715af       ?KeyValue@CFuncTrackChange@@UAEXPAUKeyValueData_s@@@Z 100725af f   plats.obj
 0001:00071682       ?OverrideReset@CFuncTrackChange@@UAEXXZ 10072682 f   plats.obj
 0001:000716ba       ?Find@CFuncTrackChange@@QAEXXZ 100726ba f   plats.obj
 0001:0007193d       ?EvaluateTrain@CFuncTrackChange@@QAE?AW4TRAIN_CODE@@PAVCPathTrack@@@Z 1007293d f   plats.obj
 0001:00071a5a       ?UpdateTrain@CFuncTrackChange@@QAEXAAVVector@@@Z 10072a5a f   plats.obj
 0001:00071c30       ?GoDown@CFuncTrackChange@@UAEXXZ 10072c30 f   plats.obj
 0001:00071d24       ?GoUp@CFuncTrackChange@@UAEXXZ 10072d24 f   plats.obj
 0001:00071e18       ?UpdateAutoTargets@CFuncTrackChange@@UAEXH@Z 10072e18 f   plats.obj
 0001:00071eed       ?Use@CFuncTrackChange@@UAEXPAVCBaseEntity@@0W4USE_TYPE@@M@Z 10072eed f   plats.obj
 0001:00071fd0       ?HitBottom@CFuncTrackChange@@UAEXXZ 10072fd0 f   plats.obj
 0001:0007203e       ?HitTop@CFuncTrackChange@@UAEXXZ 1007303e f   plats.obj
 0001:000720ac       _func_trackautochange      100730ac f   plats.obj
 0001:000720bd       ?UpdateAutoTargets@CFuncTrackAuto@@UAEXH@Z 100730bd f   plats.obj
 0001:000721d9       ?Use@CFuncTrackAuto@@UAEXPAVCBaseEntity@@0W4USE_TYPE@@M@Z 100731d9 f   plats.obj
 0001:0007232e       _func_guntarget            1007332e f   plats.obj
 0001:0007233f       ?Save@CGunTarget@@UAEHAAVCSave@@@Z 1007333f f   plats.obj
 0001:00072378       ?Restore@CGunTarget@@UAEHAAVCRestore@@@Z 10073378 f   plats.obj
 0001:000723b1       ?Spawn@CGunTarget@@UAEXXZ  100733b1 f   plats.obj
 0001:000724e0       ?Activate@CGunTarget@@UAEXXZ 100734e0 f   plats.obj
 0001:0007256a       ?Start@CGunTarget@@QAEXXZ  1007356a f   plats.obj
 0001:0007258f       ?Next@CGunTarget@@QAEXXZ   1007358f f   plats.obj
 0001:0007265b       ?Wait@CGunTarget@@QAEXXZ   1007365b f   plats.obj
 0001:0007275e       ?Stop@CGunTarget@@UAEXXZ   1007375e f   plats.obj
 0001:000727ab       ?TakeDamage@CGunTarget@@UAEHPAUentvars_s@@0MH@Z 100737ab f   plats.obj
 0001:00072864       ?Use@CGunTarget@@UAEXPAVCBaseEntity@@0W4USE_TYPE@@M@Z 10073864 f   plats.obj
 0001:00072910       ?CallGoDown@CFuncPlat@@QAEXXZ 10073910 f i plats.obj
 0001:00072930       ?CallHitTop@CFuncPlat@@QAEXXZ 10073930 f i plats.obj
 0001:00072950       ?CallHitBottom@CFuncPlat@@QAEXXZ 10073950 f i plats.obj
 0001:00072970       ?EnableUse@CFuncTrackChange@@QAEXXZ 10073970 f i plats.obj
 0001:00072990       ?DisableUse@CFuncTrackChange@@QAEXXZ 10073990 f i plats.obj
 0001:000729b0       ?SetTrack@CFuncTrackTrain@@QAEXPAVCPathTrack@@@Z 100739b0 f i plats.obj
 0001:000729f0       ?UseEnabled@CFuncTrackChange@@QAEHXZ 100739f0 f i plats.obj
 0001:00072a10       ?GetClassPtr@@YAPAVCFuncPlat@@PAV1@@Z 10073a10 f i plats.obj
 0001:00072aa0       ?GetClassPtr@@YAPAVCPlatTrigger@@PAV1@@Z 10073aa0 f i plats.obj
 0001:00072b30       ?GetClassPtr@@YAPAVCFuncPlatRot@@PAV1@@Z 10073b30 f i plats.obj
 0001:00072bc0       ?GetClassPtr@@YAPAVCFuncTrain@@PAV1@@Z 10073bc0 f i plats.obj
 0001:00072c50       ?GetClassPtr@@YAPAVCFuncTrackTrain@@PAV1@@Z 10073c50 f i plats.obj
 0001:00072ce0       ?GetClassPtr@@YAPAVCFuncTrainControls@@PAV1@@Z 10073ce0 f i plats.obj
 0001:00072d70       ?GetClassPtr@@YAPAVCFuncTrackChange@@PAV1@@Z 10073d70 f i plats.obj
 0001:00072e00       ?GetClassPtr@@YAPAVCFuncTrackAuto@@PAV1@@Z 10073e00 f i plats.obj
 0001:00072e90       ?GetClassPtr@@YAPAVCGunTarget@@PAV1@@Z 10073e90 f i plats.obj
 0001:00072f20       ??0CFuncPlat@@QAE@XZ       10073f20 f i plats.obj
 0001:00072f40       ?ObjectCaps@CBasePlatTrain@@UAEHXZ 10073f40 f i plats.obj
 0001:00072f60       ?IsTogglePlat@CBasePlatTrain@@UAEHXZ 10073f60 f i plats.obj
 0001:00072f80       ??0CPlatTrigger@@QAE@XZ    10073f80 f i plats.obj
 0001:00072fa0       ?ObjectCaps@CPlatTrigger@@UAEHXZ 10073fa0 f i plats.obj
 0001:00072fc0       ??0CFuncPlatRot@@QAE@XZ    10073fc0 f i plats.obj
 0001:00073000       ??0CFuncTrain@@QAE@XZ      10074000 f i plats.obj
 0001:00073020       ??0CFuncTrackTrain@@QAE@XZ 10074020 f i plats.obj
 0001:00073060       ?ObjectCaps@CFuncTrackTrain@@UAEHXZ 10074060 f i plats.obj
 0001:00073080       ??0CFuncTrainControls@@QAE@XZ 10074080 f i plats.obj
 0001:000730a0       ?ObjectCaps@CFuncTrainControls@@UAEHXZ 100740a0 f i plats.obj
 0001:000730c0       ??0CFuncTrackChange@@QAE@XZ 100740c0 f i plats.obj
 0001:000730e0       ?IsTogglePlat@CFuncTrackChange@@UAEHXZ 100740e0 f i plats.obj
 0001:000730f0       ??0CFuncTrackAuto@@QAE@XZ  100740f0 f i plats.obj
 0001:00073110       ??0CGunTarget@@QAE@XZ      10074110 f i plats.obj
 0001:00073130       ?BloodColor@CGunTarget@@UAEHXZ 10074130 f i plats.obj
 0001:00073140       ?Classify@CGunTarget@@UAEHXZ 10074140 f i plats.obj
 0001:00073150       ?BodyTarget@CGunTarget@@UAE?AVVector@@ABV2@@Z 10074150 f i plats.obj
 0001:00073180       ?ObjectCaps@CGunTarget@@UAEHXZ 10074180 f i plats.obj
 0001:000731a0       ??0CBasePlatTrain@@QAE@XZ  100741a0 f i plats.obj
 0001:000731c0       ?LinkUserMessages@@YAXXZ   100741c0 f   player.obj
 0001:000734b2       _player                    100744b2 f   player.obj
 0001:000734c3       ?Pain@CBasePlayer@@QAEXXZ  100744c3 f   player.obj
 0001:00073582       ?VecVelocityForDamage@@YA?AVVector@@M@Z 10074582 f   player.obj
 0001:0007366f       ?TrainSpeed@@YAHHH@Z       1007466f f   player.obj
 0001:000736ec       ?DeathSound@CBasePlayer@@UAEXXZ 100746ec f   player.obj
 0001:000737b9       ?TakeHealth@CBasePlayer@@UAEHMH@Z 100747b9 f   player.obj
 0001:000737d6       ?GetGunPosition@CBasePlayer@@UAE?AVVector@@XZ 100747d6 f   player.obj
 0001:0007382c       ?TraceAttack@CBasePlayer@@UAEXPAUentvars_s@@MVVector@@PAUTraceResult@@H@Z 1007482c f   player.obj
 0001:0007394f       ?TakeDamage@CBasePlayer@@UAEHPAUentvars_s@@0MH@Z 1007494f f   player.obj
 0001:00073ffc       ?PackDeadPlayerItems@CBasePlayer@@QAEXXZ 10074ffc f   player.obj
 0001:00074483       ?RemoveAllItems@CBasePlayer@@QAEXH@Z 10075483 f   player.obj
 0001:0007463d       ?Killed@CBasePlayer@@UAEXPAUentvars_s@@H@Z 1007563d f   player.obj
 0001:0007493f       ?SetAnimation@CBasePlayer@@QAEXW4PLAYER_ANIM@@@Z 1007593f f   player.obj
 0001:00074e47       ?TabulateAmmo@CBasePlayer@@QAEXXZ 10075e47 f   player.obj
 0001:00074f32       ?WaterMove@CBasePlayer@@QAEXXZ 10075f32 f   player.obj
 0001:0007542e       ?IsOnLadder@CBasePlayer@@QAEHXZ 1007642e f   player.obj
 0001:0007544b       ?PlayerDeathThink@CBasePlayer@@QAEXXZ 1007644b f   player.obj
 0001:0007574a       ?StartDeathCam@CBasePlayer@@QAEXXZ 1007674a f   player.obj
 0001:000758e1       ?StartObserver@CBasePlayer@@QAEXVVector@@0@Z 100768e1 f   player.obj
 0001:000759c7       ?PlayerUse@CBasePlayer@@QAEXXZ 100769c7 f   player.obj
 0001:00075e19       ?Jump@CBasePlayer@@UAEXXZ  10076e19 f   player.obj
 0001:00075f85       ?FixPlayerCrouchStuck@@YAXPAUedict_s@@@Z 10076f85 f   player.obj
 0001:00075ffa       ?Duck@CBasePlayer@@UAEXXZ  10076ffa f   player.obj
 0001:0007602e       ?Classify@CBasePlayer@@UAEHXZ 1007702e f   player.obj
 0001:0007603e       ?AddPoints@CBasePlayer@@UAEXHH@Z 1007703e f   player.obj
 0001:00076160       ?AddPointsToTeam@CBasePlayer@@UAEXHH@Z 10077160 f   player.obj
 0001:000761f0       ?InitStatusBar@CBasePlayer@@QAEXXZ 100771f0 f   player.obj
 0001:0007621c       ?UpdateStatusBar@CBasePlayer@@QAEXXZ 1007721c f   player.obj
 0001:0007662c       ?PreThink@CBasePlayer@@UAEXXZ 1007762c f   player.obj
 0001:00076d26       ?AutoRecord@CBasePlayer@@QAEXXZ 10077d26 f   player.obj
 0001:00076de1       ?CheckTimeBasedDamage@CBasePlayer@@QAEXXZ 10077de1 f   player.obj
 0001:000770a5       ?UpdateGeigerCounter@CBasePlayer@@QAEXXZ 100780a5 f   player.obj
 0001:00077172       ?CheckSuitUpdate@CBasePlayer@@QAEXXZ 10078172 f   player.obj
 0001:000772f9       ?SetSuitUpdate@CBasePlayer@@QAEXPADHH@Z 100782f9 f   player.obj
 0001:00077523       ?UpdatePlayerSound@CBasePlayer@@QAEXXZ 10078523 f   player.obj
 0001:00077769       ?PostThink@CBasePlayer@@UAEXXZ 10078769 f   player.obj
 0001:00077e1a       ?IsSpawnPointValid@@YAHPAVCBaseEntity@@0@Z 10078e1a f   player.obj
 0001:00077e89       ?EntSelectSpawnPoint@@YAPAUedict_s@@PAVCBaseEntity@@@Z 10078e89 f   player.obj
 0001:0007817d       ?Spawn@CBasePlayer@@UAEXXZ 1007917d f   player.obj
 0001:00078658       ?Precache@CBasePlayer@@UAEXXZ 10079658 f   player.obj
 0001:0007871b       ?Save@CBasePlayer@@UAEHAAVCSave@@@Z 1007971b f   player.obj
 0001:00078802       ?RenewItems@CBasePlayer@@QAEXXZ 10079802 f   player.obj
 0001:0007880d       ?Restore@CBasePlayer@@UAEHAAVCRestore@@@Z 1007980d f   player.obj
 0001:00078ca5       ?SelectNextItem@CBasePlayer@@QAEXH@Z 10079ca5 f   player.obj
 0001:00078dbc       ?SelectItem@CBasePlayer@@QAEXPBD@Z 10079dbc f   player.obj
 0001:00078f1b       ?SelectLastItem@CBasePlayer@@QAEXXZ 10079f1b f   player.obj
 0001:00078ff6       ?HasWeapons@CBasePlayer@@QAEHXZ 10079ff6 f   player.obj
 0001:00079036       ?SelectPrevItem@CBasePlayer@@QAEXH@Z 1007a036 f   player.obj
 0001:00079043       ?TeamID@CBasePlayer@@UAEPBDXZ 1007a043 f   player.obj
 0001:00079066       ?Spawn@CSprayCan@@QAEXPAUentvars_s@@@Z 1007a066 f   player.obj
 0001:0007913c       ?Think@CSprayCan@@UAEXXZ   1007a13c f   player.obj
 0001:000792aa       ?Spawn@CBloodSplat@@QAEXPAUentvars_s@@@Z 1007a2aa f   player.obj
 0001:00079351       ?Spray@CBloodSplat@@QAEXXZ 1007a351 f   player.obj
 0001:00079409       ?GiveNamedItem@CBasePlayer@@QAEXPBD@Z 1007a409 f   player.obj
 0001:000794c4       ?FindEntityForward@@YAPAVCBaseEntity@@PAV1@@Z 1007a4c4 f   player.obj
 0001:00079597       ?FlashlightIsOn@CBasePlayer@@QAEHXZ 1007a597 f   player.obj
 0001:000795b1       ?FlashlightTurnOn@CBasePlayer@@QAEXXZ 1007a5b1 f   player.obj
 0001:0007968a       ?FlashlightTurnOff@CBasePlayer@@QAEXXZ 1007a68a f   player.obj
 0001:00079730       ?ForceClientDllUpdate@CBasePlayer@@QAEXXZ 1007a730 f   player.obj
 0001:0007979e       ?ImpulseCommands@CBasePlayer@@UAEXXZ 1007a79e f   player.obj
 0001:00079994       ?CheatImpulseCommands@CBasePlayer@@QAEXH@Z 1007a994 f   player.obj
 0001:0007a1ae       ?AddPlayerItem@CBasePlayer@@UAEHPAVCBasePlayerItem@@@Z 1007b1ae f   player.obj
 0001:0007a372       ?RemovePlayerItem@CBasePlayer@@UAEHPAVCBasePlayerItem@@@Z 1007b372 f   player.obj
 0001:0007a48a       ?GiveAmmo@CBasePlayer@@UAEHHPADH@Z 1007b48a f   player.obj
 0001:0007a5b1       ?ItemPreFrame@CBasePlayer@@QAEXXZ 1007b5b1 f   player.obj
 0001:0007a5fc       ?ItemPostFrame@CBasePlayer@@QAEXXZ 1007b5fc f   player.obj
 0001:0007a669       ?AmmoInventory@CBasePlayer@@QAEHH@Z 1007b669 f   player.obj
 0001:0007a68e       ?GetAmmoIndex@CBasePlayer@@SAHPBD@Z 1007b68e f   player.obj
 0001:0007a6ed       ?SendAmmoUpdate@CBasePlayer@@QAEXXZ 1007b6ed f   player.obj
 0001:0007a7fe       ?UpdateClientData@CBasePlayer@@UAEXXZ 1007b7fe f   player.obj
 0001:0007afc4       ?FBecomeProne@CBasePlayer@@UAEHXZ 1007bfc4 f   player.obj
 0001:0007afe9       ?BarnacleVictimBitten@CBasePlayer@@UAEXPAUentvars_s@@@Z 1007bfe9 f   player.obj
 0001:0007b02a       ?BarnacleVictimReleased@CBasePlayer@@UAEXXZ 1007c02a f   player.obj
 0001:0007b04a       ?Illumination@CBasePlayer@@UAEHXZ 1007c04a f   player.obj
 0001:0007b084       ?EnableControl@CBasePlayer@@QAEXH@Z 1007c084 f   player.obj
 0001:0007b0cf       ?GetAutoaimVector@CBasePlayer@@QAE?AVVector@@M@Z 1007c0cf f   player.obj
 0001:0007b499       ?AutoaimDeflection@CBasePlayer@@QAE?AVVector@@AAV2@MM@Z 1007c499 f   player.obj
 0001:0007ba13       ?ResetAutoaim@CBasePlayer@@QAEXXZ 1007ca13 f   player.obj
 0001:0007ba96       ?SetCustomDecalFrames@CBasePlayer@@QAEXH@Z 1007ca96 f   player.obj
 0001:0007baca       ?GetCustomDecalFrames@CBasePlayer@@QAEHXZ 1007caca f   player.obj
 0001:0007bade       ?DropPlayerItem@CBasePlayer@@QAEXPAD@Z 1007cade f   player.obj
 0001:0007bd92       ?HasPlayerItem@CBasePlayer@@QAEHPAVCBasePlayerItem@@@Z 1007cd92 f   player.obj
 0001:0007bdfe       ?HasNamedPlayerItem@CBasePlayer@@QAEHPBD@Z 1007cdfe f   player.obj
 0001:0007be75       ?SwitchWeapon@CBasePlayer@@QAEHPAVCBasePlayerItem@@@Z 1007ce75 f   player.obj
 0001:0007bee7       ?KeyValue@CDeadHEV@@UAEXPAUKeyValueData_s@@@Z 1007cee7 f   player.obj
 0001:0007bf3c       _monster_hevsuit_dead      1007cf3c f   player.obj
 0001:0007bf4d       ?Spawn@CDeadHEV@@UAEXXZ    1007cf4d f   player.obj
 0001:0007c053       _player_weaponstrip        1007d053 f   player.obj
 0001:0007c064       ?Use@CStripWeapons@@UAEXPAVCBaseEntity@@0W4USE_TYPE@@M@Z 1007d064 f   player.obj
 0001:0007c0d6       _player_loadsaved          1007d0d6 f   player.obj
 0001:0007c0e7       ?Save@CRevertSaved@@UAEHAAVCSave@@@Z 1007d0e7 f   player.obj
 0001:0007c120       ?Restore@CRevertSaved@@UAEHAAVCRestore@@@Z 1007d120 f   player.obj
 0001:0007c159       ?KeyValue@CRevertSaved@@UAEXPAUKeyValueData_s@@@Z 1007d159 f   player.obj
 0001:0007c282       ?Use@CRevertSaved@@UAEXPAVCBaseEntity@@0W4USE_TYPE@@M@Z 1007d282 f   player.obj
 0001:0007c2f5       ?MessageThink@CRevertSaved@@QAEXXZ 1007d2f5 f   player.obj
 0001:0007c377       ?LoadThink@CRevertSaved@@QAEXXZ 1007d377 f   player.obj
 0001:0007c3a5       ?Spawn@CInfoIntermission@@EAEXXZ 1007d3a5 f   player.obj
 0001:0007c426       ?Think@CInfoIntermission@@EAEXXZ 1007d426 f   player.obj
 0001:0007c4ca       _info_intermission         1007d4ca f   player.obj
 0001:0007c4e0       ?INDEXENT@@YAPAUedict_s@@H@Z 1007d4e0 f i player.obj
 0001:0007c500       ?FNullEnt@@YAHPAVCBaseEntity@@@Z 1007d500 f i player.obj
 0001:0007c540       ?SetDuration@CRevertSaved@@QAEXM@Z 1007d540 f i player.obj
 0001:0007c560       ?SetHoldTime@CRevertSaved@@QAEXM@Z 1007d560 f i player.obj
 0001:0007c580       ?SetMessageTime@CRevertSaved@@QAEXM@Z 1007d580 f i player.obj
 0001:0007c5a0       ?SetLoadTime@CRevertSaved@@QAEXM@Z 1007d5a0 f i player.obj
 0001:0007c5c0       ?Duration@CRevertSaved@@QAEMXZ 1007d5c0 f i player.obj
 0001:0007c5e0       ?HoldTime@CRevertSaved@@QAEMXZ 1007d5e0 f i player.obj
 0001:0007c600       ?MessageTime@CRevertSaved@@QAEMXZ 1007d600 f i player.obj
 0001:0007c620       ?LoadTime@CRevertSaved@@QAEMXZ 1007d620 f i player.obj
 0001:0007c640       ?GetClassPtr@@YAPAVCSprayCan@@PAV1@@Z 1007d640 f i player.obj
 0001:0007c6d0       ?GetClassPtr@@YAPAVCBloodSplat@@PAV1@@Z 1007d6d0 f i player.obj
 0001:0007c760       ?GetClassPtr@@YAPAVCDeadHEV@@PAV1@@Z 1007d760 f i player.obj
 0001:0007c7f0       ?GetClassPtr@@YAPAVCStripWeapons@@PAV1@@Z 1007d7f0 f i player.obj
 0001:0007c880       ?GetClassPtr@@YAPAVCRevertSaved@@PAV1@@Z 1007d880 f i player.obj
 0001:0007c910       ?GetClassPtr@@YAPAVCInfoIntermission@@PAV1@@Z 1007d910 f i player.obj
 0001:0007c9a0       ??0CSprayCan@@QAE@XZ       1007d9a0 f i player.obj
 0001:0007c9c0       ?ObjectCaps@CSprayCan@@UAEHXZ 1007d9c0 f i player.obj
 0001:0007c9d0       ??0CBloodSplat@@QAE@XZ     1007d9d0 f i player.obj
 0001:0007c9f0       ??0CDeadHEV@@QAE@XZ        1007d9f0 f i player.obj
 0001:0007ca10       ?Classify@CDeadHEV@@UAEHXZ 1007da10 f i player.obj
 0001:0007ca20       ??0CStripWeapons@@QAE@XZ   1007da20 f i player.obj
 0001:0007ca40       ??0CRevertSaved@@QAE@XZ    1007da40 f i player.obj
 0001:0007ca60       ??0CInfoIntermission@@QAE@XZ 1007da60 f i player.obj
 0001:0007ca80       _PM_ShowClipBox            1007da80 f   pm_debug.obj
 0001:0007ca85       _PM_ParticleLine           1007da85 f   pm_debug.obj
 0001:0007cb48       _PM_DrawRectangle          1007db48 f   pm_debug.obj
 0001:0007cbb5       _PM_DrawPhysEntBBox        1007dbb5 f   pm_debug.obj
 0001:0007d0e3       _PM_DrawBBox               1007e0e3 f   pm_debug.obj
 0001:0007d258       _PM_ViewEntity             1007e258 f   pm_debug.obj
 0001:0007d3b0       _anglemod                  1007e3b0 f   pm_math.obj
 0001:0007d3da       _AngleVectors              1007e3da f   pm_math.obj
 0001:0007d54f       _AngleVectorsTranspose     1007e54f f   pm_math.obj
 0001:0007d6a4       _AngleMatrix               1007e6a4 f   pm_math.obj
 0001:0007d807       _AngleIMatrix              1007e807 f   pm_math.obj
 0001:0007d96a       _NormalizeAngles           1007e96a f   pm_math.obj
 0001:0007d9ea       _InterpolateAngles         1007e9ea f   pm_math.obj
 0001:0007da9c       _AngleBetweenVectors       1007ea9c f   pm_math.obj
 0001:0007db3a       _VectorTransform           1007eb3a f   pm_math.obj
 0001:0007dbd6       _VectorCompare             1007ebd6 f   pm_math.obj
 0001:0007dc1c       _VectorMA                  1007ec1c f   pm_math.obj
 0001:0007dc5d       __DotProduct               1007ec5d f   pm_math.obj
 0001:0007dc88       __VectorSubtract           1007ec88 f   pm_math.obj
 0001:0007dcc0       __VectorAdd                1007ecc0 f   pm_math.obj
 0001:0007dcf8       __VectorCopy               1007ecf8 f   pm_math.obj
 0001:0007dd1f       _CrossProduct              1007ed1f f   pm_math.obj
 0001:0007dd7f       _Length                    1007ed7f f   pm_math.obj
 0001:0007ddd8       _Distance                  1007edd8 f   pm_math.obj
 0001:0007de19       _VectorNormalize           1007ee19 f   pm_math.obj
 0001:0007dea4       _VectorInverse             1007eea4 f   pm_math.obj
 0001:0007ded1       _VectorScale               1007eed1 f   pm_math.obj
 0001:0007df01       _Q_log2                    1007ef01 f   pm_math.obj
 0001:0007df2c       _VectorMatrix              1007ef2c f   pm_math.obj
 0001:0007dff4       _VectorAngles              1007eff4 f   pm_math.obj
 0001:0007e120       _PM_SwapTextures           1007f120 f   pm_shared.obj
 0001:0007e1a7       _PM_SortTextures           1007f1a7 f   pm_shared.obj
 0001:0007e226       _PM_InitTextureTypes       1007f226 f   pm_shared.obj
 0001:0007e5d9       _PM_FindTextureType        1007f5d9 f   pm_shared.obj
 0001:0007e65e       _PM_PlayStepSound          1007f65e f   pm_shared.obj
 0001:0007eebb       _PM_MapTextureTypeStepType 1007febb f   pm_shared.obj
 0001:0007ef46       _PM_CatagorizeTextureType  1007ff46 f   pm_shared.obj
 0001:0007f085       _PM_UpdateStepSound        10080085 f   pm_shared.obj
 0001:0007f63c       _PM_AddToTouched           1008063c f   pm_shared.obj
 0001:0007f721       _PM_CheckVelocity          10080721 f   pm_shared.obj
 0001:0007f880       _PM_ClipVelocity           10080880 f   pm_shared.obj
 0001:0007f971       _PM_AddCorrectGravity      10080971 f   pm_shared.obj
 0001:0007fa2f       _PM_FixupGravityVelocity   10080a2f f   pm_shared.obj
 0001:0007fabb       _PM_FlyMove                10080abb f   pm_shared.obj
 0001:000801b5       _PM_Accelerate             100811b5 f   pm_shared.obj
 0001:000802a6       _PM_WalkMove               100812a6 f   pm_shared.obj
 0001:0008092f       _PM_Friction               1008192f f   pm_shared.obj
 0001:00080b81       _PM_AirAccelerate          10081b81 f   pm_shared.obj
 0001:00080c90       _PM_WaterMove              10081c90 f   pm_shared.obj
 0001:0008105c       _PM_AirMove                1008205c f   pm_shared.obj
 0001:000811e7       _PM_InWater                100821e7 f   pm_shared.obj
 0001:000811ff       _PM_CheckWater             100821ff f   pm_shared.obj
 0001:00081470       _PM_CatagorizePosition     10082470 f   pm_shared.obj
 0001:000815c0       _PM_GetRandomStuckOffsets  100825c0 f   pm_shared.obj
 0001:00081658       _PM_ResetStuckOffsets      10082658 f   pm_shared.obj
 0001:00081671       _PM_CheckStuck             10082671 f   pm_shared.obj
 0001:00081aa4       _PM_SpectatorMove          10082aa4 f   pm_shared.obj
 0001:00081f08       _PM_SplineFraction         10082f08 f   pm_shared.obj
 0001:00081f36       _PM_FixPlayerCrouchStuck   10082f36 f   pm_shared.obj
 0001:00082001       _PM_UnDuck                 10083001 f   pm_shared.obj
 0001:00082189       _PM_Duck                   10083189 f   pm_shared.obj
 0001:00082515       _PM_LadderMove             10083515 f   pm_shared.obj
 0001:00082920       _PM_Ladder                 10083920 f   pm_shared.obj
 0001:00082a1d       _PM_WaterJump              10083a1d f   pm_shared.obj
 0001:00082b0a       _PM_AddGravity             10083b0a f   pm_shared.obj
 0001:00082ba0       _PM_PushEntity             10083ba0 f   pm_shared.obj
 0001:00082c82       _PM_Physics_Toss           10083c82 f   pm_shared.obj
 0001:00083084       _PM_NoClip                 10084084 f   pm_shared.obj
 0001:00083176       _PM_PreventMegaBunnyJumping 10084176 f   pm_shared.obj
 0001:000831f3       _PM_Jump                   100841f3 f   pm_shared.obj
 0001:00083691       _PM_CheckWaterJump         10084691 f   pm_shared.obj
 0001:0008392a       _PM_CheckFalling           1008492a f   pm_shared.obj
 0001:00083b2a       _PM_PlayWaterSounds        10084b2a f   pm_shared.obj
 0001:00083c42       _PM_CalcRoll               10084c42 f   pm_shared.obj
 0001:00083ce9       _PM_DropPunchAngle         10084ce9 f   pm_shared.obj
 0001:00083d5c       _PM_CheckParamters         10084d5c f   pm_shared.obj
 0001:00084070       _PM_ReduceTimers           10085070 f   pm_shared.obj
 0001:000841a4       _PM_PlayerMove             100851a4 f   pm_shared.obj
 0001:00084772       _PM_CreateStuckTable       10085772 f   pm_shared.obj
 0001:00084b86       _PM_Move                   10085b86 f   pm_shared.obj
 0001:00084c14       _PM_GetVisEntInfo          10085c14 f   pm_shared.obj
 0001:00084c49       _PM_GetPhysEntInfo         10085c49 f   pm_shared.obj
 0001:00084c7e       _PM_Init                   10085c7e f   pm_shared.obj
 0001:00084ca0       _weapon_python             10085ca0 f   python.obj
 0001:00084cb1       _weapon_357                10085cb1 f   python.obj
 0001:00084cc2       ?GetItemInfo@CPython@@UAEHPAUItemInfo@@@Z 10085cc2 f   python.obj
 0001:00084d5b       ?AddToPlayer@CPython@@UAEHPAVCBasePlayer@@@Z 10085d5b f   python.obj
 0001:00084db0       ?Spawn@CPython@@UAEXXZ     10085db0 f   python.obj
 0001:00084e1b       ?Precache@CPython@@UAEXXZ  10085e1b f   python.obj
 0001:00084ebe       ?Deploy@CPython@@UAEHXZ    10085ebe f   python.obj
 0001:00084f34       ?Holster@CPython@@UAEXH@Z  10085f34 f   python.obj
 0001:00084fc0       ?SecondaryAttack@CPython@@UAEXXZ 10085fc0 f   python.obj
 0001:0008508b       ?PrimaryAttack@CPython@@UAEXXZ 1008608b f   python.obj
 0001:0008533b       ?Reload@CPython@@UAEXXZ    1008633b f   python.obj
 0001:000853e6       ?WeaponIdle@CPython@@UAEXXZ 100863e6 f   python.obj
 0001:00085592       _ammo_357                  10086592 f   python.obj
 0001:000855b0       ?GetClassPtr@@YAPAVCPython@@PAV1@@Z 100865b0 f i python.obj
 0001:00085640       ?GetClassPtr@@YAPAVCPythonAmmo@@PAV1@@Z 10086640 f i python.obj
 0001:000856d0       ??0CPython@@QAE@XZ         100866d0 f i python.obj
 0001:000856f0       ??0CPythonAmmo@@QAE@XZ     100866f0 f i python.obj
 0001:00085710       ?Spawn@CPythonAmmo@@EAEXXZ 10086710 f i python.obj
 0001:00085750       ?Precache@CPythonAmmo@@EAEXXZ 10086750 f i python.obj
 0001:00085780       ?AddAmmo@CPythonAmmo@@EAEHPAVCBaseEntity@@@Z 10086780 f i python.obj
 0001:000857e0       ?iItemSlot@CPython@@UAEHXZ 100867e0 f i python.obj
 0001:000857f0       ?UseDecrement@CPython@@UAEHXZ 100867f0 f i python.obj
 0001:00085800       _monster_rat               10086800 f   rat.obj
 0001:00085811       ?Classify@CRat@@UAEHXZ     10086811 f   rat.obj
 0001:00085821       ?SetYawSpeed@CRat@@UAEXXZ  10086821 f   rat.obj
 0001:00085850       ?Spawn@CRat@@UAEXXZ        10086850 f   rat.obj
 0001:00085945       ?Precache@CRat@@UAEXXZ     10086945 f   rat.obj
 0001:00085960       ?GetClassPtr@@YAPAVCRat@@PAV1@@Z 10086960 f i rat.obj
 0001:000859f0       ??0CRat@@QAE@XZ            100869f0 f i rat.obj
 0001:00085a10       _monster_cockroach         10086a10 f   roach.obj
 0001:00085a21       ?ISoundMask@CRoach@@UAEHXZ 10086a21 f   roach.obj
 0001:00085a31       ?Classify@CRoach@@UAEHXZ   10086a31 f   roach.obj
 0001:00085a41       ?Touch@CRoach@@UAEXPAVCBaseEntity@@@Z 10086a41 f   roach.obj
 0001:00085b49       ?SetYawSpeed@CRoach@@UAEXXZ 10086b49 f   roach.obj
 0001:00085b6c       ?Spawn@CRoach@@UAEXXZ      10086b6c f   roach.obj
 0001:00085cd8       ?Precache@CRoach@@UAEXXZ   10086cd8 f   roach.obj
 0001:00085d1b       ?Killed@CRoach@@UAEXPAUentvars_s@@H@Z 10086d1b f   roach.obj
 0001:00085e20       ?MonsterThink@CRoach@@UAEXXZ 10086e20 f   roach.obj
 0001:0008616e       ?PickNewDest@CRoach@@QAEXH@Z 1008716e f   roach.obj
 0001:000863a1       ?Move@CRoach@@UAEXM@Z      100873a1 f   roach.obj
 0001:0008657c       ?Look@CRoach@@UAEXH@Z      1008757c f   roach.obj
 0001:00086700       ?GetClassPtr@@YAPAVCRoach@@PAV1@@Z 10087700 f i roach.obj
 0001:00086790       ??0CRoach@@QAE@XZ          10087790 f i roach.obj
 0001:000867b0       _weapon_rpg                100877b0 f   rpg.obj
 0001:000867c1       _laser_spot                100877c1 f   rpg.obj
 0001:000867d2       ?CreateSpot@CLaserSpot@@SAPAV1@XZ 100877d2 f   rpg.obj
 0001:0008680c       ?Spawn@CLaserSpot@@EAEXXZ  1008780c f   rpg.obj
 0001:000868a9       ?Suspend@CLaserSpot@@QAEXM@Z 100878a9 f   rpg.obj
 0001:000868f1       ?Revive@CLaserSpot@@QAEXXZ 100878f1 f   rpg.obj
 0001:00086921       ?Precache@CLaserSpot@@EAEXXZ 10087921 f   rpg.obj
 0001:0008693a       _rpg_rocket                1008793a f   rpg.obj
 0001:0008694b       ?CreateRpgRocket@CRpgRocket@@SAPAV1@VVector@@0PAVCBaseEntity@@PAVCRpg@@@Z 1008794b f   rpg.obj
 0001:000869e5       ?Spawn@CRpgRocket@@UAEXXZ  100879e5 f   rpg.obj
 0001:00086b5f       ?RocketTouch@CRpgRocket@@QAEXPAVCBaseEntity@@@Z 10087b5f f   rpg.obj
 0001:00086bbd       ?Precache@CRpgRocket@@UAEXXZ 10087bbd f   rpg.obj
 0001:00086bfb       ?IgniteThink@CRpgRocket@@QAEXXZ 10087bfb f   rpg.obj
 0001:00086d26       ?FollowThink@CRpgRocket@@QAEXXZ 10087d26 f   rpg.obj
 0001:000871ed       ?Reload@CRpg@@UAEXXZ       100881ed f   rpg.obj
 0001:000872e7       ?Spawn@CRpg@@UAEXXZ        100882e7 f   rpg.obj
 0001:0008736b       ?Precache@CRpg@@UAEXXZ     1008836b f   rpg.obj
 0001:000873fe       ?GetItemInfo@CRpg@@UAEHPAUItemInfo@@@Z 100883fe f   rpg.obj
 0001:00087497       ?AddToPlayer@CRpg@@UAEHPAVCBasePlayer@@@Z 10088497 f   rpg.obj
 0001:000874ec       ?Deploy@CRpg@@UAEHXZ       100884ec f   rpg.obj
 0001:0008753f       ?CanHolster@CRpg@@UAEHXZ   1008853f f   rpg.obj
 0001:0008756b       ?Holster@CRpg@@UAEXH@Z     1008856b f   rpg.obj
 0001:000875e9       ?PrimaryAttack@CRpg@@UAEXXZ 100885e9 f   rpg.obj
 0001:00087862       ?SecondaryAttack@CRpg@@UAEXXZ 10088862 f   rpg.obj
 0001:000878d9       ?WeaponIdle@CRpg@@UAEXXZ   100888d9 f   rpg.obj
 0001:000879fc       ?UpdateSpot@CRpg@@QAEXXZ   100889fc f   rpg.obj
 0001:00087adf       _ammo_rpgclip              10088adf f   rpg.obj
 0001:00087af0       ?GetClassPtr@@YAPAVCRpg@@PAV1@@Z 10088af0 f i rpg.obj
 0001:00087b80       ?GetClassPtr@@YAPAVCLaserSpot@@PAV1@@Z 10088b80 f i rpg.obj
 0001:00087c10       ?GetClassPtr@@YAPAVCRpgRocket@@PAV1@@Z 10088c10 f i rpg.obj
 0001:00087ca0       ?GetClassPtr@@YAPAVCRpgAmmo@@PAV1@@Z 10088ca0 f i rpg.obj
 0001:00087d30       ??0CRpg@@QAE@XZ            10088d30 f i rpg.obj
 0001:00087d50       ??0CLaserSpot@@QAE@XZ      10088d50 f i rpg.obj
 0001:00087d70       ??0CRpgRocket@@QAE@XZ      10088d70 f i rpg.obj
 0001:00087d90       ??0CRpgAmmo@@QAE@XZ        10088d90 f i rpg.obj
 0001:00087db0       ?Spawn@CRpgAmmo@@EAEXXZ    10088db0 f i rpg.obj
 0001:00087df0       ?Precache@CRpgAmmo@@EAEXXZ 10088df0 f i rpg.obj
 0001:00087e20       ?AddAmmo@CRpgAmmo@@EAEHPAVCBaseEntity@@@Z 10088e20 f i rpg.obj
 0001:00087ea0       ?ObjectCaps@CLaserSpot@@EAEHXZ 10088ea0 f i rpg.obj
 0001:00087eb0       ?iItemSlot@CRpg@@UAEHXZ    10088eb0 f i rpg.obj
 0001:00087ec0       ?ShouldWeaponIdle@CRpg@@UAEHXZ 10088ec0 f i rpg.obj
 0001:00087ed0       ?UseDecrement@CRpg@@UAEHXZ 10088ed0 f i rpg.obj
 0001:00087ee0       _monster_satchel           10088ee0 f   satchel.obj
 0001:00087ef1       ?Deactivate@CSatchelCharge@@QAEXXZ 10088ef1 f   satchel.obj
 0001:00087f18       ?Spawn@CSatchelCharge@@EAEXXZ 10088f18 f   satchel.obj
 0001:00088041       ?SatchelSlide@CSatchelCharge@@AAEXPAVCBaseEntity@@@Z 10089041 f   satchel.obj
 0001:0008818c       ?SatchelThink@CSatchelCharge@@AAEXXZ 1008918c f   satchel.obj
 0001:000882ba       ?Precache@CSatchelCharge@@EAEXXZ 100892ba f   satchel.obj
 0001:000882fd       ?BounceSound@CSatchelCharge@@EAEXXZ 100892fd f   satchel.obj
 0001:000883ad       _weapon_satchel            100893ad f   satchel.obj
 0001:000883be       ?AddDuplicate@CSatchel@@UAEHPAVCBasePlayerItem@@@Z 100893be f   satchel.obj
 0001:00088400       ?AddToPlayer@CSatchel@@UAEHPAVCBasePlayer@@@Z 10089400 f   satchel.obj
 0001:00088469       ?Spawn@CSatchel@@UAEXXZ    10089469 f   satchel.obj
 0001:000884bc       ?Precache@CSatchel@@UAEXXZ 100894bc f   satchel.obj
 0001:0008851a       ?GetItemInfo@CSatchel@@UAEHPAUItemInfo@@@Z 1008951a f   satchel.obj
 0001:000885b3       ?IsUseable@CSatchel@@UAEHXZ 100895b3 f   satchel.obj
 0001:000885f7       ?CanDeploy@CSatchel@@UAEHXZ 100895f7 f   satchel.obj
 0001:0008863b       ?Deploy@CSatchel@@UAEHXZ   1008963b f   satchel.obj
 0001:000886da       ?Holster@CSatchel@@UAEXH@Z 100896da f   satchel.obj
 0001:000887cc       ?PrimaryAttack@CSatchel@@UAEXXZ 100897cc f   satchel.obj
 0001:000888eb       ?SecondaryAttack@CSatchel@@UAEXXZ 100898eb f   satchel.obj
 0001:00088907       ?Throw@CSatchel@@QAEXXZ    10089907 f   satchel.obj
 0001:00088a96       ?WeaponIdle@CSatchel@@UAEXXZ 10089a96 f   satchel.obj
 0001:00088c4c       ?DeactivateSatchels@@YAXPAVCBasePlayer@@@Z 10089c4c f   satchel.obj
 0001:00088cd0       ?GetClassPtr@@YAPAVCSatchelCharge@@PAV1@@Z 10089cd0 f i satchel.obj
 0001:00088d60       ?GetClassPtr@@YAPAVCSatchel@@PAV1@@Z 10089d60 f i satchel.obj
 0001:00088df0       ??0CSatchelCharge@@QAE@XZ  10089df0 f i satchel.obj
 0001:00088e10       ??0CSatchel@@QAE@XZ        10089e10 f i satchel.obj
 0001:00088e30       ?iItemSlot@CSatchel@@UAEHXZ 10089e30 f i satchel.obj
 0001:00088e40       ?UseDecrement@CSatchel@@UAEHXZ 10089e40 f i satchel.obj
 0001:00088e50       ?FHaveSchedule@CBaseMonster@@QAEHXZ 10089e50 f   schedule.obj
 0001:00088e70       ?ClearSchedule@CBaseMonster@@QAEXXZ 10089e70 f   schedule.obj
 0001:00088ea2       ?FScheduleDone@CBaseMonster@@QAEHXZ 10089ea2 f   schedule.obj
 0001:00088ecd       ?ChangeSchedule@CBaseMonster@@QAEXPAUSchedule_t@@@Z 10089ecd f   schedule.obj
 0001:00088f85       ?NextScheduledTask@CBaseMonster@@QAEXXZ 10089f85 f   schedule.obj
 0001:00088fcb       ?IScheduleFlags@CBaseMonster@@QAEHXZ 10089fcb f   schedule.obj
 0001:00088ffb       ?FScheduleValid@CBaseMonster@@QAEHXZ 10089ffb f   schedule.obj
 0001:00089042       ?MaintainSchedule@CBaseMonster@@QAEXXZ 1008a042 f   schedule.obj
 0001:00089306       ?RunTask@CBaseMonster@@UAEXPAUTask_t@@@Z 1008a306 f   schedule.obj
 0001:00089a2e       ?SetTurnActivity@CBaseMonster@@QAEXXZ 1008aa2e f   schedule.obj
 0001:00089aa0       ?StartTask@CBaseMonster@@UAEXPAUTask_t@@@Z 1008aaa0 f   schedule.obj
 0001:0008b23e       ?GetTask@CBaseMonster@@QAEPAUTask_t@@XZ 1008c23e f   schedule.obj
 0001:0008b287       ?GetSchedule@CBaseMonster@@UAEPAUSchedule_t@@XZ 1008c287 f   schedule.obj
 0001:0008b6c0       ?TaskBegin@CBaseMonster@@QAEXXZ 1008c6c0 f i schedule.obj
 0001:0008b6e0       ?TaskIsComplete@CBaseMonster@@QAEHXZ 1008c6e0 f i schedule.obj
 0001:0008b700       _monster_scientist         1008c700 f   scientist.obj
 0001:0008b711       ?Save@CScientist@@UAEHAAVCSave@@@Z 1008c711 f   scientist.obj
 0001:0008b74a       ?Restore@CScientist@@UAEHAAVCRestore@@@Z 1008c74a f   scientist.obj
 0001:0008b783       ?ScheduleFromName@CScientist@@UAEPAUSchedule_t@@PBD@Z 1008c783 f   scientist.obj
 0001:0008b7bf       ?DeclineFollowing@CScientist@@UAEXXZ 1008c7bf f   scientist.obj
 0001:0008b817       ?Scream@CScientist@@QAEXXZ 1008c817 f   scientist.obj
 0001:0008b88c       ?GetStoppedActivity@CScientist@@UAE?AW4Activity@@XZ 1008c88c f   scientist.obj
 0001:0008b8b8       ?StartTask@CScientist@@UAEXPAUTask_t@@@Z 1008c8b8 f   scientist.obj
 0001:0008bb18       ?RunTask@CScientist@@UAEXPAUTask_t@@@Z 1008cb18 f   scientist.obj
 0001:0008bda1       ?Classify@CScientist@@UAEHXZ 1008cda1 f   scientist.obj
 0001:0008bdb1       ?SetYawSpeed@CScientist@@UAEXXZ 1008cdb1 f   scientist.obj
 0001:0008be47       ?HandleAnimEvent@CScientist@@UAEXPAUMonsterEvent_t@@@Z 1008ce47 f   scientist.obj
 0001:0008bee5       ?Spawn@CScientist@@UAEXXZ  1008cee5 f   scientist.obj
 0001:0008c059       ?Precache@CScientist@@UAEXXZ 1008d059 f   scientist.obj
 0001:0008c0c8       ?TalkInit@CScientist@@QAEXXZ 1008d0c8 f   scientist.obj
 0001:0008c248       ?TakeDamage@CScientist@@UAEHPAUentvars_s@@0MH@Z 1008d248 f   scientist.obj
 0001:0008c29d       ?ISoundMask@CScientist@@UAEHXZ 1008d29d f   scientist.obj
 0001:0008c2ad       ?PainSound@CScientist@@UAEXXZ 1008d2ad f   scientist.obj
 0001:0008c444       ?DeathSound@CScientist@@UAEXXZ 1008d444 f   scientist.obj
 0001:0008c45d       ?Killed@CScientist@@UAEXPAUentvars_s@@H@Z 1008d45d f   scientist.obj
 0001:0008c484       ?SetActivity@CScientist@@UAEXW4Activity@@@Z 1008d484 f   scientist.obj
 0001:0008c4bb       ?GetScheduleOfType@CScientist@@UAEPAUSchedule_t@@H@Z 1008d4bb f   scientist.obj
 0001:0008c5e2       ?GetSchedule@CScientist@@UAEPAUSchedule_t@@XZ 1008d5e2 f   scientist.obj
 0001:0008c8f6       ?GetIdealState@CScientist@@UAE?AW4MONSTERSTATE@@XZ 1008d8f6 f   scientist.obj
 0001:0008ca9e       ?CanHeal@CScientist@@QAEHXZ 1008da9e f   scientist.obj
 0001:0008cb1f       ?Heal@CScientist@@QAEXXZ   1008db1f f   scientist.obj
 0001:0008cbbe       ?FriendNumber@CScientist@@UAEHH@Z 1008dbbe f   scientist.obj
 0001:0008cbe0       ?KeyValue@CDeadScientist@@UAEXPAUKeyValueData_s@@@Z 1008dbe0 f   scientist.obj
 0001:0008cc35       _monster_scientist_dead    1008dc35 f   scientist.obj
 0001:0008cc46       ?Spawn@CDeadScientist@@UAEXXZ 1008dc46 f   scientist.obj
 0001:0008cd65       _monster_sitting_scientist 1008dd65 f   scientist.obj
 0001:0008cd76       ?Save@CSittingScientist@@UAEHAAVCSave@@@Z 1008dd76 f   scientist.obj
 0001:0008cdaf       ?Restore@CSittingScientist@@UAEHAAVCRestore@@@Z 1008ddaf f   scientist.obj
 0001:0008cde8       ?Spawn@CSittingScientist@@UAEXXZ 1008dde8 f   scientist.obj
 0001:0008cfbb       ?Precache@CSittingScientist@@UAEXXZ 1008dfbb f   scientist.obj
 0001:0008cfe4       ?Classify@CSittingScientist@@UAEHXZ 1008dfe4 f   scientist.obj
 0001:0008cff4       ?FriendNumber@CSittingScientist@@UAEHH@Z 1008dff4 f   scientist.obj
 0001:0008d016       ?SittingThink@CSittingScientist@@QAEXXZ 1008e016 f   scientist.obj
 0001:0008d3ef       ?SetAnswerQuestion@CSittingScientist@@UAEXPAVCTalkMonster@@@Z 1008e3ef f   scientist.obj
 0001:0008d431       ?FIdleSpeak@CSittingScientist@@QAEHXZ 1008e431 f   scientist.obj
 0001:0008d5b0       ?DisregardEnemy@CScientist@@QAEHPAVCBaseEntity@@@Z 1008e5b0 f i scientist.obj
 0001:0008d610       ?GetClassPtr@@YAPAVCScientist@@PAV1@@Z 1008e610 f i scientist.obj
 0001:0008d6a0       ?GetClassPtr@@YAPAVCDeadScientist@@PAV1@@Z 1008e6a0 f i scientist.obj
 0001:0008d730       ?GetClassPtr@@YAPAVCSittingScientist@@PAV1@@Z 1008e730 f i scientist.obj
 0001:0008d7c0       ?GetClassPtr@@YAPAVCTalkMonster@@PAV1@@Z 1008e7c0 f i scientist.obj
 0001:0008d850       ??0CScientist@@QAE@XZ      1008e850 f i scientist.obj
 0001:0008d870       ?ObjectCaps@CScientist@@UAEHXZ 1008e870 f i scientist.obj
 0001:0008d890       ?CoverRadius@CScientist@@UAEMXZ 1008e890 f i scientist.obj
 0001:0008d8b0       ??0CDeadScientist@@QAE@XZ  1008e8b0 f i scientist.obj
 0001:0008d8d0       ?Classify@CDeadScientist@@UAEHXZ 1008e8d0 f i scientist.obj
 0001:0008d8e0       ??0CSittingScientist@@QAE@XZ 1008e8e0 f i scientist.obj
 0001:0008d900       ?KeyValue@CCineMonster@@UAEXPAUKeyValueData_s@@@Z 1008e900 f   scripted.obj
 0001:0008dacf       ?Save@CCineMonster@@UAEHAAVCSave@@@Z 1008eacf f   scripted.obj
 0001:0008db08       ?Restore@CCineMonster@@UAEHAAVCRestore@@@Z 1008eb08 f   scripted.obj
 0001:0008db41       _scripted_sequence         1008eb41 f   scripted.obj
 0001:0008db52       _aiscripted_sequence       1008eb52 f   scripted.obj
 0001:0008db63       ?Spawn@CCineMonster@@UAEXXZ 1008eb63 f   scripted.obj
 0001:0008dc2b       ?FCanOverrideState@CCineMonster@@UAEHXZ 1008ec2b f   scripted.obj
 0001:0008dc52       ?FCanOverrideState@CCineAI@@EAEHXZ 1008ec52 f   scripted.obj
 0001:0008dc62       ?Use@CCineMonster@@UAEXPAVCBaseEntity@@0W4USE_TYPE@@M@Z 1008ec62 f   scripted.obj
 0001:0008dce7       ?Blocked@CCineMonster@@UAEXPAVCBaseEntity@@@Z 1008ece7 f   scripted.obj
 0001:0008dcf4       ?Touch@CCineMonster@@UAEXPAVCBaseEntity@@@Z 1008ecf4 f   scripted.obj
 0001:0008dd01       ?Die@CCineMonster@@QAEXXZ  1008ed01 f   scripted.obj
 0001:0008dd16       ?Pain@CCineMonster@@QAEXXZ 1008ed16 f   scripted.obj
 0001:0008dd21       ?FindEntity@CCineMonster@@QAEHXZ 1008ed21 f   scripted.obj
 0001:0008df27       ?PossessEntity@CCineMonster@@UAEXXZ 1008ef27 f   scripted.obj
 0001:0008e1ba       ?PossessEntity@CCineAI@@EAEXXZ 1008f1ba f   scripted.obj
 0001:0008e49a       ?CineThink@CCineMonster@@QAEXXZ 1008f49a f   scripted.obj
 0001:0008e564       ?StartSequence@CCineMonster@@UAEHPAVCBaseMonster@@HH@Z 1008f564 f   scripted.obj
 0001:0008e628       ?StartSequence@CCineAI@@EAEHPAVCBaseMonster@@HH@Z 1008f628 f   scripted.obj
 0001:0008e6ef       ?SequenceDone@CCineMonster@@QAEXPAVCBaseMonster@@@Z 1008f6ef f   scripted.obj
 0001:0008e760       ?FixScriptMonsterSchedule@CCineMonster@@UAEXPAVCBaseMonster@@@Z 1008f760 f   scripted.obj
 0001:0008e78e       ?FixScriptMonsterSchedule@CCineAI@@EAEXPAVCBaseMonster@@@Z 1008f78e f   scripted.obj
 0001:0008e7f4       ?ExitScriptedSequence@CBaseMonster@@QAEHXZ 1008f7f4 f   scripted.obj
 0001:0008e83e       ?AllowInterrupt@CCineMonster@@QAEXH@Z 1008f83e f   scripted.obj
 0001:0008e86c       ?CanInterrupt@CCineMonster@@QAEHXZ 1008f86c f   scripted.obj
 0001:0008e8b8       ?IgnoreConditions@CCineMonster@@UAEHXZ 1008f8b8 f   scripted.obj
 0001:0008e8d8       ?ScriptEntityCancel@@YAXPAUedict_s@@@Z 1008f8d8 f   scripted.obj
 0001:0008e962       ?CancelScript@CCineMonster@@QAEXXZ 1008f962 f   scripted.obj
 0001:0008ea22       ?DelayStart@CCineMonster@@QAEXH@Z 1008fa22 f   scripted.obj
 0001:0008eb19       ?Activate@CCineMonster@@UAEXXZ 1008fb19 f   scripted.obj
 0001:0008ec8d       ?CineCleanup@CBaseMonster@@QAEHXZ 1008fc8d f   scripted.obj
 0001:0008f0bb       ?Save@CScriptedSentence@@UAEHAAVCSave@@@Z 100900bb f   scripted.obj
 0001:0008f0f4       ?Restore@CScriptedSentence@@UAEHAAVCRestore@@@Z 100900f4 f   scripted.obj
 0001:0008f12d       _scripted_sentence         1009012d f   scripted.obj
 0001:0008f13e       ?KeyValue@CScriptedSentence@@UAEXPAUKeyValueData_s@@@Z 1009013e f   scripted.obj
 0001:0008f355       ?Use@CScriptedSentence@@UAEXPAVCBaseEntity@@0W4USE_TYPE@@M@Z 10090355 f   scripted.obj
 0001:0008f38e       ?Spawn@CScriptedSentence@@UAEXXZ 1009038e f   scripted.obj
 0001:0008f47d       ?FindThink@CScriptedSentence@@QAEXXZ 1009047d f   scripted.obj
 0001:0008f529       ?DelayThink@CScriptedSentence@@QAEXXZ 10090529 f   scripted.obj
 0001:0008f578       ?AcceptableSpeaker@CScriptedSentence@@QAEHPAVCBaseMonster@@@Z 10090578 f   scripted.obj
 0001:0008f61f       ?FindEntity@CScriptedSentence@@QAEPAVCBaseMonster@@XZ 1009061f f   scripted.obj
 0001:0008f74d       ?StartSentence@CScriptedSentence@@QAEHPAVCBaseMonster@@@Z 1009074d f   scripted.obj
 0001:0008f8c6       _monster_furniture         100908c6 f   scripted.obj
 0001:0008f8d7       ?Die@CFurniture@@QAEXXZ    100908d7 f   scripted.obj
 0001:0008f8ff       ?Spawn@CFurniture@@UAEXXZ  100908ff f   scripted.obj
 0001:0008fa03       ?Classify@CFurniture@@UAEHXZ 10090a03 f   scripted.obj
 0001:0008fa10       ?GetClassPtr@@YAPAVCCineMonster@@PAV1@@Z 10090a10 f i scripted.obj
 0001:0008faa0       ?GetClassPtr@@YAPAVCCineAI@@PAV1@@Z 10090aa0 f i scripted.obj
 0001:0008fb30       ?GetClassPtr@@YAPAVCScriptedSentence@@PAV1@@Z 10090b30 f i scripted.obj
 0001:0008fbc0       ?GetClassPtr@@YAPAVCFurniture@@PAV1@@Z 10090bc0 f i scripted.obj
 0001:0008fc50       ??0CCineMonster@@QAE@XZ    10090c50 f i scripted.obj
 0001:0008fc70       ??0CCineAI@@QAE@XZ         10090c70 f i scripted.obj
 0001:0008fc90       ??0CScriptedSentence@@QAE@XZ 10090c90 f i scripted.obj
 0001:0008fcb0       ?ObjectCaps@CScriptedSentence@@UAEHXZ 10090cb0 f i scripted.obj
 0001:0008fcd0       ??0CFurniture@@QAE@XZ      10090cd0 f i scripted.obj
 0001:0008fcf0       ?ObjectCaps@CFurniture@@UAEHXZ 10090cf0 f i scripted.obj
 0001:0008fd10       ?ObjectCaps@CCineMonster@@UAEHXZ 10090d10 f i scripted.obj
 0001:0008fd30       _weapon_shotgun            10090d30 f   shotgun.obj
 0001:0008fd41       ?Spawn@CShotgun@@UAEXXZ    10090d41 f   shotgun.obj
 0001:0008fd94       ?Precache@CShotgun@@UAEXXZ 10090d94 f   shotgun.obj
 0001:0008fe76       ?AddToPlayer@CShotgun@@UAEHPAVCBasePlayer@@@Z 10090e76 f   shotgun.obj
 0001:0008fecb       ?GetItemInfo@CShotgun@@UAEHPAUItemInfo@@@Z 10090ecb f   shotgun.obj
 0001:0008ff64       ?Deploy@CShotgun@@UAEHXZ   10090f64 f   shotgun.obj
 0001:0008ff8c       ?PrimaryAttack@CShotgun@@UAEXXZ 10090f8c f   shotgun.obj
 0001:00090351       ?SecondaryAttack@CShotgun@@UAEXXZ 10091351 f   shotgun.obj
 0001:00090710       ?Reload@CShotgun@@UAEXXZ   10091710 f   shotgun.obj
 0001:00090940       ?WeaponIdle@CShotgun@@UAEXXZ 10091940 f   shotgun.obj
 0001:00090bae       _ammo_buckshot             10091bae f   shotgun.obj
 0001:00090bc0       ?GetClassPtr@@YAPAVCShotgun@@PAV1@@Z 10091bc0 f i shotgun.obj
 0001:00090c50       ?GetClassPtr@@YAPAVCShotgunAmmo@@PAV1@@Z 10091c50 f i shotgun.obj
 0001:00090ce0       ??0CShotgun@@QAE@XZ        10091ce0 f i shotgun.obj
 0001:00090d00       ??0CShotgunAmmo@@QAE@XZ    10091d00 f i shotgun.obj
 0001:00090d20       ?Spawn@CShotgunAmmo@@EAEXXZ 10091d20 f i shotgun.obj
 0001:00090d60       ?Precache@CShotgunAmmo@@EAEXXZ 10091d60 f i shotgun.obj
 0001:00090d90       ?AddAmmo@CShotgunAmmo@@EAEHPAVCBaseEntity@@@Z 10091d90 f i shotgun.obj
 0001:00090df0       ?iItemSlot@CShotgun@@UAEHXZ 10091df0 f i shotgun.obj
 0001:00090e00       ?UseDecrement@CShotgun@@UAEHXZ 10091e00 f i shotgun.obj
 0001:00090e10       ??0CHalfLifeRules@@QAE@XZ  10091e10 f   singleplay_gamerules.obj
 0001:00090e37       ?Think@CHalfLifeRules@@UAEXXZ 10091e37 f   singleplay_gamerules.obj
 0001:00090e42       ?IsMultiplayer@CHalfLifeRules@@UAEHXZ 10091e42 f   singleplay_gamerules.obj
 0001:00090e4f       ?IsDeathmatch@CHalfLifeRules@@UAEHXZ 10091e4f f   singleplay_gamerules.obj
 0001:00090e5c       ?IsCoOp@CHalfLifeRules@@UAEHXZ 10091e5c f   singleplay_gamerules.obj
 0001:00090e69       ?FShouldSwitchWeapon@CHalfLifeRules@@UAEHPAVCBasePlayer@@PAVCBasePlayerItem@@@Z 10091e69 f   singleplay_gamerules.obj
 0001:00090eb0       ?GetNextBestWeapon@CHalfLifeRules@@UAEHPAVCBasePlayer@@PAVCBasePlayerItem@@@Z 10091eb0 f   singleplay_gamerules.obj
 0001:00090ebf       ?ClientConnected@CHalfLifeRules@@UAEHPAUedict_s@@PBD1QAD@Z 10091ebf f   singleplay_gamerules.obj
 0001:00090ed1       ?InitHUD@CHalfLifeRules@@UAEXPAVCBasePlayer@@@Z 10091ed1 f   singleplay_gamerules.obj
 0001:00090ede       ?ClientDisconnected@CHalfLifeRules@@UAEXPAUedict_s@@@Z 10091ede f   singleplay_gamerules.obj
 0001:00090eeb       ?FlPlayerFallDamage@CHalfLifeRules@@UAEMPAVCBasePlayer@@@Z 10091eeb f   singleplay_gamerules.obj
 0001:00090f25       ?PlayerSpawn@CHalfLifeRules@@UAEXPAVCBasePlayer@@@Z 10091f25 f   singleplay_gamerules.obj
 0001:00090f32       ?AllowAutoTargetCrosshair@CHalfLifeRules@@UAEHXZ 10091f32 f   singleplay_gamerules.obj
 0001:00090f49       ?PlayerThink@CHalfLifeRules@@UAEXPAVCBasePlayer@@@Z 10091f49 f   singleplay_gamerules.obj
 0001:00090f56       ?FPlayerCanRespawn@CHalfLifeRules@@UAEHPAVCBasePlayer@@@Z 10091f56 f   singleplay_gamerules.obj
 0001:00090f68       ?FlPlayerSpawnTime@CHalfLifeRules@@UAEMPAVCBasePlayer@@@Z 10091f68 f   singleplay_gamerules.obj
 0001:00090f7c       ?IPointsForKill@CHalfLifeRules@@UAEHPAVCBasePlayer@@0@Z 10091f7c f   singleplay_gamerules.obj
 0001:00090f8e       ?PlayerKilled@CHalfLifeRules@@UAEXPAVCBasePlayer@@PAUentvars_s@@1@Z 10091f8e f   singleplay_gamerules.obj
 0001:00090f9b       ?DeathNotice@CHalfLifeRules@@UAEXPAVCBasePlayer@@PAUentvars_s@@1@Z 10091f9b f   singleplay_gamerules.obj
 0001:00090fa8       ?PlayerGotWeapon@CHalfLifeRules@@UAEXPAVCBasePlayer@@PAVCBasePlayerItem@@@Z 10091fa8 f   singleplay_gamerules.obj
 0001:00090fb5       ?FlWeaponRespawnTime@CHalfLifeRules@@UAEMPAVCBasePlayerItem@@@Z 10091fb5 f   singleplay_gamerules.obj
 0001:00090fc8       ?FlWeaponTryRespawn@CHalfLifeRules@@UAEMPAVCBasePlayerItem@@@Z 10091fc8 f   singleplay_gamerules.obj
 0001:00090fdb       ?VecWeaponRespawnSpot@CHalfLifeRules@@UAE?AVVector@@PAVCBasePlayerItem@@@Z 10091fdb f   singleplay_gamerules.obj
 0001:00090ffd       ?WeaponShouldRespawn@CHalfLifeRules@@UAEHPAVCBasePlayerItem@@@Z 10091ffd f   singleplay_gamerules.obj
 0001:0009100f       ?CanHaveItem@CHalfLifeRules@@UAEHPAVCBasePlayer@@PAVCItem@@@Z 1009200f f   singleplay_gamerules.obj
 0001:00091021       ?PlayerGotItem@CHalfLifeRules@@UAEXPAVCBasePlayer@@PAVCItem@@@Z 10092021 f   singleplay_gamerules.obj
 0001:0009102e       ?ItemShouldRespawn@CHalfLifeRules@@UAEHPAVCItem@@@Z 1009202e f   singleplay_gamerules.obj
 0001:00091040       ?FlItemRespawnTime@CHalfLifeRules@@UAEMPAVCItem@@@Z 10092040 f   singleplay_gamerules.obj
 0001:00091053       ?VecItemRespawnSpot@CHalfLifeRules@@UAE?AVVector@@PAVCItem@@@Z 10092053 f   singleplay_gamerules.obj
 0001:00091075       ?IsAllowedToSpawn@CHalfLifeRules@@UAEHPAVCBaseEntity@@@Z 10092075 f   singleplay_gamerules.obj
 0001:00091087       ?PlayerGotAmmo@CHalfLifeRules@@UAEXPAVCBasePlayer@@PADH@Z 10092087 f   singleplay_gamerules.obj
 0001:00091094       ?AmmoShouldRespawn@CHalfLifeRules@@UAEHPAVCBasePlayerAmmo@@@Z 10092094 f   singleplay_gamerules.obj
 0001:000910a6       ?FlAmmoRespawnTime@CHalfLifeRules@@UAEMPAVCBasePlayerAmmo@@@Z 100920a6 f   singleplay_gamerules.obj
 0001:000910b9       ?VecAmmoRespawnSpot@CHalfLifeRules@@UAE?AVVector@@PAVCBasePlayerAmmo@@@Z 100920b9 f   singleplay_gamerules.obj
 0001:000910db       ?FlHealthChargerRechargeTime@CHalfLifeRules@@UAEMXZ 100920db f   singleplay_gamerules.obj
 0001:000910ec       ?DeadPlayerWeapons@CHalfLifeRules@@UAEHPAVCBasePlayer@@@Z 100920ec f   singleplay_gamerules.obj
 0001:000910fe       ?DeadPlayerAmmo@CHalfLifeRules@@UAEHPAVCBasePlayer@@@Z 100920fe f   singleplay_gamerules.obj
 0001:00091110       ?PlayerRelationship@CHalfLifeRules@@UAEHPAVCBaseEntity@@0@Z 10092110 f   singleplay_gamerules.obj
 0001:0009111f       ?FAllowMonsters@CHalfLifeRules@@UAEHXZ 1009211f f   singleplay_gamerules.obj
 0001:00091130       ?FAllowFlashlight@CHalfLifeRules@@UAEHXZ 10092130 f i singleplay_gamerules.obj
 0001:00091140       ?GetTeamID@CHalfLifeRules@@UAEPBDPAVCBaseEntity@@@Z 10092140 f i singleplay_gamerules.obj
 0001:00091160       ?GetSkillCvar@@YAMPAD@Z    10092160 f   skill.obj
 0001:000911c0       _ambient_generic           100921c0 f   sound.obj
 0001:000911d1       ?Save@CAmbientGeneric@@UAEHAAVCSave@@@Z 100921d1 f   sound.obj
 0001:0009120a       ?Restore@CAmbientGeneric@@UAEHAAVCRestore@@@Z 1009220a f   sound.obj
 0001:00091243       ?Spawn@CAmbientGeneric@@UAEXXZ 10092243 f   sound.obj
 0001:0009140f       ?Precache@CAmbientGeneric@@UAEXXZ 1009240f f   sound.obj
 0001:00091527       ?RampThink@CAmbientGeneric@@QAEXXZ 10092527 f   sound.obj
 0001:00091a90       ?InitModulationParms@CAmbientGeneric@@QAEXXZ 10092a90 f   sound.obj
 0001:00091d8b       ?ToggleUse@CAmbientGeneric@@QAEXPAVCBaseEntity@@0W4USE_TYPE@@M@Z 10092d8b f   sound.obj
 0001:000920dc       ?KeyValue@CAmbientGeneric@@UAEXPAUKeyValueData_s@@@Z 100930dc f   sound.obj
 0001:000926c9       _env_sound                 100936c9 f   sound.obj
 0001:000926da       ?Save@CEnvSound@@UAEHAAVCSave@@@Z 100936da f   sound.obj
 0001:00092713       ?Restore@CEnvSound@@UAEHAAVCRestore@@@Z 10093713 f   sound.obj
 0001:0009274c       ?KeyValue@CEnvSound@@UAEXPAUKeyValueData_s@@@Z 1009374c f   sound.obj
 0001:000927c7       ?FEnvSoundInRange@@YAHPAUentvars_s@@0PAM@Z 100937c7 f   sound.obj
 0001:000928c8       ?Think@CEnvSound@@UAEXXZ   100938c8 f   sound.obj
 0001:00092ad5       ?Spawn@CEnvSound@@UAEXXZ   10093ad5 f   sound.obj
 0001:00092b03       ?USENTENCEG_InitLRU@@YAXPAEH@Z 10093b03 f   sound.obj
 0001:00092bbe       ?USENTENCEG_PickSequential@@YAHHPADHH@Z 10093bbe f   sound.obj
 0001:00092ca3       ?USENTENCEG_Pick@@YAHHPAD@Z 10093ca3 f   sound.obj
 0001:00092dec       ?SENTENCEG_GetIndex@@YAHPBD@Z 10093dec f   sound.obj
 0001:00092e4e       ?SENTENCEG_PlayRndI@@YAHPAUedict_s@@HMMHH@Z 10093e4e f   sound.obj
 0001:00092eaf       ?SENTENCEG_PlayRndSz@@YAHPAUedict_s@@PBDMMHH@Z 10093eaf f   sound.obj
 0001:00092f3f       ?SENTENCEG_PlaySequentialSz@@YAHPAUedict_s@@PBDMMHHHH@Z 10093f3f f   sound.obj
 0001:00092fc3       ?SENTENCEG_Stop@@YAXPAUedict_s@@HH@Z 10093fc3 f   sound.obj
 0001:00093047       ?SENTENCEG_Init@@YAXXZ     10094047 f   sound.obj
 0001:00093403       ?SENTENCEG_Lookup@@YAHPBDPAD@Z 10094403 f   sound.obj
 0001:0009348f       ?EMIT_SOUND_DYN@@YAXPAUedict_s@@HPBDMMHH@Z 1009448f f   sound.obj
 0001:00093520       ?EMIT_SOUND_SUIT@@YAXPAUedict_s@@PBD@Z 10094520 f   sound.obj
 0001:00093597       ?EMIT_GROUPID_SUIT@@YAXPAUedict_s@@H@Z 10094597 f   sound.obj
 0001:0009360c       ?EMIT_GROUPNAME_SUIT@@YAXPAUedict_s@@PBD@Z 1009460c f   sound.obj
 0001:00093762       ?TEXTURETYPE_Init@@YAXXZ   10094762 f   sound.obj
 0001:000939f5       ?TEXTURETYPE_Find@@YADPAD@Z 100949f5 f   sound.obj
 0001:00093a48       ?TEXTURETYPE_PlaySound@@YAMPAUTraceResult@@VVector@@1H@Z 10094a48 f   sound.obj
 0001:00093f7e       _speaker                   10094f7e f   sound.obj
 0001:00093f8f       ?Save@CSpeaker@@UAEHAAVCSave@@@Z 10094f8f f   sound.obj
 0001:00093fc8       ?Restore@CSpeaker@@UAEHAAVCRestore@@@Z 10094fc8 f   sound.obj
 0001:00094001       ?Spawn@CSpeaker@@UAEXXZ    10095001 f   sound.obj
 0001:00094114       ?Precache@CSpeaker@@UAEXXZ 10095114 f   sound.obj
 0001:00094158       ?SpeakerThink@CSpeaker@@QAEXXZ 10095158 f   sound.obj
 0001:00094385       ?ToggleUse@CSpeaker@@QAEXPAVCBaseEntity@@0W4USE_TYPE@@M@Z 10095385 f   sound.obj
 0001:00094454       ?KeyValue@CSpeaker@@UAEXPAUKeyValueData_s@@@Z 10095454 f   sound.obj
 0001:000944b0       ?CopyToArray@Vector@@QBEXPAM@Z 100954b0 f i sound.obj
 0001:000944e0       ?GetClassPtr@@YAPAVCAmbientGeneric@@PAV1@@Z 100954e0 f i sound.obj
 0001:00094570       ?GetClassPtr@@YAPAVCEnvSound@@PAV1@@Z 10095570 f i sound.obj
 0001:00094600       ?GetClassPtr@@YAPAVCSpeaker@@PAV1@@Z 10095600 f i sound.obj
 0001:00094690       ??0CAmbientGeneric@@QAE@XZ 10095690 f i sound.obj
 0001:000946b0       ?ObjectCaps@CAmbientGeneric@@UAEHXZ 100956b0 f i sound.obj
 0001:000946d0       ??0CEnvSound@@QAE@XZ       100956d0 f i sound.obj
 0001:000946f0       ??0CSpeaker@@QAE@XZ        100956f0 f i sound.obj
 0001:00094710       ?ObjectCaps@CSpeaker@@UAEHXZ 10095710 f i sound.obj
 0001:00094730       _soundent                  10095730 f   soundent.obj
 0001:00094741       ?Clear@CSound@@QAEXXZ      10095741 f   soundent.obj
 0001:0009479b       ?Reset@CSound@@QAEXXZ      1009579b f   soundent.obj
 0001:000947e1       ?FIsSound@CSound@@QAEHXZ   100957e1 f   soundent.obj
 0001:00094802       ?FIsScent@CSound@@QAEHXZ   10095802 f   soundent.obj
 0001:00094823       ?Spawn@CSoundEnt@@UAEXXZ   10095823 f   soundent.obj
 0001:00094860       ?Think@CSoundEnt@@UAEXXZ   10095860 f   soundent.obj
 0001:00094965       ?Precache@CSoundEnt@@UAEXXZ 10095965 f   soundent.obj
 0001:00094970       ?FreeSound@CSoundEnt@@SAXHH@Z 10095970 f   soundent.obj
 0001:000949e6       ?IAllocSound@CSoundEnt@@QAEHXZ 100959e6 f   soundent.obj
 0001:00094a4f       ?InsertSound@CSoundEnt@@SAXHABVVector@@HM@Z 10095a4f f   soundent.obj
 0001:00094aee       ?Initialize@CSoundEnt@@QAEXXZ 10095aee f   soundent.obj
 0001:00094bf2       ?ISoundsInList@CSoundEnt@@QAEHH@Z 10095bf2 f   soundent.obj
 0001:00094c68       ?ActiveList@CSoundEnt@@SAHXZ 10095c68 f   soundent.obj
 0001:00094c83       ?FreeList@CSoundEnt@@SAHXZ 10095c83 f   soundent.obj
 0001:00094c9e       ?SoundPointerForIndex@CSoundEnt@@SAPAVCSound@@H@Z 10095c9e f   soundent.obj
 0001:00094cf4       ?ClientSoundIndex@CSoundEnt@@SAHPAUedict_s@@@Z 10095cf4 f   soundent.obj
 0001:00094d20       ?GetClassPtr@@YAPAVCSoundEnt@@PAV1@@Z 10095d20 f i soundent.obj
 0001:00094db0       ??0CSoundEnt@@QAE@XZ       10095db0 f i soundent.obj
 0001:00094df0       ??0CSound@@QAE@XZ          10095df0 f i soundent.obj
 0001:00094e10       ?ObjectCaps@CSoundEnt@@UAEHXZ 10095e10 f i soundent.obj
 0001:00094e20       ?SpectatorConnect@CBaseSpectator@@QAEXXZ 10095e20 f   spectator.obj
 0001:00094e65       ?SpectatorDisconnect@CBaseSpectator@@QAEXXZ 10095e65 f   spectator.obj
 0001:00094e70       ?SpectatorImpulseCommand@CBaseSpectator@@AAEXXZ 10095e70 f   spectator.obj
 0001:00094f84       ?SpectatorThink@CBaseSpectator@@QAEXXZ 10095f84 f   spectator.obj
 0001:00094fec       ?Spawn@CBaseSpectator@@UAEXXZ 10095fec f   spectator.obj
 0001:00095040       ?Save@CSquadMonster@@UAEHAAVCSave@@@Z 10096040 f   squadmonster.obj
 0001:00095079       ?Restore@CSquadMonster@@UAEHAAVCRestore@@@Z 10096079 f   squadmonster.obj
 0001:000950b2       ?OccupySlot@CSquadMonster@@QAEHH@Z 100960b2 f   squadmonster.obj
 0001:0009518a       ?VacateSlot@CSquadMonster@@QAEXXZ 1009618a f   squadmonster.obj
 0001:000951e3       ?ScheduleChange@CSquadMonster@@UAEXXZ 100961e3 f   squadmonster.obj
 0001:000951f6       ?Killed@CSquadMonster@@UAEXPAUentvars_s@@H@Z 100961f6 f   squadmonster.obj
 0001:0009523a       ?SquadRemove@CSquadMonster@@QAEXPAV1@@Z 1009623a f   squadmonster.obj
 0001:00095313       ?SquadAdd@CSquadMonster@@QAEHPAV1@@Z 10096313 f   squadmonster.obj
 0001:00095383       ?SquadPasteEnemyInfo@CSquadMonster@@QAEXXZ 10096383 f   squadmonster.obj
 0001:000953c2       ?SquadCopyEnemyInfo@CSquadMonster@@QAEXXZ 100963c2 f   squadmonster.obj
 0001:00095401       ?SquadMakeEnemy@CSquadMonster@@QAEXPAVCBaseEntity@@@Z 10096401 f   squadmonster.obj
 0001:00095519       ?SquadCount@CSquadMonster@@QAEHXZ 10096519 f   squadmonster.obj
 0001:0009557e       ?SquadRecruit@CSquadMonster@@QAEHHH@Z 1009657e f   squadmonster.obj
 0001:00095853       ?CheckEnemy@CSquadMonster@@UAEHPAVCBaseEntity@@@Z 10096853 f   squadmonster.obj
 0001:000958ce       ?StartMonster@CSquadMonster@@UAEXXZ 100968ce f   squadmonster.obj
 0001:000959b9       ?NoFriendlyFire@CSquadMonster@@QAEHXZ 100969b9 f   squadmonster.obj
 0001:00095c54       ?GetIdealState@CSquadMonster@@UAE?AW4MONSTERSTATE@@XZ 10096c54 f   squadmonster.obj
 0001:00095cc2       ?FValidateCover@CSquadMonster@@UAEHABVVector@@@Z 10096cc2 f   squadmonster.obj
 0001:00095d00       ?SquadEnemySplit@CSquadMonster@@QAEHXZ 10096d00 f   squadmonster.obj
 0001:00095d96       ?SquadMemberInRange@CSquadMonster@@QAEHABVVector@@M@Z 10096d96 f   squadmonster.obj
 0001:00095e1f       ?GetScheduleOfType@CSquadMonster@@UAEPAUSchedule_t@@H@Z 10096e1f f   squadmonster.obj
 0001:00095e50       _monster_snark             10096e50 f   squeakgrenade.obj
 0001:00095e61       ?Save@CSqueakGrenade@@EAEHAAVCSave@@@Z 10096e61 f   squeakgrenade.obj
 0001:00095e9a       ?Restore@CSqueakGrenade@@EAEHAAVCRestore@@@Z 10096e9a f   squeakgrenade.obj
 0001:00095ed3       ?Classify@CSqueakGrenade@@EAEHXZ 10096ed3 f   squeakgrenade.obj
 0001:00095f69       ?Spawn@CSqueakGrenade@@EAEXXZ 10096f69 f   squeakgrenade.obj
 0001:00096145       ?Precache@CSqueakGrenade@@EAEXXZ 10097145 f   squeakgrenade.obj
 0001:000961c0       ?Killed@CSqueakGrenade@@EAEXPAUentvars_s@@H@Z 100971c0 f   squeakgrenade.obj
 0001:0009633e       ?GibMonster@CSqueakGrenade@@EAEXXZ 1009733e f   squeakgrenade.obj
 0001:00096379       ?HuntThink@CSqueakGrenade@@AAEXXZ 10097379 f   squeakgrenade.obj
 0001:00096a48       ?SuperBounceTouch@CSqueakGrenade@@AAEXPAVCBaseEntity@@@Z 10097a48 f   squeakgrenade.obj
 0001:00096de7       _weapon_snark              10097de7 f   squeakgrenade.obj
 0001:00096df8       ?Spawn@CSqueak@@UAEXXZ     10097df8 f   squeakgrenade.obj
 0001:00096e7f       ?Precache@CSqueak@@UAEXXZ  10097e7f f   squeakgrenade.obj
 0001:00096ef7       ?GetItemInfo@CSqueak@@UAEHPAUItemInfo@@@Z 10097ef7 f   squeakgrenade.obj
 0001:00096f90       ?Deploy@CSqueak@@UAEHXZ    10097f90 f   squeakgrenade.obj
 0001:00097049       ?Holster@CSqueak@@UAEXH@Z  10098049 f   squeakgrenade.obj
 0001:00097114       ?PrimaryAttack@CSqueak@@UAEXXZ 10098114 f   squeakgrenade.obj
 0001:00097482       ?SecondaryAttack@CSqueak@@UAEXXZ 10098482 f   squeakgrenade.obj
 0001:0009748d       ?WeaponIdle@CSqueak@@UAEXXZ 1009848d f   squeakgrenade.obj
 0001:00097600       ?GetClassPtr@@YAPAVCSqueakGrenade@@PAV1@@Z 10098600 f i squeakgrenade.obj
 0001:00097690       ?GetClassPtr@@YAPAVCSqueak@@PAV1@@Z 10098690 f i squeakgrenade.obj
 0001:00097720       ??0CSqueakGrenade@@QAE@XZ  10098720 f i squeakgrenade.obj
 0001:00097760       ?BloodColor@CSqueakGrenade@@EAEHXZ 10098760 f i squeakgrenade.obj
 0001:00097770       ??0CSqueak@@QAE@XZ         10098770 f i squeakgrenade.obj
 0001:00097790       ?iItemSlot@CSqueak@@UAEHXZ 10098790 f i squeakgrenade.obj
 0001:000977a0       ?UseDecrement@CSqueak@@UAEHXZ 100987a0 f i squeakgrenade.obj
 0001:000977b0       ?Spawn@CPointEntity@@UAEXXZ 100987b0 f   subs.obj
 0001:00097865       ?Spawn@CNullEntity@@UAEXXZ 10098865 f   subs.obj
 0001:00097889       _info_null                 10098889 f   subs.obj
 0001:0009789a       _info_player_deathmatch    1009889a f   subs.obj
 0001:000978ab       _info_player_start         100988ab f   subs.obj
 0001:000978bc       _info_landmark             100988bc f   subs.obj
 0001:000978cd       ?KeyValue@CBaseDMStart@@UAEXPAUKeyValueData_s@@@Z 100988cd f   subs.obj
 0001:00097926       ?IsTriggered@CBaseDMStart@@UAEHPAVCBaseEntity@@@Z 10098926 f   subs.obj
 0001:00097954       ?UpdateOnRemove@CBaseEntity@@QAEXXZ 10098954 f   subs.obj
 0001:000979e3       ?SUB_Remove@CBaseEntity@@QAEXXZ 100989e3 f   subs.obj
 0001:00097a48       ?SUB_DoNothing@CBaseEntity@@QAEXXZ 10098a48 f   subs.obj
 0001:00097a53       ?Save@CBaseDelay@@UAEHAAVCSave@@@Z 10098a53 f   subs.obj
 0001:00097a8c       ?Restore@CBaseDelay@@UAEHAAVCRestore@@@Z 10098a8c f   subs.obj
 0001:00097ac5       ?KeyValue@CBaseDelay@@UAEXPAUKeyValueData_s@@@Z 10098ac5 f   subs.obj
 0001:00097b51       ?SUB_UseTargets@CBaseEntity@@QAEXPAV1@W4USE_TYPE@@M@Z 10098b51 f   subs.obj
 0001:00097ba7       ?FireTargets@@YAXPBDPAVCBaseEntity@@1W4USE_TYPE@@M@Z 10098ba7 f   subs.obj
 0001:00097c73       _DelayedUse                10098c73 f   subs.obj
 0001:00097c84       ?SUB_UseTargets@CBaseDelay@@QAEXPAVCBaseEntity@@W4USE_TYPE@@M@Z 10098c84 f   subs.obj
 0001:00097ea7       ?SetMovedir@@YAXPAUentvars_s@@@Z 10098ea7 f   subs.obj
 0001:00097f93       ?DelayThink@CBaseDelay@@QAEXXZ 10098f93 f   subs.obj
 0001:00098002       ?Save@CBaseToggle@@UAEHAAVCSave@@@Z 10099002 f   subs.obj
 0001:0009803b       ?Restore@CBaseToggle@@UAEHAAVCRestore@@@Z 1009903b f   subs.obj
 0001:00098074       ?KeyValue@CBaseToggle@@UAEXPAUKeyValueData_s@@@Z 10099074 f   subs.obj
 0001:0009817e       ?LinearMove@CBaseToggle@@QAEXVVector@@M@Z 1009917e f   subs.obj
 0001:00098241       ?LinearMoveDone@CBaseToggle@@QAEXXZ 10099241 f   subs.obj
 0001:000982ae       ?IsLockedByMaster@CBaseToggle@@QAEHXZ 100992ae f   subs.obj
 0001:000982f3       ?AngularMove@CBaseToggle@@QAEXVVector@@M@Z 100992f3 f   subs.obj
 0001:000983b6       ?AngularMoveDone@CBaseToggle@@QAEXXZ 100993b6 f   subs.obj
 0001:0009842b       ?AxisValue@CBaseToggle@@SAMHABVVector@@@Z 1009942b f   subs.obj
 0001:0009845c       ?AxisDir@CBaseToggle@@SAXPAUentvars_s@@@Z 1009945c f   subs.obj
 0001:00098502       ?AxisDelta@CBaseToggle@@SAMHABVVector@@0@Z 10099502 f   subs.obj
 0001:00098543       ?FEntIsVisible@@YAHPAUentvars_s@@0@Z 10099543 f   subs.obj
 0001:000985e0       ?GetClassPtr@@YAPAVCNullEntity@@PAV1@@Z 100995e0 f i subs.obj
 0001:00098670       ?GetClassPtr@@YAPAVCBaseDMStart@@PAV1@@Z 10099670 f i subs.obj
 0001:00098700       ?GetClassPtr@@YAPAVCBaseDelay@@PAV1@@Z 10099700 f i subs.obj
 0001:00098790       ??0CNullEntity@@QAE@XZ     10099790 f i subs.obj
 0001:000987b0       ??0CBaseDMStart@@QAE@XZ    100997b0 f i subs.obj
 0001:000987d0       ?Save@CTalkMonster@@UAEHAAVCSave@@@Z 100997d0 f   talkmonster.obj
 0001:00098809       ?Restore@CTalkMonster@@UAEHAAVCRestore@@@Z 10099809 f   talkmonster.obj
 0001:00098842       ?ScheduleFromName@CTalkMonster@@UAEPAUSchedule_t@@PBD@Z 10099842 f   talkmonster.obj
 0001:0009887e       ?SetActivity@CTalkMonster@@UAEXW4Activity@@@Z 1009987e f   talkmonster.obj
 0001:000988cc       ?StartTask@CTalkMonster@@UAEXPAUTask_t@@@Z 100998cc f   talkmonster.obj
 0001:00098d29       ?RunTask@CTalkMonster@@UAEXPAUTask_t@@@Z 10099d29 f   talkmonster.obj
 0001:000990fb       ?Killed@CTalkMonster@@UAEXPAUentvars_s@@H@Z 1009a0fb f   talkmonster.obj
 0001:00099175       ?EnumFriends@CTalkMonster@@QAEPAVCBaseEntity@@PAV2@HH@Z 1009a175 f   talkmonster.obj
 0001:0009926f       ?AlertFriends@CTalkMonster@@QAEXXZ 1009a26f f   talkmonster.obj
 0001:000992ef       ?ShutUpFriends@CTalkMonster@@QAEXXZ 1009a2ef f   talkmonster.obj
 0001:0009935c       ?LimitFollowers@CTalkMonster@@QAEXPAVCBaseEntity@@H@Z 1009a35c f   talkmonster.obj
 0001:000993f8       ?TargetDistance@CTalkMonster@@QAEMXZ 1009a3f8 f   talkmonster.obj
 0001:00099470       ?HandleAnimEvent@CTalkMonster@@UAEXPAUMonsterEvent_t@@@Z 1009a470 f   talkmonster.obj
 0001:000994fa       ?TalkInit@CTalkMonster@@QAEXXZ 1009a4fa f   talkmonster.obj
 0001:0009951c       ?FindNearestFriend@CTalkMonster@@QAEPAVCBaseEntity@@H@Z 1009a51c f   talkmonster.obj
 0001:00099732       ?GetVoicePitch@CTalkMonster@@QAEHXZ 1009a732 f   talkmonster.obj
 0001:00099755       ?Touch@CTalkMonster@@UAEXPAVCBaseEntity@@@Z 1009a755 f   talkmonster.obj
 0001:0009980f       ?IdleRespond@CTalkMonster@@QAEXXZ 1009a80f f   talkmonster.obj
 0001:0009985f       ?FOkToSpeak@CTalkMonster@@QAEHXZ 1009a85f f   talkmonster.obj
 0001:00099956       ?CanPlaySentence@CTalkMonster@@UAEHH@Z 1009a956 f   talkmonster.obj
 0001:0009997f       ?FIdleStare@CTalkMonster@@QAEHXZ 1009a97f f   talkmonster.obj
 0001:000999f0       ?FIdleHello@CTalkMonster@@QAEHXZ 1009a9f0 f   talkmonster.obj
 0001:00099b26       ?IdleHeadTurn@CTalkMonster@@QAEXAAVVector@@@Z 1009ab26 f   talkmonster.obj
 0001:00099bc5       ?FIdleSpeak@CTalkMonster@@QAEHXZ 1009abc5 f   talkmonster.obj
 0001:00099fc6       ?PlayScriptedSentence@CTalkMonster@@UAEXPBDMMMHPAVCBaseEntity@@@Z 1009afc6 f   talkmonster.obj
 0001:0009a031       ?PlaySentence@CTalkMonster@@UAEXPBDMMM@Z 1009b031 f   talkmonster.obj
 0001:0009a0e0       ?Talk@CTalkMonster@@QAEXM@Z 1009b0e0 f   talkmonster.obj
 0001:0009a129       ?SetAnswerQuestion@CTalkMonster@@UAEXPAV1@@Z 1009b129 f   talkmonster.obj
 0001:0009a161       ?TakeDamage@CTalkMonster@@UAEHPAUentvars_s@@0MH@Z 1009b161 f   talkmonster.obj
 0001:0009a1f4       ?GetScheduleOfType@CTalkMonster@@UAEPAUSchedule_t@@H@Z 1009b1f4 f   talkmonster.obj
 0001:0009a51d       ?IsTalking@CTalkMonster@@QAEHXZ 1009b51d f   talkmonster.obj
 0001:0009a549       ?PrescheduleThink@CTalkMonster@@UAEXXZ 1009b549 f   talkmonster.obj
 0001:0009a572       ?TrySmellTalk@CTalkMonster@@QAEXXZ 1009b572 f   talkmonster.obj
 0001:0009a63e       ?IRelationship@CTalkMonster@@UAEHPAVCBaseEntity@@@Z 1009b63e f   talkmonster.obj
 0001:0009a680       ?StopFollowing@CTalkMonster@@UAEXH@Z 1009b680 f   talkmonster.obj
 0001:0009a754       ?StartFollowing@CTalkMonster@@QAEXPAVCBaseEntity@@@Z 1009b754 f   talkmonster.obj
 0001:0009a817       ?CanFollow@CTalkMonster@@QAEHXZ 1009b817 f   talkmonster.obj
 0001:0009a867       ?FollowerUse@CTalkMonster@@QAEXPAVCBaseEntity@@0W4USE_TYPE@@M@Z 1009b867 f   talkmonster.obj
 0001:0009a945       ?KeyValue@CTalkMonster@@UAEXPAUKeyValueData_s@@@Z 1009b945 f   talkmonster.obj
 0001:0009a9d8       ?Precache@CTalkMonster@@UAEXXZ 1009b9d8 f   talkmonster.obj
 0001:0009aa40       ?StopTalking@CTalkMonster@@QAEXXZ 1009ba40 f i talkmonster.obj
 0001:0009aa60       ??0CHalfLifeTeamplay@@QAE@XZ 1009ba60 f   teamplay_gamerules.obj
 0001:0009ab94       ?Think@CHalfLifeTeamplay@@UAEXXZ 1009bb94 f   teamplay_gamerules.obj
 0001:0009ad56       ?ClientCommand@CHalfLifeTeamplay@@UAEHPAVCBasePlayer@@PBD@Z 1009bd56 f   teamplay_gamerules.obj
 0001:0009adce       ?UpdateGameMode@CHalfLifeTeamplay@@UAEXPAVCBasePlayer@@@Z 1009bdce f   teamplay_gamerules.obj
 0001:0009ae07       ?SetDefaultPlayerTeam@CHalfLifeTeamplay@@UAEPBDPAVCBasePlayer@@@Z 1009be07 f   teamplay_gamerules.obj
 0001:0009aee7       ?InitHUD@CHalfLifeTeamplay@@UAEXPAVCBasePlayer@@@Z 1009bee7 f   teamplay_gamerules.obj
 0001:0009b14c       ?ChangePlayerTeam@CHalfLifeTeamplay@@UAEXPAVCBasePlayer@@PBDHH@Z 1009c14c f   teamplay_gamerules.obj
 0001:0009b321       ?ClientUserInfoChanged@CHalfLifeTeamplay@@UAEXPAVCBasePlayer@@PAD@Z 1009c321 f   teamplay_gamerules.obj
 0001:0009b5bd       ?DeathNotice@CHalfLifeTeamplay@@UAEXPAVCBasePlayer@@PAUentvars_s@@1@Z 1009c5bd f   teamplay_gamerules.obj
 0001:0009b6b6       ?PlayerKilled@CHalfLifeTeamplay@@UAEXPAVCBasePlayer@@PAUentvars_s@@1@Z 1009c6b6 f   teamplay_gamerules.obj
 0001:0009b6ea       ?IsTeamplay@CHalfLifeTeamplay@@UAEHXZ 1009c6ea f   teamplay_gamerules.obj
 0001:0009b6fa       ?FPlayerCanTakeDamage@CHalfLifeTeamplay@@UAEHPAVCBasePlayer@@PAVCBaseEntity@@@Z 1009c6fa f   teamplay_gamerules.obj
 0001:0009b757       ?PlayerRelationship@CHalfLifeTeamplay@@UAEHPAVCBaseEntity@@0@Z 1009c757 f   teamplay_gamerules.obj
 0001:0009b7f3       ?ShouldAutoAim@CHalfLifeTeamplay@@UAEHPAVCBasePlayer@@PAUedict_s@@@Z 1009c7f3 f   teamplay_gamerules.obj
 0001:0009b858       ?IPointsForKill@CHalfLifeTeamplay@@UAEHPAVCBasePlayer@@0@Z 1009c858 f   teamplay_gamerules.obj
 0001:0009b8a9       ?GetTeamID@CHalfLifeTeamplay@@UAEPBDPAVCBaseEntity@@@Z 1009c8a9 f   teamplay_gamerules.obj
 0001:0009b8da       ?GetTeamIndex@CHalfLifeTeamplay@@UAEHPBD@Z 1009c8da f   teamplay_gamerules.obj
 0001:0009b93d       ?GetIndexedTeamName@CHalfLifeTeamplay@@UAEPBDH@Z 1009c93d f   teamplay_gamerules.obj
 0001:0009b96d       ?IsValidTeam@CHalfLifeTeamplay@@UAEHPBD@Z 1009c96d f   teamplay_gamerules.obj
 0001:0009b9a6       ?TeamWithFewestPlayers@CHalfLifeTeamplay@@AAEPBDXZ 1009c9a6 f   teamplay_gamerules.obj
 0001:0009bae8       ?RecountTeams@CHalfLifeTeamplay@@AAEX_N@Z 1009cae8 f   teamplay_gamerules.obj
 0001:0009bda0       ?GetGameDescription@CHalfLifeTeamplay@@UAEPBDXZ 1009cda0 f i teamplay_gamerules.obj
 0001:0009bdb0       _monster_tentacle          1009cdb0 f   tentacle.obj
 0001:0009bdc1       ?Save@CTentacle@@UAEHAAVCSave@@@Z 1009cdc1 f   tentacle.obj
 0001:0009bdfa       ?Restore@CTentacle@@UAEHAAVCRestore@@@Z 1009cdfa f   tentacle.obj
 0001:0009be33       ?Classify@CTentacle@@UAEHXZ 1009ce33 f   tentacle.obj
 0001:0009be43       ?Spawn@CTentacle@@UAEXXZ   1009ce43 f   tentacle.obj
 0001:0009c02d       ?Precache@CTentacle@@UAEXXZ 1009d02d f   tentacle.obj
 0001:0009c1ce       ??0CTentacle@@QAE@XZ       1009d1ce f   tentacle.obj
 0001:0009c215       ?KeyValue@CTentacle@@UAEXPAUKeyValueData_s@@@Z 1009d215 f   tentacle.obj
 0001:0009c2ac       ?Level@CTentacle@@QAEHM@Z  1009d2ac f   tentacle.obj
 0001:0009c300       ?MyHeight@CTentacle@@QAEMXZ 1009d300 f   tentacle.obj
 0001:0009c34a       ?MyLevel@CTentacle@@QAEHXZ 1009d34a f   tentacle.obj
 0001:0009c405       ?Test@CTentacle@@QAEXXZ    1009d405 f   tentacle.obj
 0001:0009c45b       ?Cycle@CTentacle@@QAEXXZ   1009d45b f   tentacle.obj
 0001:0009d1d9       ?CommandUse@CTentacle@@QAEXPAVCBaseEntity@@0W4USE_TYPE@@M@Z 1009e1d9 f   tentacle.obj
 0001:0009d278       ?DieThink@CTentacle@@QAEXXZ 1009e278 f   tentacle.obj
 0001:0009d49c       ?HandleAnimEvent@CTentacle@@UAEXPAUMonsterEvent_t@@@Z 1009e49c f   tentacle.obj
 0001:0009da22       ?Start@CTentacle@@QAEXXZ   1009ea22 f   tentacle.obj
 0001:0009dad0       ?HitTouch@CTentacle@@QAEXPAVCBaseEntity@@@Z 1009ead0 f   tentacle.obj
 0001:0009dbc0       ?TakeDamage@CTentacle@@UAEHPAUentvars_s@@0MH@Z 1009ebc0 f   tentacle.obj
 0001:0009dc15       ?Killed@CTentacle@@UAEXPAUentvars_s@@H@Z 1009ec15 f   tentacle.obj
 0001:0009dc2f       _monster_tentaclemaw       1009ec2f f   tentacle.obj
 0001:0009dc40       ?Spawn@CTentacleMaw@@UAEXXZ 1009ec40 f   tentacle.obj
 0001:0009dd1f       ?Precache@CTentacleMaw@@UAEXXZ 1009ed1f f   tentacle.obj
 0001:0009dd40       ?ObjectCaps@CTentacle@@UAEHXZ 1009ed40 f i tentacle.obj
 0001:0009dd60       ?SetObjectCollisionBox@CTentacle@@UAEXXZ 1009ed60 f i tentacle.obj
 0001:0009de00       ?HearingSensitivity@CTentacle@@UAEMXZ 1009ee00 f i tentacle.obj
 0001:0009de20       ?GetIdealState@CTentacle@@UAE?AW4MONSTERSTATE@@XZ 1009ee20 f i tentacle.obj
 0001:0009de30       ?GetClassPtr@@YAPAVCTentacle@@PAV1@@Z 1009ee30 f i tentacle.obj
 0001:0009dec0       ?GetClassPtr@@YAPAVCTentacleMaw@@PAV1@@Z 1009eec0 f i tentacle.obj
 0001:0009df50       ??0CTentacleMaw@@QAE@XZ    1009ef50 f i tentacle.obj
 0001:0009df70       _func_friction             1009ef70 f   triggers.obj
 0001:0009df81       ?Save@CFrictionModifier@@UAEHAAVCSave@@@Z 1009ef81 f   triggers.obj
 0001:0009dfba       ?Restore@CFrictionModifier@@UAEHAAVCRestore@@@Z 1009efba f   triggers.obj
 0001:0009dff3       ?Spawn@CFrictionModifier@@UAEXXZ 1009eff3 f   triggers.obj
 0001:0009e05a       ?ChangeFriction@CFrictionModifier@@QAEXPAVCBaseEntity@@@Z 1009f05a f   triggers.obj
 0001:0009e097       ?KeyValue@CFrictionModifier@@UAEXPAUKeyValueData_s@@@Z 1009f097 f   triggers.obj
 0001:0009e0ef       _trigger_auto              1009f0ef f   triggers.obj
 0001:0009e100       ?Save@CAutoTrigger@@UAEHAAVCSave@@@Z 1009f100 f   triggers.obj
 0001:0009e139       ?Restore@CAutoTrigger@@UAEHAAVCRestore@@@Z 1009f139 f   triggers.obj
 0001:0009e172       ?KeyValue@CAutoTrigger@@UAEXPAUKeyValueData_s@@@Z 1009f172 f   triggers.obj
 0001:0009e233       ?Spawn@CAutoTrigger@@UAEXXZ 1009f233 f   triggers.obj
 0001:0009e249       ?Precache@CAutoTrigger@@UAEXXZ 1009f249 f   triggers.obj
 0001:0009e272       ?Think@CAutoTrigger@@UAEXXZ 1009f272 f   triggers.obj
 0001:0009e2d0       _trigger_relay             1009f2d0 f   triggers.obj
 0001:0009e2e1       ?Save@CTriggerRelay@@UAEHAAVCSave@@@Z 1009f2e1 f   triggers.obj
 0001:0009e31a       ?Restore@CTriggerRelay@@UAEHAAVCRestore@@@Z 1009f31a f   triggers.obj
 0001:0009e353       ?KeyValue@CTriggerRelay@@UAEXPAUKeyValueData_s@@@Z 1009f353 f   triggers.obj
 0001:0009e3da       ?Spawn@CTriggerRelay@@UAEXXZ 1009f3da f   triggers.obj
 0001:0009e3e5       ?Use@CTriggerRelay@@UAEXPAVCBaseEntity@@0W4USE_TYPE@@M@Z 1009f3e5 f   triggers.obj
 0001:0009e426       _multi_manager             1009f426 f   triggers.obj
 0001:0009e437       ?Save@CMultiManager@@UAEHAAVCSave@@@Z 1009f437 f   triggers.obj
 0001:0009e470       ?Restore@CMultiManager@@UAEHAAVCRestore@@@Z 1009f470 f   triggers.obj
 0001:0009e4a9       ?KeyValue@CMultiManager@@UAEXPAUKeyValueData_s@@@Z 1009f4a9 f   triggers.obj
 0001:0009e59c       ?Spawn@CMultiManager@@UAEXXZ 1009f59c f   triggers.obj
 0001:0009e6b1       ?HasTarget@CMultiManager@@UAEHH@Z 1009f6b1 f   triggers.obj
 0001:0009e720       ?ManagerThink@CMultiManager@@QAEXXZ 1009f720 f   triggers.obj
 0001:0009e836       ?Clone@CMultiManager@@AAEPAV1@XZ 1009f836 f   triggers.obj
 0001:0009e8f5       ?ManagerUse@CMultiManager@@QAEXPAVCBaseEntity@@0W4USE_TYPE@@M@Z 1009f8f5 f   triggers.obj
 0001:0009e98d       _env_render                1009f98d f   triggers.obj
 0001:0009e99e       ?Spawn@CRenderFxManager@@UAEXXZ 1009f99e f   triggers.obj
 0001:0009e9b9       ?Use@CRenderFxManager@@UAEXPAVCBaseEntity@@0W4USE_TYPE@@M@Z 1009f9b9 f   triggers.obj
 0001:0009eaf8       _trigger                   1009faf8 f   triggers.obj
 0001:0009eb09       ?InitTrigger@CBaseTrigger@@QAEXXZ 1009fb09 f   triggers.obj
 0001:0009ebc0       ?KeyValue@CBaseTrigger@@UAEXPAUKeyValueData_s@@@Z 1009fbc0 f   triggers.obj
 0001:0009ec9d       _trigger_hurt              1009fc9d f   triggers.obj
 0001:0009ecae       _trigger_monsterjump       1009fcae f   triggers.obj
 0001:0009ecbf       ?Spawn@CTriggerMonsterJump@@UAEXXZ 1009fcbf f   triggers.obj
 0001:0009ed5a       ?Think@CTriggerMonsterJump@@UAEXXZ 1009fd5a f   triggers.obj
 0001:0009ed98       ?Touch@CTriggerMonsterJump@@UAEXPAVCBaseEntity@@@Z 1009fd98 f   triggers.obj
 0001:0009ee5c       _trigger_cdaudio           1009fe5c f   triggers.obj
 0001:0009ee6d       ?Touch@CTriggerCDAudio@@UAEXPAVCBaseEntity@@@Z 1009fe6d f   triggers.obj
 0001:0009ee96       ?Spawn@CTriggerCDAudio@@UAEXXZ 1009fe96 f   triggers.obj
 0001:0009eea9       ?Use@CTriggerCDAudio@@UAEXPAVCBaseEntity@@0W4USE_TYPE@@M@Z 1009fea9 f   triggers.obj
 0001:0009eebe       ?PlayCDTrack@@YAXH@Z       1009febe f   triggers.obj
 0001:0009ef3c       ?PlayTrack@CTriggerCDAudio@@QAEXXZ 1009ff3c f   triggers.obj
 0001:0009ef77       _target_cdaudio            1009ff77 f   triggers.obj
 0001:0009ef88       ?KeyValue@CTargetCDAudio@@UAEXPAUKeyValueData_s@@@Z 1009ff88 f   triggers.obj
 0001:0009efe5       ?Spawn@CTargetCDAudio@@UAEXXZ 1009ffe5 f   triggers.obj
 0001:0009f047       ?Use@CTargetCDAudio@@UAEXPAVCBaseEntity@@0W4USE_TYPE@@M@Z 100a0047 f   triggers.obj
 0001:0009f05c       ?Think@CTargetCDAudio@@UAEXXZ 100a005c f   triggers.obj
 0001:0009f0d9       ?Play@CTargetCDAudio@@QAEXXZ 100a00d9 f   triggers.obj
 0001:0009f10a       ?Spawn@CTriggerHurt@@UAEXXZ 100a010a f   triggers.obj
 0001:0009f1fd       ?Think@CTriggerHurt@@UAEXXZ 100a01fd f   triggers.obj
 0001:0009f3b4       ?RadiationThink@CTriggerHurt@@QAEXXZ 100a03b4 f   triggers.obj
 0001:0009f809       ?ToggleUse@CBaseTrigger@@QAEXPAVCBaseEntity@@0W4USE_TYPE@@M@Z 100a0809 f   triggers.obj
 0001:0009f878       ?HurtTouch@CBaseTrigger@@QAEXPAVCBaseEntity@@@Z 100a0878 f   triggers.obj
 0001:0009fb47       _trigger_multiple          100a0b47 f   triggers.obj
 0001:0009fb58       ?Spawn@CTriggerMultiple@@UAEXXZ 100a0b58 f   triggers.obj
 0001:0009fd31       _trigger_once              100a0d31 f   triggers.obj
 0001:0009fd42       ?Spawn@CTriggerOnce@@UAEXXZ 100a0d42 f   triggers.obj
 0001:0009fed4       ?MultiTouch@CBaseTrigger@@QAEXPAVCBaseEntity@@@Z 100a0ed4 f   triggers.obj
 0001:0009ff66       ?ActivateMultiTrigger@CBaseTrigger@@QAEXPAVCBaseEntity@@@Z 100a0f66 f   triggers.obj
 0001:000a0147       ?MultiWaitOver@CBaseTrigger@@QAEXXZ 100a1147 f   triggers.obj
 0001:000a015c       ?CounterUse@CBaseTrigger@@QAEXPAVCBaseEntity@@0W4USE_TYPE@@M@Z 100a115c f   triggers.obj
 0001:000a02a8       _trigger_counter           100a12a8 f   triggers.obj
 0001:000a02b9       ?Spawn@CTriggerCounter@@UAEXXZ 100a12b9 f   triggers.obj
 0001:000a02f1       _trigger_transition        100a12f1 f   triggers.obj
 0001:000a0302       ?Spawn@CTriggerVolume@@UAEXXZ 100a1302 f   triggers.obj
 0001:000a037d       ?Think@CTriggerVolume@@UAEXXZ 100a137d f   triggers.obj
 0001:000a0534       _fireanddie                100a1534 f   triggers.obj
 0001:000a0545       ?Spawn@CFireAndDie@@UAEXXZ 100a1545 f   triggers.obj
 0001:000a0568       ?Precache@CFireAndDie@@UAEXXZ 100a1568 f   triggers.obj
 0001:000a058c       ?Think@CFireAndDie@@UAEXXZ 100a158c f   triggers.obj
 0001:000a05b3       _trigger_changelevel       100a15b3 f   triggers.obj
 0001:000a05c4       ?Save@CChangeLevel@@UAEHAAVCSave@@@Z 100a15c4 f   triggers.obj
 0001:000a05fd       ?Restore@CChangeLevel@@UAEHAAVCRestore@@@Z 100a15fd f   triggers.obj
 0001:000a0636       ?KeyValue@CChangeLevel@@UAEXPAUKeyValueData_s@@@Z 100a1636 f   triggers.obj
 0001:000a079d       ?Spawn@CChangeLevel@@UAEXXZ 100a179d f   triggers.obj
 0001:000a086e       ?Think@CChangeLevel@@UAEXXZ 100a186e f   triggers.obj
 0001:000a0a25       ?ExecuteChangeLevel@CChangeLevel@@QAEXXZ 100a1a25 f   triggers.obj
 0001:000a0a72       ?FindLandmark@CChangeLevel@@SAPAUedict_s@@PBD@Z 100a1a72 f   triggers.obj
 0001:000a0aec       ?UseChangeLevel@CChangeLevel@@QAEXPAVCBaseEntity@@0W4USE_TYPE@@M@Z 100a1aec f   triggers.obj
 0001:000a0b05       ?ChangeLevelNow@CChangeLevel@@QAEXPAVCBaseEntity@@@Z 100a1b05 f   triggers.obj
 0001:000a0d50       ?TouchChangeLevel@CChangeLevel@@QAEXPAVCBaseEntity@@@Z 100a1d50 f   triggers.obj
 0001:000a0d83       ?AddTransitionToList@CChangeLevel@@SAHPAULEVELLIST@@HPBD1PAUedict_s@@@Z 100a1d83 f   triggers.obj
 0001:000a0e6b       ?BuildChangeList@@YAHPAULEVELLIST@@H@Z 100a1e6b f   triggers.obj
 0001:000a0e80       ?InTransitionVolume@CChangeLevel@@SAHPAVCBaseEntity@@PAD@Z 100a1e80 f   triggers.obj
 0001:000a0f69       ?ChangeList@CChangeLevel@@SAHPAULEVELLIST@@H@Z 100a1f69 f   triggers.obj
 0001:000a1286       ?NextLevel@@YAXXZ          100a2286 f   triggers.obj
 0001:000a1369       _func_ladder               100a2369 f   triggers.obj
 0001:000a137a       ?KeyValue@CLadder@@UAEXPAUKeyValueData_s@@@Z 100a237a f   triggers.obj
 0001:000a1393       ?Precache@CLadder@@UAEXXZ  100a2393 f   triggers.obj
 0001:000a1414       ?Spawn@CLadder@@UAEXXZ     100a2414 f   triggers.obj
 0001:000a146c       _trigger_push              100a246c f   triggers.obj
 0001:000a147d       ?KeyValue@CTriggerPush@@UAEXPAUKeyValueData_s@@@Z 100a247d f   triggers.obj
 0001:000a1496       ?Think@CTriggerPush@@UAEXXZ 100a2496 f   triggers.obj
 0001:000a164d       ?Spawn@CTriggerPush@@UAEXXZ 100a264d f   triggers.obj
 0001:000a1712       ?Touch@CTriggerPush@@UAEXPAVCBaseEntity@@@Z 100a2712 f   triggers.obj
 0001:000a18b3       ?TeleportTouch@CBaseTrigger@@QAEXPAVCBaseEntity@@@Z 100a28b3 f   triggers.obj
 0001:000a1a9b       _trigger_teleport          100a2a9b f   triggers.obj
 0001:000a1aac       ?Spawn@CTriggerTeleport@@UAEXXZ 100a2aac f   triggers.obj
 0001:000a1c3e       _info_teleport_destination 100a2c3e f   triggers.obj
 0001:000a1c4f       _trigger_autosave          100a2c4f f   triggers.obj
 0001:000a1c60       ?Spawn@CTriggerSave@@UAEXXZ 100a2c60 f   triggers.obj
 0001:000a1cac       ?SaveTouch@CTriggerSave@@QAEXPAVCBaseEntity@@@Z 100a2cac f   triggers.obj
 0001:000a1d24       _trigger_endsection        100a2d24 f   triggers.obj
 0001:000a1d35       ?EndSectionUse@CTriggerEndSection@@QAEXPAVCBaseEntity@@0W4USE_TYPE@@M@Z 100a2d35 f   triggers.obj
 0001:000a1da3       ?Spawn@CTriggerEndSection@@UAEXXZ 100a2da3 f   triggers.obj
 0001:000a1e0c       ?EndSectionTouch@CTriggerEndSection@@QAEXPAVCBaseEntity@@@Z 100a2e0c f   triggers.obj
 0001:000a1e74       ?KeyValue@CTriggerEndSection@@UAEXPAUKeyValueData_s@@@Z 100a2e74 f   triggers.obj
 0001:000a1ecd       _trigger_gravity           100a2ecd f   triggers.obj
 0001:000a1ede       ?Spawn@CTriggerGravity@@UAEXXZ 100a2ede f   triggers.obj
 0001:000a1efb       ?GravityTouch@CTriggerGravity@@QAEXPAVCBaseEntity@@@Z 100a2efb f   triggers.obj
 0001:000a1f34       _trigger_changetarget      100a2f34 f   triggers.obj
 0001:000a1f45       ?Save@CTriggerChangeTarget@@UAEHAAVCSave@@@Z 100a2f45 f   triggers.obj
 0001:000a1f7e       ?Restore@CTriggerChangeTarget@@UAEHAAVCRestore@@@Z 100a2f7e f   triggers.obj
 0001:000a1fb7       ?KeyValue@CTriggerChangeTarget@@UAEXPAUKeyValueData_s@@@Z 100a2fb7 f   triggers.obj
 0001:000a200a       ?Spawn@CTriggerChangeTarget@@UAEXXZ 100a300a f   triggers.obj
 0001:000a2015       ?Use@CTriggerChangeTarget@@UAEXPAVCBaseEntity@@0W4USE_TYPE@@M@Z 100a3015 f   triggers.obj
 0001:000a2085       _trigger_camera            100a3085 f   triggers.obj
 0001:000a2096       ?Save@CTriggerCamera@@UAEHAAVCSave@@@Z 100a3096 f   triggers.obj
 0001:000a20cf       ?Restore@CTriggerCamera@@UAEHAAVCRestore@@@Z 100a30cf f   triggers.obj
 0001:000a2108       ?Spawn@CTriggerCamera@@UAEXXZ 100a3108 f   triggers.obj
 0001:000a21ae       ?KeyValue@CTriggerCamera@@UAEXPAUKeyValueData_s@@@Z 100a31ae f   triggers.obj
 0001:000a22b8       ?Use@CTriggerCamera@@UAEXPAVCBaseEntity@@0W4USE_TYPE@@M@Z 100a32b8 f   triggers.obj
 0001:000a25f3       ?FollowTarget@CTriggerCamera@@QAEXXZ 100a35f3 f   triggers.obj
 0001:000a28e7       ?Move@CTriggerCamera@@QAEXXZ 100a38e7 f   triggers.obj
 0001:000a2bc0       ?IsClone@CMultiManager@@AAEHXZ 100a3bc0 f i triggers.obj
 0001:000a2bf0       ?ShouldClone@CMultiManager@@AAEHXZ 100a3bf0 f i triggers.obj
 0001:000a2c20       ??0LEVELLIST@@QAE@XZ       100a3c20 f i triggers.obj
 0001:000a2c40       ?GetClassPtr@@YAPAVCFrictionModifier@@PAV1@@Z 100a3c40 f i triggers.obj
 0001:000a2cd0       ?GetClassPtr@@YAPAVCAutoTrigger@@PAV1@@Z 100a3cd0 f i triggers.obj
 0001:000a2d60       ?GetClassPtr@@YAPAVCTriggerRelay@@PAV1@@Z 100a3d60 f i triggers.obj
 0001:000a2df0       ?GetClassPtr@@YAPAVCMultiManager@@PAV1@@Z 100a3df0 f i triggers.obj
 0001:000a2e80       ?GetClassPtr@@YAPAVCRenderFxManager@@PAV1@@Z 100a3e80 f i triggers.obj
 0001:000a2f10       ?GetClassPtr@@YAPAVCBaseTrigger@@PAV1@@Z 100a3f10 f i triggers.obj
 0001:000a2fa0       ?GetClassPtr@@YAPAVCTriggerHurt@@PAV1@@Z 100a3fa0 f i triggers.obj
 0001:000a3030       ?GetClassPtr@@YAPAVCTriggerMonsterJump@@PAV1@@Z 100a4030 f i triggers.obj
 0001:000a30c0       ?GetClassPtr@@YAPAVCTriggerCDAudio@@PAV1@@Z 100a40c0 f i triggers.obj
 0001:000a3150       ?GetClassPtr@@YAPAVCTargetCDAudio@@PAV1@@Z 100a4150 f i triggers.obj
 0001:000a31e0       ?GetClassPtr@@YAPAVCTriggerMultiple@@PAV1@@Z 100a41e0 f i triggers.obj
 0001:000a3270       ?GetClassPtr@@YAPAVCTriggerOnce@@PAV1@@Z 100a4270 f i triggers.obj
 0001:000a3300       ?GetClassPtr@@YAPAVCTriggerCounter@@PAV1@@Z 100a4300 f i triggers.obj
 0001:000a3390       ?GetClassPtr@@YAPAVCTriggerVolume@@PAV1@@Z 100a4390 f i triggers.obj
 0001:000a3420       ?GetClassPtr@@YAPAVCFireAndDie@@PAV1@@Z 100a4420 f i triggers.obj
 0001:000a34b0       ?GetClassPtr@@YAPAVCChangeLevel@@PAV1@@Z 100a44b0 f i triggers.obj
 0001:000a3540       ?GetClassPtr@@YAPAVCLadder@@PAV1@@Z 100a4540 f i triggers.obj
 0001:000a35d0       ?GetClassPtr@@YAPAVCTriggerPush@@PAV1@@Z 100a45d0 f i triggers.obj
 0001:000a3660       ?GetClassPtr@@YAPAVCTriggerTeleport@@PAV1@@Z 100a4660 f i triggers.obj
 0001:000a36f0       ?GetClassPtr@@YAPAVCTriggerSave@@PAV1@@Z 100a46f0 f i triggers.obj
 0001:000a3780       ?GetClassPtr@@YAPAVCTriggerEndSection@@PAV1@@Z 100a4780 f i triggers.obj
 0001:000a3810       ?GetClassPtr@@YAPAVCTriggerGravity@@PAV1@@Z 100a4810 f i triggers.obj
 0001:000a38a0       ?GetClassPtr@@YAPAVCTriggerChangeTarget@@PAV1@@Z 100a48a0 f i triggers.obj
 0001:000a3930       ?GetClassPtr@@YAPAVCTriggerCamera@@PAV1@@Z 100a4930 f i triggers.obj
 0001:000a39c0       ??0CFrictionModifier@@QAE@XZ 100a49c0 f i triggers.obj
 0001:000a39e0       ?ObjectCaps@CFrictionModifier@@UAEHXZ 100a49e0 f i triggers.obj
 0001:000a3a00       ??0CAutoTrigger@@QAE@XZ    100a4a00 f i triggers.obj
 0001:000a3a20       ?ObjectCaps@CAutoTrigger@@UAEHXZ 100a4a20 f i triggers.obj
 0001:000a3a40       ??0CTriggerRelay@@QAE@XZ   100a4a40 f i triggers.obj
 0001:000a3a60       ?ObjectCaps@CTriggerRelay@@UAEHXZ 100a4a60 f i triggers.obj
 0001:000a3a80       ??0CMultiManager@@QAE@XZ   100a4a80 f i triggers.obj
 0001:000a3aa0       ?ObjectCaps@CMultiManager@@UAEHXZ 100a4aa0 f i triggers.obj
 0001:000a3ac0       ??0CRenderFxManager@@QAE@XZ 100a4ac0 f i triggers.obj
 0001:000a3ae0       ??0CBaseTrigger@@QAE@XZ    100a4ae0 f i triggers.obj
 0001:000a3b00       ?ObjectCaps@CBaseTrigger@@UAEHXZ 100a4b00 f i triggers.obj
 0001:000a3b20       ??0CTriggerHurt@@QAE@XZ    100a4b20 f i triggers.obj
 0001:000a3b40       ??0CTriggerMonsterJump@@QAE@XZ 100a4b40 f i triggers.obj
 0001:000a3b60       ??0CTriggerCDAudio@@QAE@XZ 100a4b60 f i triggers.obj
 0001:000a3b80       ??0CTargetCDAudio@@QAE@XZ  100a4b80 f i triggers.obj
 0001:000a3ba0       ??0CTriggerMultiple@@QAE@XZ 100a4ba0 f i triggers.obj
 0001:000a3bc0       ??0CTriggerOnce@@QAE@XZ    100a4bc0 f i triggers.obj
 0001:000a3be0       ??0CTriggerCounter@@QAE@XZ 100a4be0 f i triggers.obj
 0001:000a3c00       ??0CTriggerVolume@@QAE@XZ  100a4c00 f i triggers.obj
 0001:000a3c20       ??0CFireAndDie@@QAE@XZ     100a4c20 f i triggers.obj
 0001:000a3c40       ?ObjectCaps@CFireAndDie@@UAEHXZ 100a4c40 f i triggers.obj
 0001:000a3c60       ??0CChangeLevel@@QAE@XZ    100a4c60 f i triggers.obj
 0001:000a3c80       ??0CLadder@@QAE@XZ         100a4c80 f i triggers.obj
 0001:000a3ca0       ??0CTriggerPush@@QAE@XZ    100a4ca0 f i triggers.obj
 0001:000a3cc0       ??0CTriggerTeleport@@QAE@XZ 100a4cc0 f i triggers.obj
 0001:000a3ce0       ??0CTriggerSave@@QAE@XZ    100a4ce0 f i triggers.obj
 0001:000a3d00       ??0CTriggerEndSection@@QAE@XZ 100a4d00 f i triggers.obj
 0001:000a3d20       ??0CTriggerGravity@@QAE@XZ 100a4d20 f i triggers.obj
 0001:000a3d40       ??0CTriggerChangeTarget@@QAE@XZ 100a4d40 f i triggers.obj
 0001:000a3d60       ?ObjectCaps@CTriggerChangeTarget@@UAEHXZ 100a4d60 f i triggers.obj
 0001:000a3d80       ??0CTriggerCamera@@QAE@XZ  100a4d80 f i triggers.obj
 0001:000a3da0       ?ObjectCaps@CTriggerCamera@@UAEHXZ 100a4da0 f i triggers.obj
 0001:000a3dc0       ??_9@$BKM@AE               100a4dc0 f i triggers.obj
 0001:000a3dd0       _monster_tripmine          100a4dd0 f   tripmine.obj
 0001:000a3de1       ?Save@CTripmineGrenade@@EAEHAAVCSave@@@Z 100a4de1 f   tripmine.obj
 0001:000a3e1a       ?Restore@CTripmineGrenade@@EAEHAAVCRestore@@@Z 100a4e1a f   tripmine.obj
 0001:000a3e53       ?Spawn@CTripmineGrenade@@EAEXXZ 100a4e53 f   tripmine.obj
 0001:000a40d1       ?Precache@CTripmineGrenade@@EAEXXZ 100a50d1 f   tripmine.obj
 0001:000a4114       ?WarningThink@CTripmineGrenade@@AAEXXZ 100a5114 f   tripmine.obj
 0001:000a4148       ?PowerupThink@CTripmineGrenade@@AAEXXZ 100a5148 f   tripmine.obj
 0001:000a4615       ?KillBeam@CTripmineGrenade@@AAEXXZ 100a5615 f   tripmine.obj
 0001:000a464b       ?MakeBeam@CTripmineGrenade@@AAEXXZ 100a564b f   tripmine.obj
 0001:000a477c       ?BeamBreakThink@CTripmineGrenade@@AAEXXZ 100a577c f   tripmine.obj
 0001:000a4923       ?TakeDamage@CTripmineGrenade@@EAEHPAUentvars_s@@0MH@Z 100a5923 f   tripmine.obj
 0001:000a49aa       ?Killed@CTripmineGrenade@@EAEXPAUentvars_s@@H@Z 100a59aa f   tripmine.obj
 0001:000a4a4e       ?DelayDeathThink@CTripmineGrenade@@AAEXXZ 100a5a4e f   tripmine.obj
 0001:000a4aed       _weapon_tripmine           100a5aed f   tripmine.obj
 0001:000a4afe       ?Spawn@CTripmine@@UAEXXZ   100a5afe f   tripmine.obj
 0001:000a4be3       ?Precache@CTripmine@@UAEXXZ 100a5be3 f   tripmine.obj
 0001:000a4c31       ?GetItemInfo@CTripmine@@UAEHPAUItemInfo@@@Z 100a5c31 f   tripmine.obj
 0001:000a4cca       ?Deploy@CTripmine@@UAEHXZ  100a5cca f   tripmine.obj
 0001:000a4cf2       ?Holster@CTripmine@@UAEXH@Z 100a5cf2 f   tripmine.obj
 0001:000a4dbb       ?PrimaryAttack@CTripmine@@UAEXXZ 100a5dbb f   tripmine.obj
 0001:000a5078       ?WeaponIdle@CTripmine@@UAEXXZ 100a6078 f   tripmine.obj
 0001:000a5190       ?GetClassPtr@@YAPAVCTripmineGrenade@@PAV1@@Z 100a6190 f i tripmine.obj
 0001:000a5220       ?GetClassPtr@@YAPAVCTripmine@@PAV1@@Z 100a6220 f i tripmine.obj
 0001:000a52b0       ??0CTripmineGrenade@@QAE@XZ 100a62b0 f i tripmine.obj
 0001:000a5310       ??0CTripmine@@QAE@XZ       100a6310 f i tripmine.obj
 0001:000a5330       ?iItemSlot@CTripmine@@UAEHXZ 100a6330 f i tripmine.obj
 0001:000a5340       ?SetObjectCollisionBox@CTripmine@@UAEXXZ 100a6340 f i tripmine.obj
 0001:000a53e0       ?UseDecrement@CTripmine@@UAEHXZ 100a63e0 f i tripmine.obj
 0001:000a53f0       ?SpinDownCall@CBaseTurret@@UAEXXZ 100a63f0 f i turret.obj
 0001:000a5410       ?SpinUpCall@CBaseTurret@@UAEXXZ 100a6410 f i turret.obj
 0001:000a5430       ?Save@CBaseTurret@@UAEHAAVCSave@@@Z 100a6430 f   turret.obj
 0001:000a5469       ?Restore@CBaseTurret@@UAEHAAVCRestore@@@Z 100a6469 f   turret.obj
 0001:000a54a2       ?Save@CTurret@@UAEHAAVCSave@@@Z 100a64a2 f   turret.obj
 0001:000a54db       ?Restore@CTurret@@UAEHAAVCRestore@@@Z 100a64db f   turret.obj
 0001:000a5514       _monster_turret            100a6514 f   turret.obj
 0001:000a5525       _monster_miniturret        100a6525 f   turret.obj
 0001:000a5536       ?KeyValue@CBaseTurret@@UAEXPAUKeyValueData_s@@@Z 100a6536 f   turret.obj
 0001:000a56cf       ?Spawn@CBaseTurret@@UAEXXZ 100a66cf f   turret.obj
 0001:000a57d6       ?Precache@CBaseTurret@@UAEXXZ 100a67d6 f   turret.obj
 0001:000a587b       ?Spawn@CTurret@@UAEXXZ     100a687b f   turret.obj
 0001:000a5a1c       ?Precache@CTurret@@UAEXXZ  100a6a1c f   turret.obj
 0001:000a5a4b       ?Spawn@CMiniTurret@@UAEXXZ 100a6a4b f   turret.obj
 0001:000a5b87       ?Precache@CMiniTurret@@UAEXXZ 100a6b87 f   turret.obj
 0001:000a5bd2       ?Initialize@CBaseTurret@@QAEXXZ 100a6bd2 f   turret.obj
 0001:000a5d7e       ?TurretUse@CBaseTurret@@QAEXPAVCBaseEntity@@0W4USE_TYPE@@M@Z 100a6d7e f   turret.obj
 0001:000a5e44       ?Ping@CBaseTurret@@UAEXXZ  100a6e44 f   turret.obj
 0001:000a5f03       ?EyeOn@CBaseTurret@@UAEXXZ 100a6f03 f   turret.obj
 0001:000a5f4e       ?EyeOff@CBaseTurret@@UAEXXZ 100a6f4e f   turret.obj
 0001:000a5fbf       ?ActiveThink@CBaseTurret@@QAEXXZ 100a6fbf f   turret.obj
 0001:000a6616       ?Shoot@CTurret@@UAEXAAVVector@@0@Z 100a7616 f   turret.obj
 0001:000a66b5       ?Shoot@CMiniTurret@@UAEXAAVVector@@0@Z 100a76b5 f   turret.obj
 0001:000a67ce       ?Deploy@CBaseTurret@@QAEXXZ 100a77ce f   turret.obj
 0001:000a6961       ?Retire@CBaseTurret@@QAEXXZ 100a7961 f   turret.obj
 0001:000a6b24       ?SpinUpCall@CTurret@@UAEXXZ 100a7b24 f   turret.obj
 0001:000a6c9f       ?SpinDownCall@CTurret@@UAEXXZ 100a7c9f f   turret.obj
 0001:000a6d81       ?SetTurretAnim@CBaseTurret@@QAEXW4TURRET_ANIM@@@Z 100a7d81 f   turret.obj
 0001:000a6e56       ?SearchThink@CBaseTurret@@QAEXXZ 100a7e56 f   turret.obj
 0001:000a707c       ?AutoSearchThink@CBaseTurret@@QAEXXZ 100a807c f   turret.obj
 0001:000a717d       ?TurretDeath@CBaseTurret@@QAEXXZ 100a817d f   turret.obj
 0001:000a75a6       ?TraceAttack@CBaseTurret@@UAEXPAUentvars_s@@MVVector@@PAUTraceResult@@H@Z 100a85a6 f   turret.obj
 0001:000a765b       ?TakeDamage@CBaseTurret@@UAEHPAUentvars_s@@0MH@Z 100a865b f   turret.obj
 0001:000a77b7       ?MoveTurret@CBaseTurret@@QAEHXZ 100a87b7 f   turret.obj
 0001:000a7b3f       ?Classify@CBaseTurret@@UAEHXZ 100a8b3f f   turret.obj
 0001:000a7b6b       _monster_sentry            100a8b6b f   turret.obj
 0001:000a7b7c       ?Precache@CSentry@@UAEXXZ  100a8b7c f   turret.obj
 0001:000a7b9d       ?Spawn@CSentry@@UAEXXZ     100a8b9d f   turret.obj
 0001:000a7cef       ?Shoot@CSentry@@UAEXAAVVector@@0@Z 100a8cef f   turret.obj
 0001:000a7e08       ?TakeDamage@CSentry@@UAEHPAUentvars_s@@0MH@Z 100a8e08 f   turret.obj
 0001:000a7f43       ?SentryTouch@CSentry@@QAEXPAVCBaseEntity@@@Z 100a8f43 f   turret.obj
 0001:000a7f98       ?SentryDeath@CSentry@@QAEXXZ 100a8f98 f   turret.obj
 0001:000a82d0       ?GetClassPtr@@YAPAVCTurret@@PAV1@@Z 100a92d0 f i turret.obj
 0001:000a8360       ?GetClassPtr@@YAPAVCMiniTurret@@PAV1@@Z 100a9360 f i turret.obj
 0001:000a83f0       ?GetClassPtr@@YAPAVCSentry@@PAV1@@Z 100a93f0 f i turret.obj
 0001:000a8480       ??0CTurret@@QAE@XZ         100a9480 f i turret.obj
 0001:000a84a0       ?BloodColor@CBaseTurret@@UAEHXZ 100a94a0 f i turret.obj
 0001:000a84b0       ?GibMonster@CBaseTurret@@UAEXXZ 100a94b0 f i turret.obj
 0001:000a84c0       ??0CMiniTurret@@QAE@XZ     100a94c0 f i turret.obj
 0001:000a84e0       ??0CSentry@@QAE@XZ         100a94e0 f i turret.obj
 0001:000a8500       ??0CBaseTurret@@QAE@XZ     100a9500 f i turret.obj
 0001:000a8550       ?Shoot@CBaseTurret@@UAEXAAVVector@@0@Z 100a9550 f i turret.obj
 0001:000a8560       ?UTIL_WeaponTimeBase@@YAMXZ 100a9560 f   util.obj
 0001:000a856b       ?U_Random@@YAIXZ           100a956b f   util.obj
 0001:000a85b6       ?U_Srand@@YAXI@Z           100a95b6 f   util.obj
 0001:000a85d0       ?UTIL_SharedRandomLong@@YAHIHH@Z 100a95d0 f   util.obj
 0001:000a8620       ?UTIL_SharedRandomFloat@@YAMIMM@Z 100a9620 f   util.obj
 0001:000a868e       ?UTIL_ParametricRocket@@YAXPAUentvars_s@@VVector@@1PAUedict_s@@@Z 100a968e f   util.obj
 0001:000a87aa       ?UTIL_SetGroupTrace@@YAXHH@Z 100a97aa f   util.obj
 0001:000a87d6       ?UTIL_UnsetGroupTrace@@YAXXZ 100a97d6 f   util.obj
 0001:000a87fc       ??0UTIL_GroupTrace@@QAE@HH@Z 100a97fc f   util.obj
 0001:000a884a       ??1UTIL_GroupTrace@@QAE@XZ 100a984a f   util.obj
 0001:000a8882       ?UTIL_GetNextBestWeapon@@YAHPAVCBasePlayer@@PAVCBasePlayerItem@@@Z 100a9882 f   util.obj
 0001:000a88a0       ?UTIL_AngleMod@@YAMM@Z     100a98a0 f   util.obj
 0001:000a8912       ?UTIL_AngleDiff@@YAMMM@Z   100a9912 f   util.obj
 0001:000a896d       ?UTIL_VecToAngles@@YA?AVVector@@ABV1@@Z 100a996d f   util.obj
 0001:000a89a5       ?UTIL_MoveToOrigin@@YAXPAUedict_s@@ABVVector@@MH@Z 100a99a5 f   util.obj
 0001:000a89d4       ?UTIL_EntitiesInBox@@YAHPAPAVCBaseEntity@@HABVVector@@1H@Z 100a99d4 f   util.obj
 0001:000a8b21       ?UTIL_MonstersInSphere@@YAHPAPAVCBaseEntity@@HABVVector@@M@Z 100a9b21 f   util.obj
 0001:000a8c8d       ?UTIL_FindEntityInSphere@@YAPAVCBaseEntity@@PAV1@ABVVector@@M@Z 100a9c8d f   util.obj
 0001:000a8cec       ?UTIL_FindEntityByString@@YAPAVCBaseEntity@@PAV1@PBD1@Z 100a9cec f   util.obj
 0001:000a8d46       ?UTIL_FindEntityByClassname@@YAPAVCBaseEntity@@PAV1@PBD@Z 100a9d46 f   util.obj
 0001:000a8d60       ?UTIL_FindEntityByTargetname@@YAPAVCBaseEntity@@PAV1@PBD@Z 100a9d60 f   util.obj
 0001:000a8d7a       ?UTIL_FindEntityGeneric@@YAPAVCBaseEntity@@PBDAAVVector@@M@Z 100a9d7a f   util.obj
 0001:000a8e17       ?UTIL_PlayerByIndex@@YAPAVCBaseEntity@@H@Z 100a9e17 f   util.obj
 0001:000a8e6d       ?UTIL_MakeVectors@@YAXABVVector@@@Z 100a9e6d f   util.obj
 0001:000a8e84       ?UTIL_MakeAimVectors@@YAXABVVector@@@Z 100a9e84 f   util.obj
 0001:000a8eaf       ?UTIL_MakeInvVectors@@YAXABVVector@@PAUglobalvars_t@@@Z 100a9eaf f   util.obj
 0001:000a8f4f       ?UTIL_EmitAmbientSound@@YAXPAUedict_s@@ABVVector@@PBDMMHH@Z 100a9f4f f   util.obj
 0001:000a8fd6       ?UTIL_ScreenShake@@YAXABVVector@@MMMM@Z 100a9fd6 f   util.obj
 0001:000a9173       ?UTIL_ScreenShakeAll@@YAXABVVector@@MMM@Z 100aa173 f   util.obj
 0001:000a9192       ?UTIL_ScreenFadeBuild@@YAXAAUScreenFade@@ABVVector@@MMHH@Z 100aa192 f   util.obj
 0001:000a920c       ?UTIL_ScreenFadeWrite@@YAXABUScreenFade@@PAVCBaseEntity@@@Z 100aa20c f   util.obj
 0001:000a92cd       ?UTIL_ScreenFadeAll@@YAXABVVector@@MMHH@Z 100aa2cd f   util.obj
 0001:000a933b       ?UTIL_ScreenFade@@YAXPAVCBaseEntity@@ABVVector@@MMHH@Z 100aa33b f   util.obj
 0001:000a9375       ?UTIL_HudMessage@@YAXPAVCBaseEntity@@ABUhudtextparms_s@@PBD@Z 100aa375 f   util.obj
 0001:000a95db       ?UTIL_HudMessageAll@@YAXABUhudtextparms_s@@PBD@Z 100aa5db f   util.obj
 0001:000a9633       ?UTIL_ClientPrintAll@@YAXHPBD0000@Z 100aa633 f   util.obj
 0001:000a96b8       ?ClientPrint@@YAXPAUentvars_s@@HPBD1111@Z 100aa6b8 f   util.obj
 0001:000a9740       ?UTIL_SayText@@YAXPBDPAVCBaseEntity@@@Z 100aa740 f   util.obj
 0001:000a9799       ?UTIL_SayTextAll@@YAXPBDPAVCBaseEntity@@@Z 100aa799 f   util.obj
 0001:000a97d7       ?UTIL_dtos1@@YAPADH@Z      100aa7d7 f   util.obj
 0001:000a97f7       ?UTIL_dtos2@@YAPADH@Z      100aa7f7 f   util.obj
 0001:000a9817       ?UTIL_dtos3@@YAPADH@Z      100aa817 f   util.obj
 0001:000a9837       ?UTIL_dtos4@@YAPADH@Z      100aa837 f   util.obj
 0001:000a9857       ?UTIL_ShowMessage@@YAXPBDPAVCBaseEntity@@@Z 100aa857 f   util.obj
 0001:000a98a4       ?UTIL_ShowMessageAll@@YAXPBD@Z 100aa8a4 f   util.obj
 0001:000a98f8       ?UTIL_TraceLine@@YAXABVVector@@0W4IGNORE_MONSTERS@@W4IGNORE_GLASS@@PAUedict_s@@PAUTraceResult@@@Z 100aa8f8 f   util.obj
 0001:000a9938       ?UTIL_TraceLine@@YAXABVVector@@0W4IGNORE_MONSTERS@@PAUedict_s@@PAUTraceResult@@@Z 100aa938 f   util.obj
 0001:000a996a       ?UTIL_TraceHull@@YAXABVVector@@0W4IGNORE_MONSTERS@@HPAUedict_s@@PAUTraceResult@@@Z 100aa96a f   util.obj
 0001:000a99a0       ?UTIL_TraceModel@@YAXABVVector@@0HPAUedict_s@@PAUTraceResult@@@Z 100aa9a0 f   util.obj
 0001:000a99cc       ?UTIL_GetGlobalTrace@@YA?AUTraceResult@@XZ 100aa9cc f   util.obj
 0001:000a9a94       ?UTIL_SetSize@@YAXPAUentvars_s@@ABVVector@@1@Z 100aaa94 f   util.obj
 0001:000a9ac1       ?UTIL_VecToYaw@@YAMABVVector@@@Z 100aaac1 f   util.obj
 0001:000a9ad8       ?UTIL_SetOrigin@@YAXPAUentvars_s@@ABVVector@@@Z 100aaad8 f   util.obj
 0001:000a9afc       ?UTIL_ParticleEffect@@YAXABVVector@@0KK@Z 100aaafc f   util.obj
 0001:000a9b49       ?UTIL_Approach@@YAMMMM@Z   100aab49 f   util.obj
 0001:000a9b95       ?UTIL_ApproachAngle@@YAMMMM@Z 100aab95 f   util.obj
 0001:000a9c51       ?UTIL_AngleDistance@@YAMMM@Z 100aac51 f   util.obj
 0001:000a9c9f       ?UTIL_SplineFraction@@YAMMM@Z 100aac9f f   util.obj
 0001:000a9ccd       ?UTIL_VarArgs@@YAPADPADZZ  100aaccd f   util.obj
 0001:000a9cfc       ?UTIL_GetAimVector@@YA?AVVector@@PAUedict_s@@M@Z 100aacfc f   util.obj
 0001:000a9d37       ?UTIL_IsMasterTriggered@@YAHHPAVCBaseEntity@@@Z 100aad37 f   util.obj
 0001:000a9dc2       ?UTIL_ShouldShowBlood@@YAHH@Z 100aadc2 f   util.obj
 0001:000a9e1e       ?UTIL_PointContents@@YAHABVVector@@@Z 100aae1e f   util.obj
 0001:000a9e35       ?UTIL_BloodStream@@YAXABVVector@@0HH@Z 100aae35 f   util.obj
 0001:000a9f23       ?UTIL_BloodDrips@@YAXABVVector@@0HH@Z 100aaf23 f   util.obj
 0001:000aa08f       ?UTIL_RandomBloodVector@@YA?AVVector@@XZ 100ab08f f   util.obj
 0001:000aa0ef       ?UTIL_BloodDecalTrace@@YAXPAUTraceResult@@H@Z 100ab0ef f   util.obj
 0001:000aa149       ?UTIL_DecalTrace@@YAXPAUTraceResult@@H@Z 100ab149 f   util.obj
 0001:000aa2a6       ?UTIL_PlayerDecalTrace@@YAXPAUTraceResult@@HHH@Z 100ab2a6 f   util.obj
 0001:000aa37e       ?UTIL_GunshotDecalTrace@@YAXPAUTraceResult@@H@Z 100ab37e f   util.obj
 0001:000aa445       ?UTIL_Sparks@@YAXABVVector@@@Z 100ab445 f   util.obj
 0001:000aa4a1       ?UTIL_Ricochet@@YAXABVVector@@M@Z 100ab4a1 f   util.obj
 0001:000aa515       ?UTIL_TeamsMatch@@YAHPBD0@Z 100ab515 f   util.obj
 0001:000aa566       ?UTIL_StringToVector@@YAXPAMPBD@Z 100ab566 f   util.obj
 0001:000aa63a       ?UTIL_StringToIntArray@@YAXPAHHPBD@Z 100ab63a f   util.obj
 0001:000aa70c       ?UTIL_ClampVectorToBox@@YA?AVVector@@ABV1@0@Z 100ab70c f   util.obj
 0001:000aa805       ?UTIL_WaterLevel@@YAMABVVector@@MM@Z 100ab805 f   util.obj
 0001:000aa8aa       ?UTIL_Bubbles@@YAXVVector@@0H@Z 100ab8aa f   util.obj
 0001:000aa9b2       ?UTIL_BubbleTrail@@YAXVVector@@0H@Z 100ab9b2 f   util.obj
 0001:000aaaef       ?UTIL_Remove@@YAXPAVCBaseEntity@@@Z 100abaef f   util.obj
 0001:000aab32       ?UTIL_IsValidEntity@@YAHPAUedict_s@@@Z 100abb32 f   util.obj
 0001:000aab61       ?UTIL_PrecacheOther@@YAXPBD@Z 100abb61 f   util.obj
 0001:000aabde       ?UTIL_LogPrintf@@YAXPADZZ  100abbde f   util.obj
 0001:000aac1d       ?UTIL_DotPoints@@YAMABVVector@@00@Z 100abc1d f   util.obj
 0001:000aac85       ?UTIL_StripToken@@YAXPBDPAD@Z 100abc85 f   util.obj
 0001:000aacd3       ??0CSaveRestoreBuffer@@QAE@XZ 100abcd3 f   util.obj
 0001:000aacea       ??0CSaveRestoreBuffer@@QAE@PAUsaverestore_s@@@Z 100abcea f   util.obj
 0001:000aad02       ??1CSaveRestoreBuffer@@QAE@XZ 100abd02 f   util.obj
 0001:000aad0d       ?EntityIndex@CSaveRestoreBuffer@@QAEHPAVCBaseEntity@@@Z 100abd0d f   util.obj
 0001:000aad34       ?EntityIndex@CSaveRestoreBuffer@@QAEHPAUentvars_s@@@Z 100abd34 f   util.obj
 0001:000aad61       ?EntityIndex@CSaveRestoreBuffer@@QAEHH@Z 100abd61 f   util.obj
 0001:000aad83       ?EntityIndex@CSaveRestoreBuffer@@QAEHPAUedict_s@@@Z 100abd83 f   util.obj
 0001:000aadec       ?EntityFromIndex@CSaveRestoreBuffer@@QAEPAUedict_s@@H@Z 100abdec f   util.obj
 0001:000aae55       ?EntityFlagsSet@CSaveRestoreBuffer@@QAEHHH@Z 100abe55 f   util.obj
 0001:000aaebe       ?BufferRewind@CSaveRestoreBuffer@@IAEXH@Z 100abebe f   util.obj
 0001:000aaf13       ?HashString@CSaveRestoreBuffer@@IAEIPBD@Z 100abf13 f   util.obj
 0001:000aaf5a       ?TokenHash@CSaveRestoreBuffer@@QAEGPBD@Z 100abf5a f   util.obj
 0001:000ab02a       ?WriteData@CSave@@QAEXPBDH0@Z 100ac02a f   util.obj
 0001:000ab04b       ?WriteShort@CSave@@QAEXPBDPBFH@Z 100ac04b f   util.obj
 0001:000ab06e       ?WriteInt@CSave@@QAEXPBDPBHH@Z 100ac06e f   util.obj
 0001:000ab092       ?WriteFloat@CSave@@QAEXPBDPBMH@Z 100ac092 f   util.obj
 0001:000ab0b6       ?WriteTime@CSave@@QAEXPBDPBMH@Z 100ac0b6 f   util.obj
 0001:000ab13c       ?WriteString@CSave@@QAEXPBD0@Z 100ac13c f   util.obj
 0001:000ab169       ?WriteString@CSave@@QAEXPBDPBHH@Z 100ac169 f   util.obj
 0001:000ab223       ?WriteVector@CSave@@QAEXPBDABVVector@@@Z 100ac223 f   util.obj
 0001:000ab242       ?WriteVector@CSave@@QAEXPBDPBMH@Z 100ac242 f   util.obj
 0001:000ab275       ?WritePositionVector@CSave@@QAEXPBDABVVector@@@Z 100ac275 f   util.obj
 0001:000ab2db       ?WritePositionVector@CSave@@QAEXPBDPBMH@Z 100ac2db f   util.obj
 0001:000ab39e       ?WriteFunction@CSave@@QAEXPBDPBHH@Z 100ac39e f   util.obj
 0001:000ab3f7       ?EntvarsKeyvalue@@YAXPAUentvars_s@@PAUKeyValueData_s@@@Z 100ac3f7 f   util.obj
 0001:000ab52b       ?WriteEntVars@CSave@@QAEHPBDPAUentvars_s@@@Z 100ac52b f   util.obj
 0001:000ab54f       ?WriteFields@CSave@@QAEHPBDPAXPAUTYPEDESCRIPTION@@H@Z 100ac54f f   util.obj
 0001:000aba8e       ?BufferString@CSave@@AAEXPADH@Z 100aca8e f   util.obj
 0001:000ababf       ?DataEmpty@CSave@@AAEHPBDH@Z 100acabf f   util.obj
 0001:000abb00       ?BufferField@CSave@@AAEXPBDH0@Z 100acb00 f   util.obj
 0001:000abb2d       ?BufferHeader@CSave@@AAEXPBDH@Z 100acb2d f   util.obj
 0001:000abb81       ?BufferData@CSave@@AAEXPBDH@Z 100acb81 f   util.obj
 0001:000abc0e       ?ReadField@CRestore@@QAEHPAXPAUTYPEDESCRIPTION@@HHHPAD0@Z 100acc0e f   util.obj
 0001:000ac0d5       ?ReadEntVars@CRestore@@QAEHPBDPAUentvars_s@@@Z 100ad0d5 f   util.obj
 0001:000ac0f9       ?ReadFields@CRestore@@QAEHPBDPAXPAUTYPEDESCRIPTION@@H@Z 100ad0f9 f   util.obj
 0001:000ac279       ?BufferReadHeader@CRestore@@AAEXPAUHEADER@@@Z 100ad279 f   util.obj
 0001:000ac2c2       ?ReadShort@CRestore@@QAEFXZ 100ad2c2 f   util.obj
 0001:000ac2e7       ?ReadInt@CRestore@@QAEHXZ  100ad2e7 f   util.obj
 0001:000ac30c       ?ReadNamedInt@CRestore@@QAEHPBD@Z 100ad30c f   util.obj
 0001:000ac32c       ?ReadNamedString@CRestore@@QAEPADPBD@Z 100ad32c f   util.obj
 0001:000ac34a       ?BufferPointer@CRestore@@AAEPADXZ 100ad34a f   util.obj
 0001:000ac369       ?BufferReadBytes@CRestore@@AAEXPADH@Z 100ad369 f   util.obj
 0001:000ac408       ?BufferSkipBytes@CRestore@@AAEXH@Z 100ad408 f   util.obj
 0001:000ac423       ?BufferSkipZString@CRestore@@AAEHXZ 100ad423 f   util.obj
 0001:000ac49f       ?BufferCheckZString@CRestore@@AAEHPBD@Z 100ad49f f   util.obj
 0001:000ac510       ??0Vector@@QAE@QAM@Z       100ad510 f i util.obj
 0001:000ac550       ?Empty@CRestore@@QAEHXZ    100ad550 f i util.obj
 0001:000ac638       ??0CVoiceGameMgr@@QAE@XZ   100ad638 f   voice_gamemgr.obj
 0001:000ac66a       ??1CVoiceGameMgr@@UAE@XZ   100ad66a f   voice_gamemgr.obj
 0001:000ac67e       ?Init@CVoiceGameMgr@@QAE_NPAVIVoiceGameMgrHelper@@H@Z 100ad67e f   voice_gamemgr.obj
 0001:000ac730       ?SetHelper@CVoiceGameMgr@@QAEXPAVIVoiceGameMgrHelper@@@Z 100ad730 f   voice_gamemgr.obj
 0001:000ac746       ?Update@CVoiceGameMgr@@QAEXN@Z 100ad746 f   voice_gamemgr.obj
 0001:000ac77f       ?ClientConnected@CVoiceGameMgr@@QAEXPAUedict_s@@@Z 100ad77f f   voice_gamemgr.obj
 0001:000ac7dd       ?PlayerHasBlockedPlayer@CVoiceGameMgr@@QAE_NPAVCBasePlayer@@0@Z 100ad7dd f   voice_gamemgr.obj
 0001:000ac861       ?ClientCommand@CVoiceGameMgr@@QAE_NPAVCBasePlayer@@PBD@Z 100ad861 f   voice_gamemgr.obj
 0001:000aca82       ?UpdateMasks@CVoiceGameMgr@@AAEXXZ 100ada82 f   voice_gamemgr.obj
 0001:000acdb0       ??_ECVoiceGameMgr@@UAEPAXI@Z 100addb0 f i voice_gamemgr.obj
 0001:000acdb0       ??_GCVoiceGameMgr@@UAEPAXI@Z 100addb0 f i voice_gamemgr.obj
 0001:000acde0       ??4CBitVecAccessor@@QAEXH@Z 100adde0 f i voice_gamemgr.obj
 0001:000ace70       ??BCBitVecAccessor@@QAEKXZ 100ade70 f i voice_gamemgr.obj
 0001:000acea0       ??0?$CBitVec@$0CA@@@QAE@XZ 100adea0 f i voice_gamemgr.obj
 0001:000acee0       ?Init@?$CBitVec@$0CA@@@QAEXH@Z 100adee0 f i voice_gamemgr.obj
 0001:000acf30       ??A?$CBitVec@$0CA@@@QAE?AVCBitVecAccessor@@H@Z 100adf30 f i voice_gamemgr.obj
 0001:000acf60       ??0CBitVecAccessor@@QAE@PAKH@Z 100adf60 f i voice_gamemgr.obj
 0001:000acf90       ??4?$CBitVec@$0CA@@@QAEAAV0@ABV0@@Z 100adf90 f i voice_gamemgr.obj
 0001:000acfc0       ??9?$CBitVec@$0CA@@@QAE_NABV0@@Z 100adfc0 f i voice_gamemgr.obj
 0001:000acff0       ?GetDWord@?$CBitVec@$0CA@@@QAEKH@Z 100adff0 f i voice_gamemgr.obj
 0001:000ad010       ?SetDWord@?$CBitVec@$0CA@@@QAEXHK@Z 100ae010 f i voice_gamemgr.obj
 0001:000ad030       ??8?$CBitVec@$0CA@@@QAE_NABV0@@Z 100ae030 f i voice_gamemgr.obj
 0001:000ad080       ?GetNumBits@?$CBitVec@$0CA@@@QAEHXZ 100ae080 f i voice_gamemgr.obj
 0001:000ad090       ?MaxAmmoCarry@@YAHH@Z      100ae090 f   weapons.obj
 0001:000ad168       ?ClearMultiDamage@@YAXXZ   100ae168 f   weapons.obj
 0001:000ad18b       ?ApplyMultiDamage@@YAXPAUentvars_s@@0@Z 100ae18b f   weapons.obj
 0001:000ad1de       ?AddMultiDamage@@YAXPAUentvars_s@@PAVCBaseEntity@@MH@Z 100ae1de f   weapons.obj
 0001:000ad235       ?SpawnBlood@@YAXVVector@@HM@Z 100ae235 f   weapons.obj
 0001:000ad258       ?DamageDecal@@YAHPAVCBaseEntity@@H@Z 100ae258 f   weapons.obj
 0001:000ad281       ?DecalGunshot@@YAXPAUTraceResult@@H@Z 100ae281 f   weapons.obj
 0001:000ad36d       ?EjectBrass@@YAXABVVector@@0MHH@Z 100ae36d f   weapons.obj
 0001:000ad42a       ?AddAmmoNameToAmmoRegistry@@YAXPBD@Z 100ae42a f   weapons.obj
 0001:000ad4bb       ?UTIL_PrecacheOtherWeapon@@YAXPBD@Z 100ae4bb f   weapons.obj
 0001:000ad5c7       ?W_Precache@@YAXXZ         100ae5c7 f   weapons.obj
 0001:000ad8cd       ?Save@CBasePlayerItem@@UAEHAAVCSave@@@Z 100ae8cd f   weapons.obj
 0001:000ad906       ?Restore@CBasePlayerItem@@UAEHAAVCRestore@@@Z 100ae906 f   weapons.obj
 0001:000ad93f       ?Save@CBasePlayerWeapon@@UAEHAAVCSave@@@Z 100ae93f f   weapons.obj
 0001:000ad978       ?Restore@CBasePlayerWeapon@@UAEHAAVCRestore@@@Z 100ae978 f   weapons.obj
 0001:000ad9b1       ?SetObjectCollisionBox@CBasePlayerItem@@UAEXXZ 100ae9b1 f   weapons.obj
 0001:000ada47       ?FallInit@CBasePlayerItem@@QAEXXZ 100aea47 f   weapons.obj
 0001:000adaea       ?FallThink@CBasePlayerItem@@QAEXXZ 100aeaea f   weapons.obj
 0001:000adba6       ?Materialize@CBasePlayerItem@@QAEXXZ 100aeba6 f   weapons.obj
 0001:000adc69       ?AttemptToMaterialize@CBasePlayerItem@@QAEXXZ 100aec69 f   weapons.obj
 0001:000adcc1       ?CheckRespawn@CBasePlayerItem@@QAEXXZ 100aecc1 f   weapons.obj
 0001:000add02       ?Respawn@CBasePlayerItem@@UAEPAVCBaseEntity@@XZ 100aed02 f   weapons.obj
 0001:000addfe       ?DefaultTouch@CBasePlayerItem@@QAEXPAVCBaseEntity@@@Z 100aedfe f   weapons.obj
 0001:000adebb       ?CanAttack@@YAHMMH@Z       100aeebb f   weapons.obj
 0001:000adf10       ?ItemPostFrame@CBasePlayerWeapon@@UAEXXZ 100aef10 f   weapons.obj
 0001:000ae34b       ?DestroyItem@CBasePlayerItem@@QAEXXZ 100af34b f   weapons.obj
 0001:000ae382       ?AddToPlayer@CBasePlayerItem@@UAEHPAVCBasePlayer@@@Z 100af382 f   weapons.obj
 0001:000ae39d       ?Drop@CBasePlayerItem@@UAEXXZ 100af39d f   weapons.obj
 0001:000ae3db       ?Kill@CBasePlayerItem@@UAEXXZ 100af3db f   weapons.obj
 0001:000ae419       ?Holster@CBasePlayerItem@@UAEXH@Z 100af419 f   weapons.obj
 0001:000ae44c       ?AttachToPlayer@CBasePlayerItem@@UAEXPAVCBasePlayer@@@Z 100af44c f   weapons.obj
 0001:000ae4f9       ?AddDuplicate@CBasePlayerWeapon@@UAEHPAVCBasePlayerItem@@@Z 100af4f9 f   weapons.obj
 0001:000ae538       ?AddToPlayer@CBasePlayerWeapon@@UAEHPAVCBasePlayer@@@Z 100af538 f   weapons.obj
 0001:000ae5d7       ?UpdateClientData@CBasePlayerWeapon@@UAEHPAVCBasePlayer@@@Z 100af5d7 f   weapons.obj
 0001:000ae74b       ?SendWeaponAnim@CBasePlayerWeapon@@UAEXHHH@Z 100af74b f   weapons.obj
 0001:000ae7ee       ?AddPrimaryAmmo@CBasePlayerWeapon@@QAEHHPADHH@Z 100af7ee f   weapons.obj
 0001:000ae929       ?AddSecondaryAmmo@CBasePlayerWeapon@@QAEHHPADH@Z 100af929 f   weapons.obj
 0001:000ae99c       ?IsUseable@CBasePlayerWeapon@@UAEHXZ 100af99c f   weapons.obj
 0001:000ae9e9       ?CanDeploy@CBasePlayerWeapon@@UAEHXZ 100af9e9 f   weapons.obj
 0001:000aea96       ?DefaultDeploy@CBasePlayerWeapon@@QAEHPAD0H0HH@Z 100afa96 f   weapons.obj
 0001:000aeb6a       ?DefaultReload@CBasePlayerWeapon@@QAEHHHMH@Z 100afb6a f   weapons.obj
 0001:000aec5a       ?PlayEmptySound@CBasePlayerWeapon@@UAEHXZ 100afc5a f   weapons.obj
 0001:000aecaa       ?ResetEmptySound@CBasePlayerWeapon@@UAEXXZ 100afcaa f   weapons.obj
 0001:000aecbf       ?PrimaryAmmoIndex@CBasePlayerWeapon@@UAEHXZ 100afcbf f   weapons.obj
 0001:000aecd3       ?SecondaryAmmoIndex@CBasePlayerWeapon@@UAEHXZ 100afcd3 f   weapons.obj
 0001:000aece1       ?Holster@CBasePlayerWeapon@@UAEXH@Z 100afce1 f   weapons.obj
 0001:000aed21       ?Spawn@CBasePlayerAmmo@@UAEXXZ 100afd21 f   weapons.obj
 0001:000aedad       ?Respawn@CBasePlayerAmmo@@UAEPAVCBaseEntity@@XZ 100afdad f   weapons.obj
 0001:000aee3c       ?Materialize@CBasePlayerAmmo@@QAEXXZ 100afe3c f   weapons.obj
 0001:000aeecc       ?DefaultTouch@CBasePlayerAmmo@@QAEXPAVCBaseEntity@@@Z 100afecc f   weapons.obj
 0001:000aefa2       ?ExtractAmmo@CBasePlayerWeapon@@UAEHPAV1@@Z 100affa2 f   weapons.obj
 0001:000af028       ?ExtractClipAmmo@CBasePlayerWeapon@@UAEHPAV1@@Z 100b0028 f   weapons.obj
 0001:000af07f       ?RetireWeapon@CBasePlayerWeapon@@UAEXXZ 100b007f f   weapons.obj
 0001:000af0cb       _weaponbox                 100b00cb f   weapons.obj
 0001:000af0dc       ?Save@CWeaponBox@@UAEHAAVCSave@@@Z 100b00dc f   weapons.obj
 0001:000af115       ?Restore@CWeaponBox@@UAEHAAVCRestore@@@Z 100b0115 f   weapons.obj
 0001:000af14e       ?Precache@CWeaponBox@@EAEXXZ 100b014e f   weapons.obj
 0001:000af167       ?KeyValue@CWeaponBox@@EAEXPAUKeyValueData_s@@@Z 100b0167 f   weapons.obj
 0001:000af1dc       ?Spawn@CWeaponBox@@EAEXXZ  100b01dc f   weapons.obj
 0001:000af249       ?Kill@CWeaponBox@@QAEXXZ   100b0249 f   weapons.obj
 0001:000af2c1       ?Touch@CWeaponBox@@EAEXPAVCBaseEntity@@@Z 100b02c1 f   weapons.obj
 0001:000af46d       ?PackWeapon@CWeaponBox@@QAEHPAVCBasePlayerItem@@@Z 100b046d f   weapons.obj
 0001:000af5b5       ?PackAmmo@CWeaponBox@@QAEHHH@Z 100b05b5 f   weapons.obj
 0001:000af62d       ?GiveAmmo@CWeaponBox@@AAEHHPADHPAH@Z 100b062d f   weapons.obj
 0001:000af76b       ?HasWeapon@CWeaponBox@@QAEHPAVCBasePlayerItem@@@Z 100b076b f   weapons.obj
 0001:000af7d4       ?IsEmpty@CWeaponBox@@AAEHXZ 100b07d4 f   weapons.obj
 0001:000af846       ?SetObjectCollisionBox@CWeaponBox@@EAEXXZ 100b0846 f   weapons.obj
 0001:000af8dc       ?PrintState@CBasePlayerWeapon@@QAEXXZ 100b08dc f   weapons.obj
 0001:000af959       ?Save@CRpg@@UAEHAAVCSave@@@Z 100b0959 f   weapons.obj
 0001:000af992       ?Restore@CRpg@@UAEHAAVCRestore@@@Z 100b0992 f   weapons.obj
 0001:000af9cb       ?Save@CRpgRocket@@UAEHAAVCSave@@@Z 100b09cb f   weapons.obj
 0001:000afa04       ?Restore@CRpgRocket@@UAEHAAVCRestore@@@Z 100b0a04 f   weapons.obj
 0001:000afa3d       ?Save@CShotgun@@UAEHAAVCSave@@@Z 100b0a3d f   weapons.obj
 0001:000afa76       ?Restore@CShotgun@@UAEHAAVCRestore@@@Z 100b0a76 f   weapons.obj
 0001:000afaaf       ?Save@CGauss@@UAEHAAVCSave@@@Z 100b0aaf f   weapons.obj
 0001:000afae8       ?Restore@CGauss@@UAEHAAVCRestore@@@Z 100b0ae8 f   weapons.obj
 0001:000afb21       ?Save@CEgon@@UAEHAAVCSave@@@Z 100b0b21 f   weapons.obj
 0001:000afb5a       ?Restore@CEgon@@UAEHAAVCRestore@@@Z 100b0b5a f   weapons.obj
 0001:000afb93       ?Save@CSatchel@@UAEHAAVCSave@@@Z 100b0b93 f   weapons.obj
 0001:000afbcc       ?Restore@CSatchel@@UAEHAAVCRestore@@@Z 100b0bcc f   weapons.obj
 0001:000afc10       ?GetClassPtr@@YAPAVCWeaponBox@@PAV1@@Z 100b0c10 f i weapons.obj
 0001:000afca0       ??0CWeaponBox@@QAE@XZ      100b0ca0 f i weapons.obj
 0001:000afcc0       ?pszAmmo2@CBasePlayerItem@@QAEPBDXZ 100b0cc0 f i weapons.obj
 0001:000afce0       ?iMaxAmmo2@CBasePlayerItem@@QAEHXZ 100b0ce0 f i weapons.obj
 0001:000afd00       ?iMaxClip@CBasePlayerItem@@QAEHXZ 100b0d00 f i weapons.obj
 0001:000afd39       _infodecal                 100b0d39 f   world.obj
 0001:000afd4a       ?Spawn@CDecal@@UAEXXZ      100b0d4a f   world.obj
 0001:000afdf8       ?TriggerDecal@CDecal@@QAEXPAVCBaseEntity@@0W4USE_TYPE@@M@Z 100b0df8 f   world.obj
 0001:000aff5b       ?StaticDecal@CDecal@@QAEXXZ 100b0f5b f   world.obj
 0001:000b004f       ?KeyValue@CDecal@@UAEXPAUKeyValueData_s@@@Z 100b104f f   world.obj
 0001:000b00c6       _bodyque                   100b10c6 f   world.obj
 0001:000b00d7       ?CopyToBodyQue@@YAXPAUentvars_s@@@Z 100b10d7 f   world.obj
 0001:000b0262       ??0CGlobalState@@QAE@XZ    100b1262 f   world.obj
 0001:000b0278       ?Reset@CGlobalState@@QAEXXZ 100b1278 f   world.obj
 0001:000b0296       ?Find@CGlobalState@@AAEPAUglobalentity_s@@H@Z 100b1296 f   world.obj
 0001:000b02f2       ?DumpGlobals@CGlobalState@@QAEXXZ 100b12f2 f   world.obj
 0001:000b0351       ?EntityAdd@CGlobalState@@QAEXHHW4GLOBALESTATE@@@Z 100b1351 f   world.obj
 0001:000b03d5       ?EntitySetState@CGlobalState@@QAEXHW4GLOBALESTATE@@@Z 100b13d5 f   world.obj
 0001:000b0402       ?EntityFromTable@CGlobalState@@QAEPBUglobalentity_s@@H@Z 100b1402 f   world.obj
 0001:000b0423       ?EntityGetState@CGlobalState@@QAE?AW4GLOBALESTATE@@H@Z 100b1423 f   world.obj
 0001:000b0451       ?Save@CGlobalState@@QAEHAAVCSave@@@Z 100b1451 f   world.obj
 0001:000b04db       ?Restore@CGlobalState@@QAEHAAVCRestore@@@Z 100b14db f   world.obj
 0001:000b0595       ?EntityUpdate@CGlobalState@@QAEXHH@Z 100b1595 f   world.obj
 0001:000b05d8       ?ClearStates@CGlobalState@@QAEXXZ 100b15d8 f   world.obj
 0001:000b0618       ?SaveGlobalState@@YAXPAUsaverestore_s@@@Z 100b1618 f   world.obj
 0001:000b0642       ?RestoreGlobalState@@YAXPAUsaverestore_s@@@Z 100b1642 f   world.obj
 0001:000b0682       ?ResetGlobalState@@YAXXZ   100b1682 f   world.obj
 0001:000b069b       _worldspawn                100b169b f   world.obj
 0001:000b06ac       ?Spawn@CWorld@@UAEXXZ      100b16ac f   world.obj
 0001:000b06e0       ?Precache@CWorld@@UAEXXZ   100b16e0 f   world.obj
 0001:000b0c55       ?KeyValue@CWorld@@UAEXPAUKeyValueData_s@@@Z 100b1c55 f   world.obj
 0001:000b0f70       ?GetClassPtr@@YAPAVCDecal@@PAV1@@Z 100b1f70 f i world.obj
 0001:000b1000       ?GetClassPtr@@YAPAVCCorpse@@PAV1@@Z 100b2000 f i world.obj
 0001:000b1090       ?GetClassPtr@@YAPAVCWorld@@PAV1@@Z 100b2090 f i world.obj
 0001:000b1120       ??0CDecal@@QAE@XZ          100b2120 f i world.obj
 0001:000b1140       ??0CCorpse@@QAE@XZ         100b2140 f i world.obj
 0001:000b1160       ?ObjectCaps@CCorpse@@EAEHXZ 100b2160 f i world.obj
 0001:000b1170       ??0CWorld@@QAE@XZ          100b2170 f i world.obj
 0001:000b1190       ?Save@CActAnimating@@UAEHAAVCSave@@@Z 100b2190 f   xen.obj
 0001:000b11c9       ?Restore@CActAnimating@@UAEHAAVCRestore@@@Z 100b21c9 f   xen.obj
 0001:000b1202       ?SetActivity@CActAnimating@@QAEXW4Activity@@@Z 100b2202 f   xen.obj
 0001:000b1256       _xen_plantlight            100b2256 f   xen.obj
 0001:000b1267       ?Save@CXenPLight@@UAEHAAVCSave@@@Z 100b2267 f   xen.obj
 0001:000b12a0       ?Restore@CXenPLight@@UAEHAAVCRestore@@@Z 100b22a0 f   xen.obj
 0001:000b12d9       ?Spawn@CXenPLight@@UAEXXZ  100b22d9 f   xen.obj
 0001:000b1480       ?Precache@CXenPLight@@UAEXXZ 100b2480 f   xen.obj
 0001:000b14a7       ?Think@CXenPLight@@UAEXXZ  100b24a7 f   xen.obj
 0001:000b1559       ?Touch@CXenPLight@@UAEXPAVCBaseEntity@@@Z 100b2559 f   xen.obj
 0001:000b15b5       ?LightOn@CXenPLight@@QAEXXZ 100b25b5 f   xen.obj
 0001:000b15fa       ?LightOff@CXenPLight@@QAEXXZ 100b25fa f   xen.obj
 0001:000b163f       _xen_hair                  100b263f f   xen.obj
 0001:000b1650       ?Spawn@CXenHair@@UAEXXZ    100b2650 f   xen.obj
 0001:000b1767       ?Think@CXenHair@@UAEXXZ    100b2767 f   xen.obj
 0001:000b179c       ?Precache@CXenHair@@UAEXXZ 100b279c f   xen.obj
 0001:000b17b5       _xen_ttrigger              100b27b5 f   xen.obj
 0001:000b17c6       ?TriggerCreate@CXenTreeTrigger@@SAPAV1@PAUedict_s@@ABVVector@@@Z 100b27c6 f   xen.obj
 0001:000b1842       ?Touch@CXenTreeTrigger@@UAEXPAVCBaseEntity@@@Z 100b2842 f   xen.obj
 0001:000b188a       _xen_tree                  100b288a f   xen.obj
 0001:000b189b       ?Save@CXenTree@@UAEHAAVCSave@@@Z 100b289b f   xen.obj
 0001:000b18d4       ?Restore@CXenTree@@UAEHAAVCRestore@@@Z 100b28d4 f   xen.obj
 0001:000b190d       ?Spawn@CXenTree@@UAEXXZ    100b290d f   xen.obj
 0001:000b1ac7       ?Precache@CXenTree@@UAEXXZ 100b2ac7 f   xen.obj
 0001:000b1b4c       ?Touch@CXenTree@@UAEXPAVCBaseEntity@@@Z 100b2b4c f   xen.obj
 0001:000b1b8d       ?Attack@CXenTree@@QAEXXZ   100b2b8d f   xen.obj
 0001:000b1c17       ?HandleAnimEvent@CXenTree@@UAEXPAUMonsterEvent_t@@@Z 100b2c17 f   xen.obj
 0001:000b1dcf       ?Think@CXenTree@@UAEXXZ    100b2dcf f   xen.obj
 0001:000b1e56       ?CreateHull@CXenHull@@SAPAV1@PAVCBaseEntity@@ABVVector@@11@Z 100b2e56 f   xen.obj
 0001:000b1f45       _xen_spore_small           100b2f45 f   xen.obj
 0001:000b1f56       _xen_spore_medium          100b2f56 f   xen.obj
 0001:000b1f67       _xen_spore_large           100b2f67 f   xen.obj
 0001:000b1f78       _xen_hull                  100b2f78 f   xen.obj
 0001:000b1f89       ?Spawn@CXenSporeSmall@@EAEXXZ 100b2f89 f   xen.obj
 0001:000b1fea       ?Spawn@CXenSporeMed@@EAEXXZ 100b2fea f   xen.obj
 0001:000b20fa       ?Spawn@CXenSporeLarge@@EAEXXZ 100b30fa f   xen.obj
 0001:000b2235       ?Spawn@CXenSpore@@UAEXXZ   100b3235 f   xen.obj
 0001:000b2321       ?Precache@CXenSpore@@UAEXXZ 100b3321 f   xen.obj
 0001:000b2349       ?Touch@CXenSpore@@UAEXPAVCBaseEntity@@@Z 100b3349 f   xen.obj
 0001:000b2356       ?Think@CXenSpore@@UAEXXZ   100b3356 f   xen.obj
 0001:000b2390       ?GetActivity@CActAnimating@@QAE?AW4Activity@@XZ 100b3390 f i xen.obj
 0001:000b23b0       ?GetClassPtr@@YAPAVCXenPLight@@PAV1@@Z 100b33b0 f i xen.obj
 0001:000b2440       ?GetClassPtr@@YAPAVCXenHair@@PAV1@@Z 100b3440 f i xen.obj
 0001:000b24d0       ?GetClassPtr@@YAPAVCXenTreeTrigger@@PAV1@@Z 100b34d0 f i xen.obj
 0001:000b2560       ?GetClassPtr@@YAPAVCXenTree@@PAV1@@Z 100b3560 f i xen.obj
 0001:000b25f0       ?GetClassPtr@@YAPAVCXenHull@@PAV1@@Z 100b35f0 f i xen.obj
 0001:000b2680       ?GetClassPtr@@YAPAVCXenSporeSmall@@PAV1@@Z 100b3680 f i xen.obj
 0001:000b2710       ?GetClassPtr@@YAPAVCXenSporeMed@@PAV1@@Z 100b3710 f i xen.obj
 0001:000b27a0       ?GetClassPtr@@YAPAVCXenSporeLarge@@PAV1@@Z 100b37a0 f i xen.obj
 0001:000b2830       ??0CXenPLight@@QAE@XZ      100b3830 f i xen.obj
 0001:000b2850       ?ObjectCaps@CActAnimating@@UAEHXZ 100b3850 f i xen.obj
 0001:000b2870       ??0CXenHair@@QAE@XZ        100b3870 f i xen.obj
 0001:000b2890       ??0CXenTreeTrigger@@QAE@XZ 100b3890 f i xen.obj
 0001:000b28b0       ??0CXenTree@@QAE@XZ        100b38b0 f i xen.obj
 0001:000b28d0       ?TakeDamage@CXenTree@@UAEHPAUentvars_s@@0MH@Z 100b38d0 f i xen.obj
 0001:000b28f0       ?Classify@CXenTree@@UAEHXZ 100b38f0 f i xen.obj
 0001:000b2900       ??0CXenHull@@QAE@XZ        100b3900 f i xen.obj
 0001:000b2920       ?Classify@CXenHull@@UAEHXZ 100b3920 f i xen.obj
 0001:000b2930       ??0CXenSporeSmall@@QAE@XZ  100b3930 f i xen.obj
 0001:000b2950       ?TakeDamage@CXenSpore@@UAEHPAUentvars_s@@0MH@Z 100b3950 f i xen.obj
 0001:000b2970       ?Attack@CXenSpore@@QAEXXZ  100b3970 f i xen.obj
 0001:000b2980       ??0CXenSporeMed@@QAE@XZ    100b3980 f i xen.obj
 0001:000b29a0       ??0CXenSporeLarge@@QAE@XZ  100b39a0 f i xen.obj
 0001:000b29c0       ??0CActAnimating@@QAE@XZ   100b39c0 f i xen.obj
 0001:000b29e0       ??0CXenSpore@@QAE@XZ       100b39e0 f i xen.obj
 0001:000b2a00       _monster_zombie            100b3a00 f   zombie.obj
 0001:000b2a11       ?Classify@CZombie@@UAEHXZ  100b3a11 f   zombie.obj
 0001:000b2a21       ?SetYawSpeed@CZombie@@UAEXXZ 100b3a21 f   zombie.obj
 0001:000b2a44       ?TakeDamage@CZombie@@UAEHPAUentvars_s@@0MH@Z 100b3a44 f   zombie.obj
 0001:000b2b51       ?PainSound@CZombie@@UAEXXZ 100b3b51 f   zombie.obj
 0001:000b2bc2       ?AlertSound@CZombie@@UAEXXZ 100b3bc2 f   zombie.obj
 0001:000b2c21       ?IdleSound@CZombie@@UAEXXZ 100b3c21 f   zombie.obj
 0001:000b2c8d       ?AttackSound@CZombie@@QAEXXZ 100b3c8d f   zombie.obj
 0001:000b2ce4       ?HandleAnimEvent@CZombie@@UAEXPAUMonsterEvent_t@@@Z 100b3ce4 f   zombie.obj
 0001:000b3106       ?Spawn@CZombie@@UAEXXZ     100b4106 f   zombie.obj
 0001:000b3219       ?Precache@CZombie@@UAEXXZ  100b4219 f   zombie.obj
 0001:000b3348       ?IgnoreConditions@CZombie@@UAEHXZ 100b4348 f   zombie.obj
 0001:000b33f0       ?GetClassPtr@@YAPAVCZombie@@PAV1@@Z 100b43f0 f i zombie.obj
 0001:000b3480       ??0CZombie@@QAE@XZ         100b4480 f i zombie.obj
 0001:000b34a0       ?CheckRangeAttack1@CZombie@@UAEHMM@Z 100b44a0 f i zombie.obj
 0001:000b34b0       ?CheckRangeAttack2@CZombie@@UAEHMM@Z 100b44b0 f i zombie.obj
 0001:000b34c0       _CreateDirectoryA@8        100b44c0 f   kernel32:KERNEL32.dll
 0001:000b34c6       _atof                      100b44c6 f   LIBCMT:atof.obj
 0001:000b351d       _atol                      100b451d f   LIBCMT:atox.obj
 0001:000b35a8       _atoi                      100b45a8 f   LIBCMT:atox.obj
 0001:000b35b3       __atoi64                   100b45b3 f   LIBCMT:atox.obj
 0001:000b366d       __fpmath                   100b466d f   LIBCMT:fpinit.obj
 0001:000b3684       __fpclear                  100b4684 f   LIBCMT:fpinit.obj
 0001:000b3685       __cfltcvt_init             100b4685 f   LIBCMT:fpinit.obj
 0001:000b36bd       ___setfflag                100b46bd f   LIBCMT:fpinit.obj
 0001:000b36d0       __CIsqrt                   100b46d0 f   LIBCMT:sqrt.obj
 0001:000b36e4       _sqrt                      100b46e4 f   LIBCMT:sqrt.obj
 0001:000b3790       _strcmp                    100b4790 f   LIBCMT:strcmp.obj
 0001:000b3814       __ftol                     100b4814 f   LIBCMT:ftol.obj
 0001:000b3840       __CIsin                    100b4840 f   LIBCMT:sin.obj
 0001:000b3854       _sin                       100b4854 f   LIBCMT:sin.obj
 0001:000b38f0       __CIcos                    100b48f0 f   LIBCMT:cos.obj
 0001:000b3904       _cos                       100b4904 f   LIBCMT:cos.obj
 0001:000b39a0       _strlen                    100b49a0 f   LIBCMT:strlen.obj
 0001:000b3a1b       _fabs                      100b4a1b f   LIBCMT:fabs.obj
 0001:000b3ad0       _abs                       100b4ad0 f   LIBCMT:abs.obj
 0001:000b3ae0       _memset                    100b4ae0 f   LIBCMT:memset.obj
 0001:000b3b40       _memcpy                    100b4b40 f   LIBCMT:memcpy.obj
 0001:000b3e75       _sprintf                   100b4e75 f   LIBCMT:sprintf.obj
 0001:000b3ed0       _strcpy                    100b4ed0 f   LIBCMT:strcat.obj
 0001:000b3ee0       _strcat                    100b4ee0 f   LIBCMT:strcat.obj
 0001:000b3fc0       _isalpha                   100b4fc0 f   LIBCMT:_ctype.obj
 0001:000b3fee       _isupper                   100b4fee f   LIBCMT:_ctype.obj
 0001:000b4016       _islower                   100b5016 f   LIBCMT:_ctype.obj
 0001:000b403e       _isdigit                   100b503e f   LIBCMT:_ctype.obj
 0001:000b4066       _isxdigit                  100b5066 f   LIBCMT:_ctype.obj
 0001:000b4093       _isspace                   100b5093 f   LIBCMT:_ctype.obj
 0001:000b40bb       _ispunct                   100b50bb f   LIBCMT:_ctype.obj
 0001:000b40e3       _isalnum                   100b50e3 f   LIBCMT:_ctype.obj
 0001:000b4111       _isprint                   100b5111 f   LIBCMT:_ctype.obj
 0001:000b413f       _isgraph                   100b513f f   LIBCMT:_ctype.obj
 0001:000b416d       _iscntrl                   100b516d f   LIBCMT:_ctype.obj
 0001:000b4195       ___isascii                 100b5195 f   LIBCMT:_ctype.obj
 0001:000b41a2       ___toascii                 100b51a2 f   LIBCMT:_ctype.obj
 0001:000b41aa       ___iscsymf                 100b51aa f   LIBCMT:_ctype.obj
 0001:000b41e7       ___iscsym                  100b51e7 f   LIBCMT:_ctype.obj
 0001:000b4230       _strncpy                   100b5230 f   LIBCMT:strncpy.obj
 0001:000b4330       _strstr                    100b5330 f   LIBCMT:strstr.obj
 0001:000b43b0       _fmod                      100b53b0 f   LIBCMT:87fmod.obj
 0001:000b43ba       __CIfmod                   100b53ba f   LIBCMT:87fmod.obj
 0001:000b43f0       _atan2                     100b53f0 f   LIBCMT:87ctriga.obj
 0001:000b43fa       __CIatan2                  100b53fa f   LIBCMT:87ctriga.obj
 0001:000b4410       _strncmp                   100b5410 f   LIBCMT:strncmp.obj
 0001:000b4448       ??2@YAPAXI@Z               100b5448 f   LIBCMT:new.obj
 0001:000b4460       __CIpow                    100b5460 f   LIBCMT:pow.obj
 0001:000b4479       _pow                       100b5479 f   LIBCMT:pow.obj
 0001:000b467d       _sscanf                    100b567d f   LIBCMT:sscanf.obj
 0001:000b46b1       __onexit                   100b56b1 f   LIBCMT:onexit.obj
 0001:000b472f       _atexit                    100b572f f   LIBCMT:onexit.obj
 0001:000b4741       ___onexitinit              100b5741 f   LIBCMT:onexit.obj
 0001:000b4770       ??3@YAXPAX@Z               100b5770 f   LIBCMT:delete.obj
 0001:000b477b       __purecall                 100b577b f   LIBCMT:purevirt.obj
 0001:000b4784       _free                      100b5784 f   LIBCMT:free.obj
 0001:000b47cc       _calloc                    100b57cc f   LIBCMT:calloc.obj
 0001:000b4859       _fprintf                   100b5859 f   LIBCMT:fprintf.obj
 0001:000b4895       _fclose                    100b5895 f   LIBCMT:fclose.obj
 0001:000b48c6       __fclose_lk                100b58c6 f   LIBCMT:fclose.obj
 0001:000b4912       __fsopen                   100b5912 f   LIBCMT:fopen.obj
 0001:000b4943       _fopen                     100b5943 f   LIBCMT:fopen.obj
 0001:000b4956       _printf                    100b5956 f   LIBCMT:printf.obj
 0001:000b4997       _fwrite                    100b5997 f   LIBCMT:fwrite.obj
 0001:000b49c6       __fwrite_lk                100b59c6 f   LIBCMT:fwrite.obj
 0001:000b4ad0       _memcmp                    100b5ad0 f   LIBCMT:memcmp.obj
 0001:000b4b7c       _localtime                 100b5b7c f   LIBCMT:localtim.obj
 0001:000b4cdc       _time                      100b5cdc f   LIBCMT:time.obj
 0001:000b4dc0       __CIacos                   100b5dc0 f   LIBCMT:acos.obj
 0001:000b4dd4       _acos                      100b5dd4 f   LIBCMT:acos.obj
 0001:000b4e8b       __toupper                  100b5e8b f   LIBCMT:toupper.obj
 0001:000b4e93       _toupper                   100b5e93 f   LIBCMT:toupper.obj
 0001:000b4f02       __toupper_lk               100b5f02 f   LIBCMT:toupper.obj
 0001:000b4fce       __isctype                  100b5fce f   LIBCMT:isctype.obj
 0001:000b5043       _strtok                    100b6043 f   LIBCMT:strtok.obj
 0001:000b50f0       __chkstk                   100b60f0 f   LIBCMT:chkstk.obj
 0001:000b50f0       __alloca_probe             100b60f0 f   LIBCMT:chkstk.obj
 0001:000b511f       _vsprintf                  100b611f f   LIBCMT:vsprintf.obj
 0001:000b5170       __lrotr                    100b6170 f   LIBCMT:rotr.obj
 0001:000b5180       __rotr                     100b6180 f   LIBCMT:rotr.obj
 0001:000b51a9       __vsnprintf                100b61a9 f   LIBCMT:vsnprint.obj
 0001:000b51f9       __CRT_INIT@12              100b61f9 f   LIBCMT:dllcrt0.obj
 0001:000b52d2       __DllMainCRTStartup@12     100b62d2 f   LIBCMT:dllcrt0.obj
 0001:000b536f       __amsg_exit                100b636f f   LIBCMT:dllcrt0.obj
 0001:000b53a2       __fltin2                   100b63a2 f   LIBCMT:cfin.obj
 0001:000b5430       __allmul                   100b6430 f   LIBCMT:llmul.obj
 0001:000b5464       __setdefaultprecision      100b6464 f   LIBCMT:fp8.obj
 0001:000b5476       __ms_p5_test_fdiv          100b6476 f   LIBCMT:testfdiv.obj
 0001:000b54b4       __ms_p5_mp_test_fdiv       100b64b4 f   LIBCMT:testfdiv.obj
 0001:000b54dd       __forcdecpt                100b64dd f   LIBCMT:cvt.obj
 0001:000b5537       __cropzeros                100b6537 f   LIBCMT:cvt.obj
 0001:000b5585       __positive                 100b6585 f   LIBCMT:cvt.obj
 0001:000b559d       __fassign                  100b659d f   LIBCMT:cvt.obj
 0001:000b55db       __cftoe                    100b65db f   LIBCMT:cvt.obj
 0001:000b56fe       __cftof                    100b66fe f   LIBCMT:cvt.obj
 0001:000b57fa       __cftog                    100b67fa f   LIBCMT:cvt.obj
 0001:000b588d       __cfltcvt                  100b688d f   LIBCMT:cvt.obj
 0001:000b5910       __trandisp1                100b6910 f   LIBCMT:87disp.obj
 0001:000b5977       __trandisp2                100b6977 f   LIBCMT:87disp.obj
 0001:000b5a03       __rttospopde               100b6a03 f   LIBCMT:87disp.obj
 0001:000b5a08       __rttospop                 100b6a08 f   LIBCMT:87disp.obj
 0001:000b5a0a       __rtnospop                 100b6a0a f   LIBCMT:87disp.obj
 0001:000b5a0c       __rttosnpop                100b6a0c f   LIBCMT:87disp.obj
 0001:000b5a0d       __rtnospopde               100b6a0d f   LIBCMT:87disp.obj
 0001:000b5a14       __rtzeropop                100b6a14 f   LIBCMT:87disp.obj
 0001:000b5a16       __rtzeronpop               100b6a16 f   LIBCMT:87disp.obj
 0001:000b5a1b       __rtonepop                 100b6a1b f   LIBCMT:87disp.obj
 0001:000b5a1d       __rtonenpop                100b6a1d f   LIBCMT:87disp.obj
 0001:000b5a22       __tosnan1                  100b6a22 f   LIBCMT:87disp.obj
 0001:000b5a4d       __nosnan2                  100b6a4d f   LIBCMT:87disp.obj
 0001:000b5a4f       __tosnan2                  100b6a4f f   LIBCMT:87disp.obj
 0001:000b5a77       __nan2                     100b6a77 f   LIBCMT:87disp.obj
 0001:000b5ab6       __rtindfpop                100b6ab6 f   LIBCMT:87disp.obj
 0001:000b5ab8       __rtindfnpop               100b6ab8 f   LIBCMT:87disp.obj
 0001:000b5ac9       __rttosnpopde              100b6ac9 f   LIBCMT:87disp.obj
 0001:000b5ad3       __rtchsifneg               100b6ad3 f   LIBCMT:87disp.obj
 0001:000b5ae0       __startTwoArgErrorHandling 100b6ae0 f   LIBCMT:genexcep.obj
 0001:000b5af7       __startOneArgErrorHandling 100b6af7 f   LIBCMT:genexcep.obj
 0001:000b5b40       __twoToTOS                 100b6b40 f   LIBCMT:common.obj
 0001:000b5b55       __load_CW                  100b6b55 f   LIBCMT:common.obj
 0001:000b5b6c       __convertTOStoQNaN         100b6b6c f   LIBCMT:common.obj
 0001:000b5b85       __fload_withFB             100b6b85 f   LIBCMT:common.obj
 0001:000b5bc8       __checkTOS_withFB          100b6bc8 f   LIBCMT:common.obj
 0001:000b5bde       __fast_exit                100b6bde f   LIBCMT:common.obj
 0001:000b5beb       __math_exit                100b6beb f   LIBCMT:common.obj
 0001:000b5c15       __check_overflow_exit      100b6c15 f   LIBCMT:common.obj
 0001:000b5c29       __check_range_exit         100b6c29 f   LIBCMT:common.obj
 0001:000b5ccc       __handle_qnan1             100b6ccc f   LIBCMT:fpexcept.obj
 0001:000b5d20       __handle_qnan2             100b6d20 f   LIBCMT:fpexcept.obj
 0001:000b5d80       __except1                  100b6d80 f   LIBCMT:fpexcept.obj
 0001:000b5e18       __except2                  100b6e18 f   LIBCMT:fpexcept.obj
 0001:000b5ebd       __raise_exc                100b6ebd f   LIBCMT:fpexcept.obj
 0001:000b6170       __handle_exc               100b7170 f   LIBCMT:fpexcept.obj
 0001:000b6387       __umatherr                 100b7387 f   LIBCMT:fpexcept.obj
 0001:000b640f       __set_errno                100b740f f   LIBCMT:fpexcept.obj
 0001:000b645c       __errcode                  100b745c f   LIBCMT:fpexcept.obj
 0001:000b6489       __set_exp                  100b7489 f   LIBCMT:util.obj
 0001:000b64b2       __get_exp                  100b74b2 f   LIBCMT:util.obj
 0001:000b64c6       __add_exp                  100b74c6 f   LIBCMT:util.obj
 0001:000b64f2       __set_bexp                 100b74f2 f   LIBCMT:util.obj
 0001:000b6516       __sptype                   100b7516 f   LIBCMT:util.obj
 0001:000b6570       __decomp                   100b7570 f   LIBCMT:util.obj
 0001:000b6631       __statfp                   100b7631 f   LIBCMT:fpctrl.obj
 0001:000b663f       __clrfp                    100b763f f   LIBCMT:fpctrl.obj
 0001:000b664e       __ctrlfp                   100b764e f   LIBCMT:fpctrl.obj
 0001:000b6671       __set_statfp               100b7671 f   LIBCMT:fpctrl.obj
 0001:000b66c7       __flsbuf                   100b76c7 f   LIBCMT:_flsbuf.obj
 0001:000b67df       __output                   100b77df f   LIBCMT:output.obj
 0001:000b7000       _strchr                    100b8000 f   LIBCMT:strchr.obj
 0001:000b7006       ___from_strstr_to_strchr   100b8006 f   LIBCMT:strchr.obj
 0001:000b70c0       __cintrindisp2             100b80c0 f   LIBCMT:87cdisp.obj
 0001:000b70fe       __cintrindisp1             100b80fe f   LIBCMT:87cdisp.obj
 0001:000b713b       __ctrandisp2               100b813b f   LIBCMT:87cdisp.obj
 0001:000b72bb       __ctrandisp1               100b82bb f   LIBCMT:87cdisp.obj
 0001:000b72ee       __fload                    100b82ee f   LIBCMT:87cdisp.obj
 0001:000b7330       _fdiv_main_routine         100b8330 f   LIBCMT:adj_fdiv.obj
 0001:000b7447       __adj_fdiv_r               100b8447 f   LIBCMT:adj_fdiv.obj
 0001:000b78e6       __fdivp_sti_st             100b88e6 f   LIBCMT:adj_fdiv.obj
 0001:000b78f9       __fdivrp_sti_st            100b88f9 f   LIBCMT:adj_fdiv.obj
 0001:000b790c       __adj_fdiv_m32             100b890c f   LIBCMT:adj_fdiv.obj
 0001:000b7958       __adj_fdiv_m64             100b8958 f   LIBCMT:adj_fdiv.obj
 0001:000b79a4       __adj_fdiv_m16i            100b89a4 f   LIBCMT:adj_fdiv.obj
 0001:000b79d8       __adj_fdiv_m32i            100b89d8 f   LIBCMT:adj_fdiv.obj
 0001:000b7a0c       __adj_fdivr_m32            100b8a0c f   LIBCMT:adj_fdiv.obj
 0001:000b7a58       __adj_fdivr_m64            100b8a58 f   LIBCMT:adj_fdiv.obj
 0001:000b7aa4       __adj_fdivr_m16i           100b8aa4 f   LIBCMT:adj_fdiv.obj
 0001:000b7ad8       __adj_fdivr_m32i           100b8ad8 f   LIBCMT:adj_fdiv.obj
 0001:000b7b0c       __safe_fdiv                100b8b0c f   LIBCMT:adj_fdiv.obj
 0001:000b7b21       __safe_fdivr               100b8b21 f   LIBCMT:adj_fdiv.obj
 0001:000b7b36       __fprem_common             100b8b36 f   LIBCMT:adj_fdiv.obj
 0001:000b7d3c       __adj_fprem                100b8d3c f   LIBCMT:adj_fdiv.obj
 0001:000b7dee       __fprem1_common            100b8dee f   LIBCMT:adj_fdiv.obj
 0001:000b7ff4       __adj_fprem1               100b8ff4 f   LIBCMT:adj_fdiv.obj
 0001:000b80a9       __safe_fprem               100b90a9 f   LIBCMT:adj_fdiv.obj
 0001:000b80af       __safe_fprem1              100b90af f   LIBCMT:adj_fdiv.obj
 0001:000b80b5       __adj_fpatan               100b90b5 f   LIBCMT:adj_fdiv.obj
 0001:000b80b8       __adj_fptan                100b90b8 f   LIBCMT:adj_fdiv.obj
 0001:000b80dc       __fFATN2                   100b90dc f   LIBCMT:87triga.obj
 0001:000b812c       __rtpiby2                  100b912c f   LIBCMT:87triga.obj
 0001:000b8162       _malloc                    100b9162 f   LIBCMT:malloc.obj
 0001:000b8174       __nh_malloc                100b9174 f   LIBCMT:malloc.obj
 0001:000b81a0       __heap_alloc               100b91a0 f   LIBCMT:malloc.obj
 0001:000b8201       __fFEXP                    100b9201 f   LIBCMT:87tran.obj
 0001:000b8268       __rtinfpopse               100b9268 f   LIBCMT:87tran.obj
 0001:000b826a       __rtinfnpopse              100b926a f   LIBCMT:87tran.obj
 0001:000b827a       __fFLN                     100b927a f   LIBCMT:87tran.obj
 0001:000b832f       __rtinfpop                 100b932f f   LIBCMT:87tran.obj
 0001:000b8331       __rtinfnpop                100b9331 f   LIBCMT:87tran.obj
 0001:000b834e       __ffexpm1                  100b934e f   LIBCMT:87tran.obj
 0001:000b83f7       __powhlp                   100b93f7 f   LIBCMT:powhlp.obj
 0001:000b8527       __d_inttype                100b9527 f   LIBCMT:powhlp.obj
 0001:000b858c       __input                    100b958c f   LIBCMT:input.obj
 0001:000b903d       __cinit                    100ba03d f   LIBCMT:crt0dat.obj
 0001:000b906a       _exit                      100ba06a f   LIBCMT:crt0dat.obj
 0001:000b907b       __exit                     100ba07b f   LIBCMT:crt0dat.obj
 0001:000b908c       __cexit                    100ba08c f   LIBCMT:crt0dat.obj
 0001:000b909b       __c_exit                   100ba09b f   LIBCMT:crt0dat.obj
 0001:000b914f       __lockexit                 100ba14f f   LIBCMT:crt0dat.obj
 0001:000b9158       __unlockexit               100ba158 f   LIBCMT:crt0dat.obj
 0001:000b917b       _realloc                   100ba17b f   LIBCMT:realloc.obj
 0001:000b92b3       __msize                    100ba2b3 f   LIBCMT:msize.obj
 0001:000b92f8       __heap_init                100ba2f8 f   LIBCMT:heapinit.obj
 0001:000b9334       __heap_term                100ba334 f   LIBCMT:heapinit.obj
 0001:000b93a9       __mtinitlocks              100ba3a9 f   LIBCMT:mlock.obj
 0001:000b93d2       __mtdeletelocks            100ba3d2 f   LIBCMT:mlock.obj
 0001:000b943e       __lock                     100ba43e f   LIBCMT:mlock.obj
 0001:000b949f       __unlock                   100ba49f f   LIBCMT:mlock.obj
 0001:000b94b4       __lockerr_exit             100ba4b4 f   LIBCMT:mlock.obj
 0001:000b94cc       __get_sbh_threshold        100ba4cc f   LIBCMT:sbheap.obj
 0001:000b94d2       __set_sbh_threshold        100ba4d2 f   LIBCMT:sbheap.obj
 0001:000b94e9       ___sbh_heap_init           100ba4e9 f   LIBCMT:sbheap.obj
 0001:000b9527       ___sbh_find_block          100ba527 f   LIBCMT:sbheap.obj
 0001:000b9552       ___sbh_free_block          100ba552 f   LIBCMT:sbheap.obj
 0001:000b987d       ___sbh_alloc_block         100ba87d f   LIBCMT:sbheap.obj
 0001:000b9b86       ___sbh_alloc_new_region    100bab86 f   LIBCMT:sbheap.obj
 0001:000b9c37       ___sbh_alloc_new_group     100bac37 f   LIBCMT:sbheap.obj
 0001:000b9d32       ___sbh_resize_block        100bad32 f   LIBCMT:sbheap.obj
 0001:000ba028       ___sbh_heapmin             100bb028 f   LIBCMT:sbheap.obj
 0001:000ba0f9       ___sbh_heap_check          100bb0f9 f   LIBCMT:sbheap.obj
 0001:000ba428       ?_set_new_handler@@YAP6AHI@ZP6AHI@Z@Z 100bb428 f   LIBCMT:handler.obj
 0001:000ba44c       ?_query_new_handler@@YAP6AHI@ZXZ 100bb44c f   LIBCMT:handler.obj
 0001:000ba452       __callnewh                 100bb452 f   LIBCMT:handler.obj
 0001:000ba46d       ___initstdio               100bb46d f   LIBCMT:_file.obj
 0001:000ba515       ___endstdio                100bb515 f   LIBCMT:_file.obj
 0001:000ba529       __lock_file                100bb529 f   LIBCMT:_file.obj
 0001:000ba558       __lock_file2               100bb558 f   LIBCMT:_file.obj
 0001:000ba57b       __unlock_file              100bb57b f   LIBCMT:_file.obj
 0001:000ba5aa       __unlock_file2             100bb5aa f   LIBCMT:_file.obj
 0001:000ba5cd       __stbuf                    100bb5cd f   LIBCMT:_sftbuf.obj
 0001:000ba65a       __ftbuf                    100bb65a f   LIBCMT:_sftbuf.obj
 0001:000ba684       __close                    100bb684 f   LIBCMT:close.obj
 0001:000ba6e1       __close_lk                 100bb6e1 f   LIBCMT:close.obj
 0001:000ba764       __freebuf                  100bb764 f   LIBCMT:_freebuf.obj
 0001:000ba78f       _fflush                    100bb78f f   LIBCMT:fflush.obj
 0001:000ba7be       __fflush_lk                100bb7be f   LIBCMT:fflush.obj
 0001:000ba7ec       __flush                    100bb7ec f   LIBCMT:fflush.obj
 0001:000ba848       __flushall                 100bb848 f   LIBCMT:fflush.obj
 0001:000ba8f5       __openfile                 100bb8f5 f   LIBCMT:_open.obj
 0001:000baa65       __getstream                100bba65 f   LIBCMT:stream.obj
 0001:000bab2d       __write                    100bbb2d f   LIBCMT:write.obj
 0001:000bab92       __write_lk                 100bbb92 f   LIBCMT:write.obj
 0001:000bad1d       ___tzset                   100bbd1d f   LIBCMT:tzset.obj
 0001:000bad4b       __tzset                    100bbd4b f   LIBCMT:tzset.obj
 0001:000bafe8       __isindst                  100bbfe8 f   LIBCMT:tzset.obj
 0001:000bb2f5       _gmtime                    100bc2f5 f   LIBCMT:gmtime.obj
 0001:000bb3ff       ___loctotime_t             100bc3ff f   LIBCMT:dtoxtime.obj
 0001:000bb4c1       _setlocale                 100bc4c1 f   LIBCMT:setlocal.obj
 0001:000bb8db       __expandlocale             100bc8db f   LIBCMT:setlocal.obj
 0001:000bb9f3       ___init_dummy              100bc9f3 f   LIBCMT:setlocal.obj
 0001:000bb9f6       __strcats                  100bc9f6 f   LIBCMT:setlocal.obj
 0001:000bba1b       ___lc_strtolc              100bca1b f   LIBCMT:setlocal.obj
 0001:000bbae7       ___lc_lctostr              100bcae7 f   LIBCMT:setlocal.obj
 0001:000bbb3a       ___crtLCMapStringA         100bcb3a f   LIBCMT:a_map.obj
 0001:000bbd89       ___crtGetStringTypeA       100bcd89 f   LIBCMT:a_str.obj
 0001:000bbed2       __mtinit                   100bced2 f   LIBCMT:tidtable.obj
 0001:000bbf26       __mtterm                   100bcf26 f   LIBCMT:tidtable.obj
 0001:000bbf44       __initptd                  100bcf44 f   LIBCMT:tidtable.obj
 0001:000bbf57       __getptd                   100bcf57 f   LIBCMT:tidtable.obj
 0001:000bbfbe       __freeptd                  100bcfbe f   LIBCMT:tidtable.obj
 0001:000bc05e       ___threadid                100bd05e f   LIBCMT:tidtable.obj
 0001:000bc064       ___threadhandle            100bd064 f   LIBCMT:tidtable.obj
 0001:000bc06a       __ioinit                   100bd06a f   LIBCMT:ioinit.obj
 0001:000bc226       __ioterm                   100bd226 f   LIBCMT:ioinit.obj
 0001:000bc27a       __setenvp                  100bd27a f   LIBCMT:stdenvp.obj
 0001:000bc333       __setargv                  100bd333 f   LIBCMT:stdargv.obj
 0001:000bc580       ___crtGetEnvironmentStringsA 100bd580 f   LIBCMT:a_env.obj
 0001:000bc6b2       __FF_MSGBANNER             100bd6b2 f   LIBCMT:crt0msg.obj
 0001:000bc6eb       __NMSG_WRITE               100bd6eb f   LIBCMT:crt0msg.obj
 0001:000bc83e       __GET_RTERRMSG             100bd83e f   LIBCMT:crt0msg.obj
 0001:000bc86f       __ZeroTail                 100bd86f f   LIBCMT:intrncvt.obj
 0001:000bc8b8       __IncMan                   100bd8b8 f   LIBCMT:intrncvt.obj
 0001:000bc90e       __RoundMan                 100bd90e f   LIBCMT:intrncvt.obj
 0001:000bc99a       __CopyMan                  100bd99a f   LIBCMT:intrncvt.obj
 0001:000bc9b5       __FillZeroMan              100bd9b5 f   LIBCMT:intrncvt.obj
 0001:000bc9c1       __IsZeroMan                100bd9c1 f   LIBCMT:intrncvt.obj
 0001:000bc9dc       __ShrMan                   100bd9dc f   LIBCMT:intrncvt.obj
 0001:000bca69       __ld12cvt                  100bda69 f   LIBCMT:intrncvt.obj
 0001:000bcbd5       __ld12tod                  100bdbd5 f   LIBCMT:intrncvt.obj
 0001:000bcbeb       __ld12tof                  100bdbeb f   LIBCMT:intrncvt.obj
 0001:000bcc01       __ld12told                 100bdc01 f   LIBCMT:intrncvt.obj
 0001:000bcc7b       __atodbl                   100bdc7b f   LIBCMT:intrncvt.obj
 0001:000bcca8       __atoldbl                  100bdca8 f   LIBCMT:intrncvt.obj
 0001:000bccd6       __atoflt                   100bdcd6 f   LIBCMT:intrncvt.obj
 0001:000bcd03       ___strgtold12              100bdd03 f   LIBCMT:strgtold.obj
 0001:000bd1d4       ___STRINGTOLD              100be1d4 f   LIBCMT:strgtold.obj
 0001:000bd210       __statusfp                 100be210 f   LIBCMT:ieee87.obj
 0001:000bd223       __clearfp                  100be223 f   LIBCMT:ieee87.obj
 0001:000bd237       __control87                100be237 f   LIBCMT:ieee87.obj
 0001:000bd26c       __controlfp                100be26c f   LIBCMT:ieee87.obj
 0001:000bd282       __fpreset                  100be282 f   LIBCMT:ieee87.obj
 0001:000bd3fd       __tolower                  100be3fd f   LIBCMT:tolower.obj
 0001:000bd405       _tolower                   100be405 f   LIBCMT:tolower.obj
 0001:000bd474       __tolower_lk               100be474 f   LIBCMT:tolower.obj
 0001:000bd53f       __fptostr                  100be53f f   LIBCMT:_fptostr.obj
 0001:000bd5b6       __fltout2                  100be5b6 f   LIBCMT:cfout.obj
 0001:000bd612       ___dtold                   100be612 f   LIBCMT:cfout.obj
 0001:000bd6d0       _memmove                   100be6d0 f   LIBCMT:memmove.obj
 0001:000bda05       __fptrap                   100bea05 f   LIBCMT:crt0fp.obj
 0001:000bda0e       __87except                 100bea0e f   LIBCMT:87except.obj
 0001:000bdade       __dosmaperr                100beade f   LIBCMT:dosmap.obj
 0001:000bdb51       __errno                    100beb51 f   LIBCMT:dosmap.obj
 0001:000bdb5a       ___doserrno                100beb5a f   LIBCMT:dosmap.obj
 0001:000bdb63       __matherr                  100beb63 f   LIBCMT:matherr.obj
 0001:000bdb66       __lseek                    100beb66 f   LIBCMT:lseek.obj
 0001:000bdbcb       __lseek_lk                 100bebcb f   LIBCMT:lseek.obj
 0001:000bdc3e       __getbuf                   100bec3e f   LIBCMT:_getbuf.obj
 0001:000bdc82       __isatty                   100bec82 f   LIBCMT:isatty.obj
 0001:000bdcab       _wctomb                    100becab f   LIBCMT:wctomb.obj
 0001:000bdd04       __wctomb_lk                100bed04 f   LIBCMT:wctomb.obj
 0001:000bdd70       __aulldiv                  100bed70 f   LIBCMT:ulldiv.obj
 0001:000bdde0       __aullrem                  100bede0 f   LIBCMT:ullrem.obj
 0001:000bde55       __frnd                     100bee55 f   LIBCMT:frnd.obj
 0001:000bde67       __copysign                 100bee67 f   LIBCMT:ieeemisc.obj
 0001:000bde88       __chgsign                  100bee88 f   LIBCMT:ieeemisc.obj
 0001:000bdead       __scalb                    100beead f   LIBCMT:ieeemisc.obj
 0001:000bdec3       __logb                     100beec3 f   LIBCMT:ieeemisc.obj
 0001:000bdfaa       __nextafter                100befaa f   LIBCMT:ieeemisc.obj
 0001:000be23f       __finite                   100bf23f f   LIBCMT:ieeemisc.obj
 0001:000be253       __isnan                    100bf253 f   LIBCMT:ieeemisc.obj
 0001:000be281       __fpclass                  100bf281 f   LIBCMT:ieeemisc.obj
 0001:000be313       _mbtowc                    100bf313 f   LIBCMT:mbtowc.obj
 0001:000be370       __mbtowc_lk                100bf370 f   LIBCMT:mbtowc.obj
 0001:000be440       __allshl                   100bf440 f   LIBCMT:llshl.obj
 0001:000be45f       __filbuf                   100bf45f f   LIBCMT:_filbuf.obj
 0001:000be53b       _ungetc                    100bf53b f   LIBCMT:ungetc.obj
 0001:000be564       __ungetc_lk                100bf564 f   LIBCMT:ungetc.obj
 0001:000be5d2       __fcloseall                100bf5d2 f   LIBCMT:closeall.obj
 0001:000be653       __alloc_osfhnd             100bf653 f   LIBCMT:osfinfo.obj
 0001:000be776       __set_osfhnd               100bf776 f   LIBCMT:osfinfo.obj
 0001:000be7f2       __free_osfhnd              100bf7f2 f   LIBCMT:osfinfo.obj
 0001:000be871       __get_osfhandle            100bf871 f   LIBCMT:osfinfo.obj
 0001:000be8b3       __open_osfhandle           100bf8b3 f   LIBCMT:osfinfo.obj
 0001:000be95a       __lock_fhandle             100bf95a f   LIBCMT:osfinfo.obj
 0001:000be9b9       __unlock_fhandle           100bf9b9 f   LIBCMT:osfinfo.obj
 0001:000be9db       __commit                   100bf9db f   LIBCMT:commit.obj
 0001:000bea6e       __open                     100bfa6e f   LIBCMT:open.obj
 0001:000bea85       __sopen                    100bfa85 f   LIBCMT:open.obj
 0001:000bed54       _getenv                    100bfd54 f   LIBCMT:getenv.obj
 0001:000bed75       __getenv_lk                100bfd75 f   LIBCMT:getenv.obj
 0001:000bedf2       ___init_time               100bfdf2 f   LIBCMT:inittime.obj
 0001:000bf361       ___init_numeric            100c0361 f   LIBCMT:initnum.obj
 0001:000bf56d       ___init_monetary           100c056d f   LIBCMT:initmon.obj
 0001:000bf7df       ___init_ctype              100c07df f   LIBCMT:initctyp.obj
 0001:000bfa24       ___init_collate            100c0a24 f   LIBCMT:initcoll.obj
 0001:000bfa30       _strcspn                   100c0a30 f   LIBCMT:strcspn.obj
 0001:000bfa70       _strpbrk                   100c0a70 f   LIBCMT:strpbrk.obj
 0001:000bfaaa       ___get_qualified_locale    100c0aaa f   LIBCMT:getqloc.obj
 0001:000c0354       __global_unwind2           100c1354 f   LIBCMT:exsup.obj
 0001:000c0396       __local_unwind2            100c1396 f   LIBCMT:exsup.obj
 0001:000c03ee       __NLG_Return2              100c13ee f   LIBCMT:exsup.obj
 0001:000c03fe       __abnormal_termination     100c13fe f   LIBCMT:exsup.obj
 0001:000c0421       __NLG_Notify1              100c1421 f   LIBCMT:exsup.obj
 0001:000c042a       __NLG_Notify               100c142a f   LIBCMT:exsup.obj
 0001:000c043d       __NLG_Dispatch             100c143d f   LIBCMT:exsup.obj
 0001:000c044c       __except_handler3          100c144c f   LIBCMT:exsup3.obj
 0001:000c0509       __seh_longjmp_unwind@4     100c1509 f   LIBCMT:exsup3.obj
 0001:000c0524       __XcptFilter               100c1524 f   LIBCMT:winxfltr.obj
 0001:000c069c       __setmbcp                  100c169c f   LIBCMT:mbctype.obj
 0001:000c0a74       __getmbcp                  100c1a74 f   LIBCMT:mbctype.obj
 0001:000c0a84       ___initmbctable            100c1a84 f   LIBCMT:mbctype.obj
 0001:000c0aa0       ___crtMessageBoxA          100c1aa0 f   LIBCMT:crtmbox.obj
 0001:000c0b29       ___addl                    100c1b29 f   LIBCMT:mantold.obj
 0001:000c0b4a       ___add_12                  100c1b4a f   LIBCMT:mantold.obj
 0001:000c0ba8       ___shl_12                  100c1ba8 f   LIBCMT:mantold.obj
 0001:000c0bd6       ___shr_12                  100c1bd6 f   LIBCMT:mantold.obj
 0001:000c0c03       ___mtold12                 100c1c03 f   LIBCMT:mantold.obj
 0001:000c0cca       ___ld12mul                 100c1cca f   LIBCMT:tenpow.obj
 0001:000c0eea       ___multtenpow12            100c1eea f   LIBCMT:tenpow.obj
 0001:000c0f66       _signal                    100c1f66 f   LIBCMT:winsig.obj
 0001:000c114a       _raise                     100c214a f   LIBCMT:winsig.obj
 0001:000c1309       ___fpecode                 100c2309 f   LIBCMT:winsig.obj
 0001:000c1312       ___pxcptinfoptrs           100c2312 f   LIBCMT:winsig.obj
 0001:000c131b       _$I10_OUTPUT               100c231b f   LIBCMT:x10fout.obj
 0001:000c15ae       _ldexp                     100c25ae f   LIBCMT:ldexp.obj
 0001:000c1794       __read                     100c2794 f   LIBCMT:read.obj
 0001:000c17f9       __read_lk                  100c27f9 f   LIBCMT:read.obj
 0001:000c19d2       __chsize                   100c29d2 f   LIBCMT:chsize.obj
 0001:000c1a2b       __chsize_lk                100c2a2b f   LIBCMT:chsize.obj
 0001:000c1b50       __mbsnbicoll               100c2b50 f   LIBCMT:mbsnbico.obj
 0001:000c1b8f       ___wtomb_environ           100c2b8f f   LIBCMT:wtombenv.obj
 0001:000c1bfd       __Getdays                  100c2bfd f   LIBCMT:strftime.obj
 0001:000c1c8c       __Getmonths                100c2c8c f   LIBCMT:strftime.obj
 0001:000c1d21       __Gettnames                100c2d21 f   LIBCMT:strftime.obj
 0001:000c1f53       _strftime                  100c2f53 f   LIBCMT:strftime.obj
 0001:000c1f6e       __Strftime                 100c2f6e f   LIBCMT:strftime.obj
 0001:000c2805       ___getlocaleinfo           100c3805 f   LIBCMT:inithelp.obj
 0001:000c293d       _localeconv                100c393d f   LIBCMT:lconv.obj
 0001:000c2943       ___crtGetStringTypeW       100c3943 f   LIBCMT:w_str.obj
 0001:000c2b08       __itoa                     100c3b08 f   LIBCMT:xtoa.obj
 0001:000c2b91       __ltoa                     100c3b91 f   LIBCMT:xtoa.obj
 0001:000c2bbb       __ultoa                    100c3bbb f   LIBCMT:xtoa.obj
 0001:000c2bd6       __i64toa                   100c3bd6 f   LIBCMT:xtoa.obj
 0001:000c2c8d       __ui64toa                  100c3c8d f   LIBCMT:xtoa.obj
 0001:000c2cb0       __strcmpi                  100c3cb0 f   LIBCMT:stricmp.obj
 0001:000c2cb0       __stricmp                  100c3cb0 f   LIBCMT:stricmp.obj
 0001:000c2cb0       _stricmp                   100c3cb0 f   LIBCMT:stricmp.obj
 0001:000c2d80       _strnicmp                  100c3d80 f   LIBCMT:strnicmp.obj
 0001:000c2d80       __strnicmp                 100c3d80 f   LIBCMT:strnicmp.obj
 0001:000c2e81       __setmode                  100c3e81 f   LIBCMT:setmode.obj
 0001:000c2eda       __setmode_lk               100c3eda f   LIBCMT:setmode.obj
 0001:000c2f3b       ___crtCompareStringA       100c3f3b f   LIBCMT:a_cmp.obj
 0001:000c31e3       ___crtsetenv               100c41e3 f   LIBCMT:setenv.obj
 0001:000c3429       ___crtGetLocaleInfoW       100c4429 f   LIBCMT:w_loc.obj
 0001:000c353c       ___crtGetLocaleInfoA       100c453c f   LIBCMT:a_loc.obj
 0001:000c365a       __mbschr                   100c465a f   LIBCMT:mbschr.obj
 0001:000c36f1       __strdup                   100c46f1 f   LIBCMT:strdup.obj
 0001:000c3720       _HeapFree@12               100c4720 f   kernel32:KERNEL32.dll
 0001:000c3726       _HeapAlloc@12              100c4726 f   kernel32:KERNEL32.dll
 0001:000c372c       _GetTimeZoneInformation@4  100c472c f   kernel32:KERNEL32.dll
 0001:000c3732       _GetSystemTime@4           100c4732 f   kernel32:KERNEL32.dll
 0001:000c3738       _GetLocalTime@4            100c4738 f   kernel32:KERNEL32.dll
 0001:000c373e       _InterlockedDecrement@4    100c473e f   kernel32:KERNEL32.dll
 0001:000c3744       _InterlockedIncrement@4    100c4744 f   kernel32:KERNEL32.dll
 0001:000c374a       _GetCommandLineA@0         100c474a f   kernel32:KERNEL32.dll
 0001:000c3750       _GetVersion@0              100c4750 f   kernel32:KERNEL32.dll
 0001:000c3756       _GetProcAddress@8          100c4756 f   kernel32:KERNEL32.dll
 0001:000c375c       _GetModuleHandleA@4        100c475c f   kernel32:KERNEL32.dll
 0001:000c3762       _RaiseException@16         100c4762 f   kernel32:KERNEL32.dll
 0001:000c3768       _ExitProcess@4             100c4768 f   kernel32:KERNEL32.dll
 0001:000c376e       _TerminateProcess@8        100c476e f   kernel32:KERNEL32.dll
 0001:000c3774       _GetCurrentProcess@0       100c4774 f   kernel32:KERNEL32.dll
 0001:000c377a       _HeapReAlloc@16            100c477a f   kernel32:KERNEL32.dll
 0001:000c3780       _HeapSize@12               100c4780 f   kernel32:KERNEL32.dll
 0001:000c3786       _HeapDestroy@4             100c4786 f   kernel32:KERNEL32.dll
 0001:000c378c       _HeapCreate@12             100c478c f   kernel32:KERNEL32.dll
 0001:000c3792       _VirtualFree@12            100c4792 f   kernel32:KERNEL32.dll
 0001:000c3798       _InitializeCriticalSection@4 100c4798 f   kernel32:KERNEL32.dll
 0001:000c379e       _DeleteCriticalSection@4   100c479e f   kernel32:KERNEL32.dll
 0001:000c37a4       _EnterCriticalSection@4    100c47a4 f   kernel32:KERNEL32.dll
 0001:000c37aa       _LeaveCriticalSection@4    100c47aa f   kernel32:KERNEL32.dll
 0001:000c37b0       _FatalAppExitA@8           100c47b0 f   kernel32:KERNEL32.dll
 0001:000c37b6       _VirtualAlloc@16           100c47b6 f   kernel32:KERNEL32.dll
 0001:000c37bc       _IsBadWritePtr@8           100c47bc f   kernel32:KERNEL32.dll
 0001:000c37c2       _GetLastError@0            100c47c2 f   kernel32:KERNEL32.dll
 0001:000c37c8       _CloseHandle@4             100c47c8 f   kernel32:KERNEL32.dll
 0001:000c37ce       _WriteFile@20              100c47ce f   kernel32:KERNEL32.dll
 0001:000c37d4       _WideCharToMultiByte@32    100c47d4 f   kernel32:KERNEL32.dll
 0001:000c37da       _Sleep@4                   100c47da f   kernel32:KERNEL32.dll
 0001:000c37e0       _MultiByteToWideChar@24    100c47e0 f   kernel32:KERNEL32.dll
 0001:000c37e6       _LCMapStringA@24           100c47e6 f   kernel32:KERNEL32.dll
 0001:000c37ec       _LCMapStringW@24           100c47ec f   kernel32:KERNEL32.dll
 0001:000c37f2       _GetStringTypeA@20         100c47f2 f   kernel32:KERNEL32.dll
 0001:000c37f8       _GetStringTypeW@16         100c47f8 f   kernel32:KERNEL32.dll
 0001:000c37fe       _GetCurrentThreadId@0      100c47fe f   kernel32:KERNEL32.dll
 0001:000c3804       _TlsSetValue@8             100c4804 f   kernel32:KERNEL32.dll
 0001:000c380a       _TlsAlloc@0                100c480a f   kernel32:KERNEL32.dll
 0001:000c3810       _TlsFree@4                 100c4810 f   kernel32:KERNEL32.dll
 0001:000c3816       _SetLastError@4            100c4816 f   kernel32:KERNEL32.dll
 0001:000c381c       _TlsGetValue@4             100c481c f   kernel32:KERNEL32.dll
 0001:000c3822       _GetCurrentThread@0        100c4822 f   kernel32:KERNEL32.dll
 0001:000c3828       _SetHandleCount@4          100c4828 f   kernel32:KERNEL32.dll
 0001:000c382e       _GetStdHandle@4            100c482e f   kernel32:KERNEL32.dll
 0001:000c3834       _GetFileType@4             100c4834 f   kernel32:KERNEL32.dll
 0001:000c383a       _GetStartupInfoA@4         100c483a f   kernel32:KERNEL32.dll
 0001:000c3840       _GetModuleFileNameA@12     100c4840 f   kernel32:KERNEL32.dll
 0001:000c3846       _FreeEnvironmentStringsA@4 100c4846 f   kernel32:KERNEL32.dll
 0001:000c384c       _FreeEnvironmentStringsW@4 100c484c f   kernel32:KERNEL32.dll
 0001:000c3852       _GetEnvironmentStrings@0   100c4852 f   kernel32:KERNEL32.dll
 0001:000c3858       _GetEnvironmentStringsW@0  100c4858 f   kernel32:KERNEL32.dll
 0001:000c385e       _SetFilePointer@16         100c485e f   kernel32:KERNEL32.dll
 0001:000c3864       _SetStdHandle@8            100c4864 f   kernel32:KERNEL32.dll
 0001:000c386a       _FlushFileBuffers@4        100c486a f   kernel32:KERNEL32.dll
 0001:000c3870       _CreateFileA@28            100c4870 f   kernel32:KERNEL32.dll
 0001:000c3876       _GetCPInfo@8               100c4876 f   kernel32:KERNEL32.dll
 0001:000c387c       _IsValidLocale@8           100c487c f   kernel32:KERNEL32.dll
 0001:000c3882       _IsValidCodePage@4         100c4882 f   kernel32:KERNEL32.dll
 0001:000c3888       _GetLocaleInfoA@16         100c4888 f   kernel32:KERNEL32.dll
 0001:000c388e       _EnumSystemLocalesA@8      100c488e f   kernel32:KERNEL32.dll
 0001:000c3894       _GetUserDefaultLCID@0      100c4894 f   kernel32:KERNEL32.dll
 0001:000c389a       _GetVersionExA@4           100c489a f   kernel32:KERNEL32.dll
 0001:000c38a0       _RtlUnwind@16              100c48a0 f   kernel32:KERNEL32.dll
 0001:000c38a6       _UnhandledExceptionFilter@4 100c48a6 f   kernel32:KERNEL32.dll
 0001:000c38ac       _GetACP@0                  100c48ac f   kernel32:KERNEL32.dll
 0001:000c38b2       _GetOEMCP@0                100c48b2 f   kernel32:KERNEL32.dll
 0001:000c38b8       _LoadLibraryA@4            100c48b8 f   kernel32:KERNEL32.dll
 0001:000c38be       _SetConsoleCtrlHandler@8   100c48be f   kernel32:KERNEL32.dll
 0001:000c38c4       _ReadFile@20               100c48c4 f   kernel32:KERNEL32.dll
 0001:000c38ca       _SetEndOfFile@4            100c48ca f   kernel32:KERNEL32.dll
 0001:000c38d0       _CompareStringA@24         100c48d0 f   kernel32:KERNEL32.dll
 0001:000c38d6       _CompareStringW@24         100c48d6 f   kernel32:KERNEL32.dll
 0001:000c38dc       _SetEnvironmentVariableA@8 100c48dc f   kernel32:KERNEL32.dll
 0001:000c38e2       _GetLocaleInfoW@16         100c48e2 f   kernel32:KERNEL32.dll
 0002:00000000       __imp__CreateDirectoryA@8  100c5000     kernel32:KERNEL32.dll
 0002:00000004       __imp__HeapFree@12         100c5004     kernel32:KERNEL32.dll
 0002:00000008       __imp__HeapAlloc@12        100c5008     kernel32:KERNEL32.dll
 0002:0000000c       __imp__GetTimeZoneInformation@4 100c500c     kernel32:KERNEL32.dll
 0002:00000010       __imp__GetSystemTime@4     100c5010     kernel32:KERNEL32.dll
 0002:00000014       __imp__GetLocalTime@4      100c5014     kernel32:KERNEL32.dll
 0002:00000018       __imp__InterlockedDecrement@4 100c5018     kernel32:KERNEL32.dll
 0002:0000001c       __imp__InterlockedIncrement@4 100c501c     kernel32:KERNEL32.dll
 0002:00000020       __imp__GetCommandLineA@0   100c5020     kernel32:KERNEL32.dll
 0002:00000024       __imp__GetVersion@0        100c5024     kernel32:KERNEL32.dll
 0002:00000028       __imp__GetProcAddress@8    100c5028     kernel32:KERNEL32.dll
 0002:0000002c       __imp__GetModuleHandleA@4  100c502c     kernel32:KERNEL32.dll
 0002:00000030       __imp__RaiseException@16   100c5030     kernel32:KERNEL32.dll
 0002:00000034       __imp__ExitProcess@4       100c5034     kernel32:KERNEL32.dll
 0002:00000038       __imp__TerminateProcess@8  100c5038     kernel32:KERNEL32.dll
 0002:0000003c       __imp__GetCurrentProcess@0 100c503c     kernel32:KERNEL32.dll
 0002:00000040       __imp__HeapReAlloc@16      100c5040     kernel32:KERNEL32.dll
 0002:00000044       __imp__HeapSize@12         100c5044     kernel32:KERNEL32.dll
 0002:00000048       __imp__HeapDestroy@4       100c5048     kernel32:KERNEL32.dll
 0002:0000004c       __imp__HeapCreate@12       100c504c     kernel32:KERNEL32.dll
 0002:00000050       __imp__VirtualFree@12      100c5050     kernel32:KERNEL32.dll
 0002:00000054       __imp__InitializeCriticalSection@4 100c5054     kernel32:KERNEL32.dll
 0002:00000058       __imp__DeleteCriticalSection@4 100c5058     kernel32:KERNEL32.dll
 0002:0000005c       __imp__EnterCriticalSection@4 100c505c     kernel32:KERNEL32.dll
 0002:00000060       __imp__LeaveCriticalSection@4 100c5060     kernel32:KERNEL32.dll
 0002:00000064       __imp__FatalAppExitA@8     100c5064     kernel32:KERNEL32.dll
 0002:00000068       __imp__VirtualAlloc@16     100c5068     kernel32:KERNEL32.dll
 0002:0000006c       __imp__IsBadWritePtr@8     100c506c     kernel32:KERNEL32.dll
 0002:00000070       __imp__GetLastError@0      100c5070     kernel32:KERNEL32.dll
 0002:00000074       __imp__CloseHandle@4       100c5074     kernel32:KERNEL32.dll
 0002:00000078       __imp__WriteFile@20        100c5078     kernel32:KERNEL32.dll
 0002:0000007c       __imp__WideCharToMultiByte@32 100c507c     kernel32:KERNEL32.dll
 0002:00000080       __imp__Sleep@4             100c5080     kernel32:KERNEL32.dll
 0002:00000084       __imp__MultiByteToWideChar@24 100c5084     kernel32:KERNEL32.dll
 0002:00000088       __imp__LCMapStringA@24     100c5088     kernel32:KERNEL32.dll
 0002:0000008c       __imp__LCMapStringW@24     100c508c     kernel32:KERNEL32.dll
 0002:00000090       __imp__GetStringTypeA@20   100c5090     kernel32:KERNEL32.dll
 0002:00000094       __imp__GetStringTypeW@16   100c5094     kernel32:KERNEL32.dll
 0002:00000098       __imp__GetCurrentThreadId@0 100c5098     kernel32:KERNEL32.dll
 0002:0000009c       __imp__TlsSetValue@8       100c509c     kernel32:KERNEL32.dll
 0002:000000a0       __imp__TlsAlloc@0          100c50a0     kernel32:KERNEL32.dll
 0002:000000a4       __imp__TlsFree@4           100c50a4     kernel32:KERNEL32.dll
 0002:000000a8       __imp__SetLastError@4      100c50a8     kernel32:KERNEL32.dll
 0002:000000ac       __imp__TlsGetValue@4       100c50ac     kernel32:KERNEL32.dll
 0002:000000b0       __imp__GetCurrentThread@0  100c50b0     kernel32:KERNEL32.dll
 0002:000000b4       __imp__SetHandleCount@4    100c50b4     kernel32:KERNEL32.dll
 0002:000000b8       __imp__GetStdHandle@4      100c50b8     kernel32:KERNEL32.dll
 0002:000000bc       __imp__GetFileType@4       100c50bc     kernel32:KERNEL32.dll
 0002:000000c0       __imp__GetStartupInfoA@4   100c50c0     kernel32:KERNEL32.dll
 0002:000000c4       __imp__GetModuleFileNameA@12 100c50c4     kernel32:KERNEL32.dll
 0002:000000c8       __imp__FreeEnvironmentStringsA@4 100c50c8     kernel32:KERNEL32.dll
 0002:000000cc       __imp__FreeEnvironmentStringsW@4 100c50cc     kernel32:KERNEL32.dll
 0002:000000d0       __imp__GetEnvironmentStrings@0 100c50d0     kernel32:KERNEL32.dll
 0002:000000d4       __imp__GetEnvironmentStringsW@0 100c50d4     kernel32:KERNEL32.dll
 0002:000000d8       __imp__SetFilePointer@16   100c50d8     kernel32:KERNEL32.dll
 0002:000000dc       __imp__SetStdHandle@8      100c50dc     kernel32:KERNEL32.dll
 0002:000000e0       __imp__FlushFileBuffers@4  100c50e0     kernel32:KERNEL32.dll
 0002:000000e4       __imp__CreateFileA@28      100c50e4     kernel32:KERNEL32.dll
 0002:000000e8       __imp__GetCPInfo@8         100c50e8     kernel32:KERNEL32.dll
 0002:000000ec       __imp__IsValidLocale@8     100c50ec     kernel32:KERNEL32.dll
 0002:000000f0       __imp__IsValidCodePage@4   100c50f0     kernel32:KERNEL32.dll
 0002:000000f4       __imp__GetLocaleInfoA@16   100c50f4     kernel32:KERNEL32.dll
 0002:000000f8       __imp__EnumSystemLocalesA@8 100c50f8     kernel32:KERNEL32.dll
 0002:000000fc       __imp__GetUserDefaultLCID@0 100c50fc     kernel32:KERNEL32.dll
 0002:00000100       __imp__GetVersionExA@4     100c5100     kernel32:KERNEL32.dll
 0002:00000104       __imp__RtlUnwind@16        100c5104     kernel32:KERNEL32.dll
 0002:00000108       __imp__UnhandledExceptionFilter@4 100c5108     kernel32:KERNEL32.dll
 0002:0000010c       __imp__GetACP@0            100c510c     kernel32:KERNEL32.dll
 0002:00000110       __imp__GetOEMCP@0          100c5110     kernel32:KERNEL32.dll
 0002:00000114       __imp__LoadLibraryA@4      100c5114     kernel32:KERNEL32.dll
 0002:00000118       __imp__SetConsoleCtrlHandler@8 100c5118     kernel32:KERNEL32.dll
 0002:0000011c       __imp__ReadFile@20         100c511c     kernel32:KERNEL32.dll
 0002:00000120       __imp__SetEndOfFile@4      100c5120     kernel32:KERNEL32.dll
 0002:00000124       __imp__CompareStringA@24   100c5124     kernel32:KERNEL32.dll
 0002:00000128       __imp__CompareStringW@24   100c5128     kernel32:KERNEL32.dll
 0002:0000012c       __imp__SetEnvironmentVariableA@8 100c512c     kernel32:KERNEL32.dll
 0002:00000130       __imp__GetLocaleInfoW@16   100c5130     kernel32:KERNEL32.dll
 0002:00000134       \177KERNEL32_NULL_THUNK_DATA 100c5134     kernel32:KERNEL32.dll
 0002:00000160       __real@8@3ffcccccccccccccd000 100c5160     aflock.obj
 0002:00000168       __real@8@3ffbccccccccccccd000 100c5168     aflock.obj
 0002:00000170       __real@4@4002f000000000000000 100c5170     aflock.obj
 0002:00000174       __real@4@4001a000000000000000 100c5174     aflock.obj
 0002:00000178       __real@8@3ffff333333333333000 100c5178     aflock.obj
 0002:00000180       __real@8@3ffd8000000000000000 100c5180     aflock.obj
 0002:00000188       __real@4@00000000000000000000 100c5188     aflock.obj
 0002:00000190       __real@8@3ffeccccccccccccd000 100c5190     aflock.obj
 0002:00000198       __real@4@4002a000000000000000 100c5198     aflock.obj
 0002:0000019c       __real@4@4005c800000000000000 100c519c     aflock.obj
 0002:000001a0       __real@4@4001c000000000000000 100c51a0     aflock.obj
 0002:000001a8       __real@8@3fff8000000000000000 100c51a8     aflock.obj
 0002:000001b0       __real@4@3fff8000000000000000 100c51b0     aflock.obj
 0002:000001b4       __real@4@4005fa00000000000000 100c51b4     aflock.obj
 0002:000001b8       __real@4@4006fa00000000000000 100c51b8     aflock.obj
 0002:000001c0       __real@8@3ffe8000000000000000 100c51c0     aflock.obj
 0002:000001c8       __real@8@3fffc000000000000000 100c51c8     aflock.obj
 0002:000001d0       __real@4@40078000000000000000 100c51d0     aflock.obj
 0002:000001d4       ??_7CFlockingFlyer@@6B@    100c51d4     aflock.obj
 0002:000003c8       ??_7CFlockingFlyerFlock@@6B@ 100c53c8     aflock.obj
 0002:000005bc       ??_7CBaseMonster@@6B@      100c55bc     aflock.obj
 0002:000007b0       ??_7CBaseToggle@@6B@       100c57b0     aflock.obj
 0002:00000898       ??_7CBaseAnimating@@6B@    100c5898     aflock.obj
 0002:00000980       ??_7CBaseDelay@@6B@        100c5980     aflock.obj
 0002:00000a64       ??_7CBaseEntity@@6B@       100c5a64     aflock.obj
 0002:00000b48       __real@4@4008c400000000000000 100c5b48     aflock.obj
 0002:00000b4c       __real@4@4003a000000000000000 100c5b4c     agrunt.obj
 0002:00000b50       __real@4@4000c000000000000000 100c5b50     agrunt.obj
 0002:00000b58       __real@8@3ffe9999999999999800 100c5b58     agrunt.obj
 0002:00000b60       __real@4@4007b400000000000000 100c5b60     agrunt.obj
 0002:00000b64       __real@4@4006b400000000000000 100c5b64     agrunt.obj
 0002:00000b68       __real@4@40098000000000000000 100c5b68     agrunt.obj
 0002:00000b6c       ??_7CAGrunt@@6B@           100c5b6c     agrunt.obj
 0002:00000d60       ??_7CSquadMonster@@6B@     100c5d60     agrunt.obj
 0002:00000f54       __real@4@4003f000000000000000 100c5f54     airtank.obj
 0002:00000f58       __real@4@4002c000000000000000 100c5f58     airtank.obj
 0002:00000f5c       ??_7CAirtank@@6B@          100c5f5c     airtank.obj
 0002:00001154       ??_7CGrenade@@6B@          100c6154     airtank.obj
 0002:00001350       __real@8@40078000000000000000 100c6350     animating.obj
 0002:00001358       __real@8@3ff583126e978d4fe000 100c6358     animating.obj
 0002:00001360       __real@8@00000000000000000000 100c6360     animating.obj
 0002:00001368       __real@8@3ff98efa351294e9c800 100c6368     animating.obj
 0002:00001370       __real@8@3ff78080808080808000 100c6370     animation.obj
 0002:00001378       __real@4@4006ff00000000000000 100c6378     animation.obj
 0002:00001380       __real@8@c007b400000000000000 100c6380     animation.obj
 0002:00001388       __real@8@4007b400000000000000 100c6388     animation.obj
 0002:00001390       __real@8@4006b400000000000000 100c6390     animation.obj
 0002:00001398       __real@8@40008000000000000000 100c6398     animation.obj
 0002:000013a0       __real@8@4007b380000000000000 100c63a0     animation.obj
 0002:000013a8       __real@8@4002f000000000000000 100c63a8     apache.obj
 0002:000013b0       __real@8@40018000000000000000 100c63b0     apache.obj
 0002:000013b8       __real@4@40058000000000000000 100c63b8     apache.obj
 0002:000013bc       __real@4@4009fa00000000000000 100c63bc     apache.obj
 0002:000013c0       __real@4@40088000000000000000 100c63c0     apache.obj
 0002:000013c4       __real@4@4006c800000000000000 100c63c4     apache.obj
 0002:000013c8       __real@8@3ffef70a3d70a3d70800 100c63c8     apache.obj
 0002:000013d0       __real@4@4004f000000000000000 100c63d0     apache.obj
 0002:000013d4       __real@4@c005c800000000000000 100c63d4     apache.obj
 0002:000013d8       __real@8@4002a000000000000000 100c63d8     apache.obj
 0002:000013e0       __real@4@4007c800000000000000 100c63e0     apache.obj
 0002:000013e4       __real@4@40008000000000000000 100c63e4     apache.obj
 0002:000013e8       __real@4@4005b400000000000000 100c63e8     apache.obj
 0002:000013ec       __real@4@40068000000000000000 100c63ec     apache.obj
 0002:000013f0       __real@4@4008c800000000000000 100c63f0     apache.obj
 0002:000013f4       __real@4@4004c800000000000000 100c63f4     apache.obj
 0002:000013f8       __real@8@4005c800000000000000 100c63f8     apache.obj
 0002:00001400       __real@8@4004c800000000000000 100c6400     apache.obj
 0002:00001408       __real@4@c004c800000000000000 100c6408     apache.obj
 0002:00001410       __real@8@4002c000000000000000 100c6410     apache.obj
 0002:00001418       __real@4@c004a000000000000000 100c6418     apache.obj
 0002:0000141c       __real@4@4005a000000000000000 100c641c     apache.obj
 0002:00001420       __real@8@3ffaccccccccccccd000 100c6420     apache.obj
 0002:00001428       __real@4@40018000000000000000 100c6428     apache.obj
 0002:0000142c       __real@4@c002f000000000000000 100c642c     apache.obj
 0002:00001430       __real@4@c003f000000000000000 100c6430     apache.obj
 0002:00001438       __real@8@40049999999999999800 100c6438     apache.obj
 0002:00001440       __real@8@3ffefae147ae147ae000 100c6440     apache.obj
 0002:00001448       __real@4@c004f000000000000000 100c6448     apache.obj
 0002:0000144c       __real@4@40028000000000000000 100c644c     apache.obj
 0002:00001450       __real@4@c006b400000000000000 100c6450     apache.obj
 0002:00001454       __real@4@40048000000000000000 100c6454     apache.obj
 0002:00001458       __real@8@4000c000000000000000 100c6458     apache.obj
 0002:00001460       __real@8@4001a000000000000000 100c6460     apache.obj
 0002:00001468       __real@4@4009e100000000000000 100c6468     apache.obj
 0002:0000146c       __real@4@400b8000000000000000 100c646c     apache.obj
 0002:00001470       __real@4@c00b8000000000000000 100c6470     apache.obj
 0002:00001474       ??_7CApache@@6B@           100c6474     apache.obj
 0002:00001668       ??_7CApacheHVR@@6B@        100c6668     apache.obj
 0002:00001860       __real@4@bfff8000000000000000 100c6860     barnacle.obj
 0002:00001868       __real@8@4004b000000000000000 100c6868     barnacle.obj
 0002:00001870       __real@8@4001c000000000000000 100c6870     barnacle.obj
 0002:00001878       __real@8@4000c90fdaa22168c000 100c6878     barnacle.obj
 0002:00001880       ??_7CBarnacle@@6B@         100c6880     barnacle.obj
 0002:00001a78       __real@8@3ffef5c28f5c28f5c000 100c6a78     barney.obj
 0002:00001a80       ??_7CBarney@@6B@           100c6a80     barney.obj
 0002:00001c80       ??_7CDeadBarney@@6B@       100c6c80     barney.obj
 0002:00001e74       ??_7CTalkMonster@@6B@      100c6e74     barney.obj
 0002:00002074       __real@4@40069600000000000000 100c7074     bigmomma.obj
 0002:00002078       __real@4@4006aa00000000000000 100c7078     bigmomma.obj
 0002:00002080       __real@8@3ffeb333333333333000 100c7080     bigmomma.obj
 0002:00002088       __real@4@4012f424000000000000 100c7088     bigmomma.obj
 0002:00002090       __real@8@3ffdccccccccccccd000 100c7090     bigmomma.obj
 0002:00002098       ??_7CInfoBM@@6B@           100c7098     bigmomma.obj
 0002:0000217c       ??_7CBMortar@@6B@          100c717c     bigmomma.obj
 0002:00002260       ??_7CBigMomma@@6B@         100c7260     bigmomma.obj
 0002:00002454       ??_7CPointEntity@@6B@      100c7454     bigmomma.obj
 0002:00002538       ??_7CBloater@@6B@          100c7538     bloater.obj
 0002:00002730       __real@8@40038000000000000000 100c7730     bmodels.obj
 0002:00002738       __real@4@40058c00000000000000 100c7738     bmodels.obj
 0002:00002740       __real@8@4003f000000000000000 100c7740     bmodels.obj
 0002:00002748       __real@8@3ff8a3d70a3d70a3d800 100c7748     bmodels.obj
 0002:00002750       ??_7CFuncWall@@6B@         100c7750     bmodels.obj
 0002:00002834       ??_7CFuncWallToggle@@6B@   100c7834     bmodels.obj
 0002:00002918       ??_7CFuncConveyor@@6B@     100c7918     bmodels.obj
 0002:000029fc       ??_7CFuncIllusionary@@6B@  100c79fc     bmodels.obj
 0002:00002ae4       ??_7CFuncMonsterClip@@6B@  100c7ae4     bmodels.obj
 0002:00002bc8       ??_7CFuncRotating@@6B@     100c7bc8     bmodels.obj
 0002:00002cac       ??_7CPendulum@@6B@         100c7cac     bmodels.obj
 0002:00002d90       __real@4@4005aa00000000000000 100c7d90     bullsquid.obj
 0002:00002d98       __real@8@3ffea000000000000000 100c7d98     bullsquid.obj
 0002:00002da0       ??_7CSquidSpit@@6B@        100c7da0     bullsquid.obj
 0002:00002e84       ??_7CBullsquid@@6B@        100c7e84     bullsquid.obj
 0002:00003078       ??_7CEnvGlobal@@6B@        100c8078     buttons.obj
 0002:0000315c       ??_7CMultiSource@@6B@      100c815c     buttons.obj
 0002:00003240       ??_7CBaseButton@@6B@       100c8240     buttons.obj
 0002:00003328       ??_7CRotButton@@6B@        100c8328     buttons.obj
 0002:00003410       ??_7CMomentaryRotButton@@6B@ 100c8410     buttons.obj
 0002:000034f8       ??_7CEnvSpark@@6B@         100c84f8     buttons.obj
 0002:000035dc       ??_7CButtonTarget@@6B@     100c85dc     buttons.obj
 0002:000036c0       __real@8@4008fa00000000000000 100c86c0     cbase.obj
 0002:000036c8       __real@8@400f9000000000000000 100c86c8     cbase.obj
 0002:000036d0       __real@4@c009fa00000000000000 100c86d0     cbase.obj
 0002:000036d8       __real@8@bff583126e978d4fe000 100c86d8     client.obj
 0002:000036e0       ??_7CBasePlayer@@6B@       100c86e0     client.obj
 0002:000038f0       __real@8@4009bb80000000000000 100c88f0     combat.obj
 0002:000038f8       __real@4@c006c800000000000000 100c88f8     combat.obj
 0002:00003900       __real@8@bffd9999999999999800 100c8900     combat.obj
 0002:00003908       __real@8@3ffd9999999999999800 100c8908     combat.obj
 0002:00003910       __real@4@c005c600000000000000 100c8910     combat.obj
 0002:00003914       __real@4@4001e000000000000000 100c8914     combat.obj
 0002:00003918       __real@8@4007e100000000000000 100c8918     combat.obj
 0002:00003920       __real@8@4000a000000000000000 100c8920     combat.obj
 0002:00003928       __real@8@40058000000000000000 100c8928     combat.obj
 0002:00003930       __real@4@4003c800000000000000 100c8930     combat.obj
 0002:00003934       ??_7CGib@@6B@              100c8934     combat.obj
 0002:00003a18       __real@8@40048000000000000000 100c8a18     controller.obj
 0002:00003a20       __real@4@400a8000000000000000 100c8a20     controller.obj
 0002:00003a24       __real@4@4004a000000000000000 100c8a24     controller.obj
 0002:00003a28       __real@4@40038000000000000000 100c8a28     controller.obj
 0002:00003a2c       ??_7CController@@6B@       100c8a2c     controller.obj
 0002:00003c20       ??_7CControllerHeadBall@@6B@ 100c8c20     controller.obj
 0002:00003e14       ??_7CControllerZapBall@@6B@ 100c8e14     controller.obj
 0002:00004008       __real@8@3ffec000000000000000 100c9008     crossbow.obj
 0002:00004010       __real@8@4000aaaaaaaaaaaaa800 100c9010     crossbow.obj
 0002:00004018       ??_7CCrossbowBolt@@6B@     100c9018     crossbow.obj
 0002:000040fc       ??_7CCrossbow@@6B@         100c90fc     crossbow.obj
 0002:00004264       ??_7CCrossbowAmmo@@6B@     100c9264     crossbow.obj
 0002:0000434c       ??_7CBasePlayerWeapon@@6B@ 100c934c     crossbow.obj
 0002:000044b4       ??_7CBasePlayerAmmo@@6B@   100c94b4     crossbow.obj
 0002:0000459c       ??_7CBasePlayerItem@@6B@   100c959c     crossbow.obj
 0002:000046cc       ??_7CCrowbar@@6B@          100c96cc     crowbar.obj
 0002:00004838       __real@8@3ffc8000000000000000 100c9838     doors.obj
 0002:00004840       ??_7CBaseDoor@@6B@         100c9840     doors.obj
 0002:00004928       ??_7CRotDoor@@6B@          100c9928     doors.obj
 0002:00004a10       ??_7CMomentaryDoor@@6B@    100c9a10     doors.obj
 0002:00004af8       ??_7CBubbling@@6B@         100c9af8     effects.obj
 0002:00004bdc       ??_7CBeam@@6B@             100c9bdc     effects.obj
 0002:00004cc0       ??_7CLightning@@6B@        100c9cc0     effects.obj
 0002:00004da4       ??_7CLaser@@6B@            100c9da4     effects.obj
 0002:00004e88       ??_7CGlow@@6B@             100c9e88     effects.obj
 0002:00004f6c       ??_7CSprite@@6B@           100c9f6c     effects.obj
 0002:00005050       ??_7CGibShooter@@6B@       100ca050     effects.obj
 0002:00005138       ??_7CEnvShooter@@6B@       100ca138     effects.obj
 0002:00005220       ??_7CTestEffect@@6B@       100ca220     effects.obj
 0002:00005304       ??_7CBlood@@6B@            100ca304     effects.obj
 0002:000053e8       ??_7CShake@@6B@            100ca3e8     effects.obj
 0002:000054cc       ??_7CFade@@6B@             100ca4cc     effects.obj
 0002:000055b0       ??_7CMessage@@6B@          100ca5b0     effects.obj
 0002:00005694       ??_7CEnvFunnel@@6B@        100ca694     effects.obj
 0002:00005778       ??_7CEnvBeverage@@6B@      100ca778     effects.obj
 0002:0000585c       ??_7CItemSoda@@6B@         100ca85c     effects.obj
 0002:00005940       __real@4@3ffbcccccd0000000000 100ca940     egon.obj
 0002:00005948       __real@8@3ffca9fbe76c8b439800 100ca948     egon.obj
 0002:00005950       __real@4@4005f000000000000000 100ca950     egon.obj
 0002:00005958       __real@8@4005a000000000000000 100ca958     egon.obj
 0002:00005960       ??_7CEgon@@6B@             100ca960     egon.obj
 0002:00005ac8       ??_7CEgonAmmo@@6B@         100caac8     egon.obj
 0002:00005bb0       ??_7CShower@@6B@           100cabb0     explode.obj
 0002:00005c94       ??_7CEnvExplosion@@6B@     100cac94     explode.obj
 0002:00005e88       __real@8@4006dc00000000000000 100cae88     flyingmonster.obj
 0002:00005e90       __real@4@c003a000000000000000 100cae90     flyingmonster.obj
 0002:00005e94       __real@4@40079600000000000000 100cae94     flyingmonster.obj
 0002:00005e98       __real@4@40059600000000000000 100cae98     flyingmonster.obj
 0002:00005ea0       __real@8@400b8000000000000000 100caea0     flyingmonster.obj
 0002:00005ea8       __real@8@3ff483126e978d4fe000 100caea8     func_break.obj
 0002:00005eb0       __real@4@4007c780000000000000 100caeb0     func_break.obj
 0002:00005eb4       ??_7CBreakable@@6B@        100caeb4     func_break.obj
 0002:00005f98       ??_7CPushable@@6B@         100caf98     func_break.obj
 0002:00006080       __real@8@4004e52ee0d31e0fc000 100cb080     func_tank.obj
 0002:00006088       ??_7CFuncTankGun@@6B@      100cb088     func_tank.obj
 0002:00006174       ??_7CFuncTankLaser@@6B@    100cb174     func_tank.obj
 0002:00006260       ??_7CFuncTankRocket@@6B@   100cb260     func_tank.obj
 0002:0000634c       ??_7CFuncTankMortar@@6B@   100cb34c     func_tank.obj
 0002:00006438       ??_7CFuncTankControls@@6B@ 100cb438     func_tank.obj
 0002:0000651c       ??_7CFuncTank@@6B@         100cb51c     func_tank.obj
 0002:00006610       __real@8@3ff9ccccccccccccd000 100cb610     gargantua.obj
 0002:00006618       __real@4@4009bb80000000000000 100cb618     gargantua.obj
 0002:0000661c       __real@4@4004b400000000000000 100cb61c     gargantua.obj
 0002:00006620       __real@4@c004b400000000000000 100cb620     gargantua.obj
 0002:00006624       __real@4@4007a500000000000000 100cb624     gargantua.obj
 0002:00006628       __real@8@3fffccccccccccccd000 100cb628     gargantua.obj
 0002:00006630       __real@8@4004f000000000000000 100cb630     gargantua.obj
 0002:00006638       __real@8@3fffa000000000000000 100cb638     gargantua.obj
 0002:00006640       __real@8@3ffc9999999999999800 100cb640     gargantua.obj
 0002:00006648       __real@8@3fff8cccccccccccd000 100cb648     gargantua.obj
 0002:00006650       ??_7CSpiral@@6B@           100cb650     gargantua.obj
 0002:00006734       ??_7CStomp@@6B@            100cb734     gargantua.obj
 0002:00006818       ??_7CGargantua@@6B@        100cb818     gargantua.obj
 0002:00006a0c       ??_7CSmoker@@6B@           100cba0c     gargantua.obj
 0002:00006af0       __real@4@3fffc000000000000000 100cbaf0     gauss.obj
 0002:00006af4       __real@4@4008fa00000000000000 100cbaf4     gauss.obj
 0002:00006af8       __real@8@3fffe000000000000000 100cbaf8     gauss.obj
 0002:00006b00       ??_7CGauss@@6B@            100cbb00     gauss.obj
 0002:00006c68       ??_7CGaussAmmo@@6B@        100cbc68     gauss.obj
 0002:00006d50       ??_7CGenericMonster@@6B@   100cbd50     genericmonster.obj
 0002:00006f44       __real@4@4003c000000000000000 100cbf44     ggrenade.obj
 0002:00006f48       __real@8@4006c800000000000000 100cbf48     ggrenade.obj
 0002:00006f50       __real@8@3ffde666666666666800 100cbf50     ggrenade.obj
 0002:00006f58       ??_7CGMan@@6B@             100cbf58     gman.obj
 0002:0000714c       __real@4@4007fa00000000000000 100cc14c     h_ai.obj
 0002:00007150       __real@8@3ffe8f5c28f5c28f6000 100cc150     h_battery.obj
 0002:00007158       __real@8@3ffe9eb851eb851eb800 100cc158     h_battery.obj
 0002:00007160       ??_7CRecharge@@6B@         100cc160     h_battery.obj
 0002:00007248       ??_7CCineScientist@@6B@    100cc248     h_cine.obj
 0002:0000743c       ??_7CCinePanther@@6B@      100cc43c     h_cine.obj
 0002:00007630       ??_7CCineBarney@@6B@       100cc630     h_cine.obj
 0002:00007824       ??_7CCine2Scientist@@6B@   100cc824     h_cine.obj
 0002:00007a18       ??_7CCine2HeavyWeapons@@6B@ 100cca18     h_cine.obj
 0002:00007c0c       ??_7CCine2Slave@@6B@       100ccc0c     h_cine.obj
 0002:00007e00       ??_7CCine3Scientist@@6B@   100cce00     h_cine.obj
 0002:00007ff4       ??_7CCine3Barney@@6B@      100ccff4     h_cine.obj
 0002:000081e8       ??_7CCineBlood@@6B@        100cd1e8     h_cine.obj
 0002:000082cc       ??_7CLegacyCineMonster@@6B@ 100cd2cc     h_cine.obj
 0002:000084c0       ??_7CGenericCycler@@6B@    100cd4c0     h_cycler.obj
 0002:000086b4       ??_7CCyclerProbe@@6B@      100cd6b4     h_cycler.obj
 0002:000088a8       ??_7CCyclerSprite@@6B@     100cd8a8     h_cycler.obj
 0002:0000898c       ??_7CWeaponCycler@@6B@     100cd98c     h_cycler.obj
 0002:00008af4       ??_7CWreckage@@6B@         100cdaf4     h_cycler.obj
 0002:00008ce8       ??_7CCycler@@6B@           100cdce8     h_cycler.obj
 0002:00008ee0       __real@8@3fff8e38e38e38e39000 100cdee0     handgrenade.obj
 0002:00008ee8       __real@8@c002a000000000000000 100cdee8     handgrenade.obj
 0002:00008ef0       __real@8@3ffee38e38e38e38e000 100cdef0     handgrenade.obj
 0002:00008ef8       ??_7CHandGrenade@@6B@      100cdef8     handgrenade.obj
 0002:00009060       __real@8@3ff9a3d70a3d70a3d800 100ce060     hassassin.obj
 0002:00009068       __real@4@4006a000000000000000 100ce068     hassassin.obj
 0002:00009070       __real@8@4006a000000000000000 100ce070     hassassin.obj
 0002:00009078       ??_7CHAssassin@@6B@        100ce078     hassassin.obj
 0002:00009270       __real@8@4008a280000000000000 100ce270     headcrab.obj
 0002:00009278       __real@4@4008a280000000000000 100ce278     headcrab.obj
 0002:00009280       __real@8@3ffea666666666666800 100ce280     headcrab.obj
 0002:00009288       __real@8@3ffe8cccccccccccd000 100ce288     headcrab.obj
 0002:00009290       ??_7CHeadCrab@@6B@         100ce290     headcrab.obj
 0002:00009490       ??_7CBabyCrab@@6B@         100ce490     headcrab.obj
 0002:00009690       __real@4@3ffecccccd0000000000 100ce690     headcrab.obj
 0002:00009694       ??_7CHealthKit@@6B@        100ce694     healthkit.obj
 0002:0000977c       ??_7CWallHealth@@6B@       100ce77c     healthkit.obj
 0002:00009864       ??_7CItem@@6B@             100ce864     healthkit.obj
 0002:0000994c       __real@4@c0068000000000000000 100ce94c     hgrunt.obj
 0002:00009950       __real@8@c00b8000000000000000 100ce950     hgrunt.obj
 0002:00009958       ??_7CHGrunt@@6B@           100ce958     hgrunt.obj
 0002:00009b4c       ??_7CHGruntRepel@@6B@      100ceb4c     hgrunt.obj
 0002:00009d40       ??_7CDeadHGrunt@@6B@       100ced40     hgrunt.obj
 0002:00009f38       __real@8@4000f000000000000000 100cef38     hl_wpn_glock.obj
 0002:00009f40       __real@8@4000c400000000000000 100cef40     hl_wpn_glock.obj
 0002:00009f48       ??_7CGlock@@6B@            100cef48     hl_wpn_glock.obj
 0002:0000a0b0       ??_7CGlockAmmo@@6B@        100cf0b0     hl_wpn_glock.obj
 0002:0000a198       __real@8@4000e000000000000000 100cf198     hornet.obj
 0002:0000a1a0       ??_7CHornet@@6B@           100cf1a0     hornet.obj
 0002:0000a398       __real@8@40008c00000000000000 100cf398     hornetgun.obj
 0002:0000a3a0       __real@8@3ffee000000000000000 100cf3a0     hornetgun.obj
 0002:0000a3a8       ??_7CHgun@@6B@             100cf3a8     hornetgun.obj
 0002:0000a510       __real@8@4006c000000000000000 100cf510     houndeye.obj
 0002:0000a518       __real@4@4007c000000000000000 100cf518     houndeye.obj
 0002:0000a51c       __real@4@3fff8ccccd0000000000 100cf51c     houndeye.obj
 0002:0000a520       __real@8@4008f000000000000000 100cf520     houndeye.obj
 0002:0000a528       __real@8@4009f000000000000000 100cf528     houndeye.obj
 0002:0000a530       __real@8@4003c800000000000000 100cf530     houndeye.obj
 0002:0000a538       ??_7CHoundeye@@6B@         100cf538     houndeye.obj
 0002:0000a72c       __real@4@4006c000000000000000 100cf72c     ichthyosaur.obj
 0002:0000a730       __real@8@bffeb333333333333000 100cf730     ichthyosaur.obj
 0002:0000a738       __real@8@3ffeb4fdf3b645a1c800 100cf738     ichthyosaur.obj
 0002:0000a740       __real@4@c005a000000000000000 100cf740     ichthyosaur.obj
 0002:0000a748       __real@8@40069600000000000000 100cf748     ichthyosaur.obj
 0002:0000a750       __real@8@3ffefd70a3d70a3d7000 100cf750     ichthyosaur.obj
 0002:0000a758       ??_7CIchthyosaur@@6B@      100cf758     ichthyosaur.obj
 0002:0000a94c       ??_7CFlyingMonster@@6B@    100cf94c     ichthyosaur.obj
 0002:0000ab40       ??_7CISlave@@6B@           100cfb40     islave.obj
 0002:0000ad34       ??_7CWorldItem@@6B@        100cfd34     items.obj
 0002:0000ae18       ??_7CItemSuit@@6B@         100cfe18     items.obj
 0002:0000af00       ??_7CItemBattery@@6B@      100cff00     items.obj
 0002:0000afe8       ??_7CItemAntidote@@6B@     100cffe8     items.obj
 0002:0000b0d0       ??_7CItemSecurity@@6B@     100d00d0     items.obj
 0002:0000b1b8       ??_7CItemLongJump@@6B@     100d01b8     items.obj
 0002:0000b2a0       __real@8@3ffee666666666666800 100d02a0     leech.obj
 0002:0000b2a8       __real@4@c002a000000000000000 100d02a8     leech.obj
 0002:0000b2ac       __real@4@c0069600000000000000 100d02ac     leech.obj
 0002:0000b2b0       __real@8@bffbccccccccccccd000 100d02b0     leech.obj
 0002:0000b2b8       __real@8@40058700000000000000 100d02b8     leech.obj
 0002:0000b2c0       __real@8@c0058700000000000000 100d02c0     leech.obj
 0002:0000b2c8       ??_7CLeech@@6B@            100d02c8     leech.obj
 0002:0000b4c0       __real@8@40078400000000000000 100d04c0     lights.obj
 0002:0000b4c8       __real@8@4005e400000000000000 100d04c8     lights.obj
 0002:0000b4d0       __real@8@4006ff00000000000000 100d04d0     lights.obj
 0002:0000b4d8       ??_7CLight@@6B@            100d04d8     lights.obj
 0002:0000b5bc       ??_7CEnvLight@@6B@         100d05bc     lights.obj
 0002:0000b6a0       ??_7CGameScore@@6B@        100d06a0     maprules.obj
 0002:0000b784       ??_7CGameEnd@@6B@          100d0784     maprules.obj
 0002:0000b868       ??_7CGameText@@6B@         100d0868     maprules.obj
 0002:0000b94c       ??_7CGameTeamMaster@@6B@   100d094c     maprules.obj
 0002:0000ba30       ??_7CGameTeamSet@@6B@      100d0a30     maprules.obj
 0002:0000bb14       ??_7CGamePlayerZone@@6B@   100d0b14     maprules.obj
 0002:0000bbf8       ??_7CGamePlayerHurt@@6B@   100d0bf8     maprules.obj
 0002:0000bcdc       ??_7CGameCounter@@6B@      100d0cdc     maprules.obj
 0002:0000bdc0       ??_7CGameCounterSet@@6B@   100d0dc0     maprules.obj
 0002:0000bea4       ??_7CGamePlayerEquip@@6B@  100d0ea4     maprules.obj
 0002:0000bf88       ??_7CGamePlayerTeam@@6B@   100d0f88     maprules.obj
 0002:0000c06c       ??_7CRulePointEntity@@6B@  100d106c     maprules.obj
 0002:0000c150       ??_7CRuleBrushEntity@@6B@  100d1150     maprules.obj
 0002:0000c234       ??_7CRuleEntity@@6B@       100d1234     maprules.obj
 0002:0000c318       ??_7CMonsterMaker@@6B@     100d1318     monstermaker.obj
 0002:0000c510       __real@8@4004c000000000000000 100d1510     monsters.obj
 0002:0000c518       __real@8@4003c000000000000000 100d1518     monsters.obj
 0002:0000c520       __real@8@3ff7c49ba5e353f7d000 100d1520     monsters.obj
 0002:0000c528       ??_7CFuncMortarField@@6B@  100d1528     mortar.obj
 0002:0000c610       ??_7CMortar@@6B@           100d1610     mortar.obj
 0002:0000c808       ??_7CMP5@@6B@              100d1808     mp5.obj
 0002:0000c970       ??_7CMP5AmmoClip@@6B@      100d1970     mp5.obj
 0002:0000ca58       ??_7CMP5Chainammo@@6B@     100d1a58     mp5.obj
 0002:0000cb40       ??_7CMP5AmmoGrenade@@6B@   100d1b40     mp5.obj
 0002:0000cc28       ??_7CMultiplayGameMgrHelper@@6B@ 100d1c28     multiplay_gamerules.obj
 0002:0000cc30       ??_7IVoiceGameMgrHelper@@6B@ 100d1c30     multiplay_gamerules.obj
 0002:0000cc38       ??_7CHalfLifeMultiplay@@6B@ 100d1c38     multiplay_gamerules.obj
 0002:0000cd30       ??_7CGameRules@@6B@        100d1d30     multiplay_gamerules.obj
 0002:0000ce20       __real@4@4007de00000000000000 100d1e20     multiplay_gamerules.obj
 0002:0000ce24       __real@4@40089100000000000000 100d1e24     multiplay_gamerules.obj
 0002:0000ce28       __real@4@4006dc00000000000000 100d1e28     multiplay_gamerules.obj
 0002:0000ce30       __real@8@40068000000000000000 100d1e30     nihilanth.obj
 0002:0000ce38       ??_7CNihilanth@@6B@        100d1e38     nihilanth.obj
 0002:0000d02c       ??_7CNihilanthHVR@@6B@     100d202c     nihilanth.obj
 0002:0000d228       __real@8@bffe8000000000000000 100d2228     nodes.obj
 0002:0000d230       __real@8@3ffeff7ced916872b000 100d2230     nodes.obj
 0002:0000d238       ??_7CNodeEnt@@6B@          100d2238     nodes.obj
 0002:0000d31c       ??_7CTestHull@@6B@         100d231c     nodes.obj
 0002:0000d510       ??_7CNodeViewer@@6B@       100d2510     nodes.obj
 0002:0000d5f8       __real@8@40059600000000000000 100d25f8     osprey.obj
 0002:0000d600       __real@4@c005b400000000000000 100d2600     osprey.obj
 0002:0000d604       ??_7COsprey@@6B@           100d2604     osprey.obj
 0002:0000d7f8       ??_7CPathCorner@@6B@       100d27f8     pathcorner.obj
 0002:0000d8dc       ??_7CPathTrack@@6B@        100d28dc     pathcorner.obj
 0002:0000d9c0       __real@8@4004a000000000000000 100d29c0     plats.obj
 0002:0000d9c8       __real@4@c001a000000000000000 100d29c8     plats.obj
 0002:0000d9cc       __real@4@40059000000000000000 100d29cc     plats.obj
 0002:0000d9d0       ??_7CFuncPlat@@6B@         100d29d0     plats.obj
 0002:0000dacc       ??_7CPlatTrigger@@6B@      100d2acc     plats.obj
 0002:0000dbb0       ??_7CFuncPlatRot@@6B@      100d2bb0     plats.obj
 0002:0000dcac       ??_7CFuncTrain@@6B@        100d2cac     plats.obj
 0002:0000dd98       ??_7CFuncTrackTrain@@6B@   100d2d98     plats.obj
 0002:0000de7c       ??_7CFuncTrainControls@@6B@ 100d2e7c     plats.obj
 0002:0000df60       ??_7CFuncTrackChange@@6B@  100d2f60     plats.obj
 0002:0000e060       ??_7CFuncTrackAuto@@6B@    100d3060     plats.obj
 0002:0000e160       ??_7CGunTarget@@6B@        100d3160     plats.obj
 0002:0000e354       ??_7CBasePlatTrain@@6B@    100d3354     plats.obj
 0002:0000e440       __real@8@3ffea8f5c28f5c28f800 100d3440     player.obj
 0002:0000e448       __real@8@3ffda8f5c28f5c28f800 100d3448     player.obj
 0002:0000e450       __real@4@40029000000000000000 100d3450     player.obj
 0002:0000e458       __real@8@bfff8000000000000000 100d3458     player.obj
 0002:0000e460       __real@4@4007af00000000000000 100d3460     player.obj
 0002:0000e468       __real@8@3fff9999999999999800 100d3468     player.obj
 0002:0000e470       __real@4@c002c000000000000000 100d3470     player.obj
 0002:0000e474       __real@4@c003c800000000000000 100d3474     player.obj
 0002:0000e478       ??_7CSprayCan@@6B@         100d3478     player.obj
 0002:0000e55c       ??_7CBloodSplat@@6B@       100d355c     player.obj
 0002:0000e640       ??_7CDeadHEV@@6B@          100d3640     player.obj
 0002:0000e834       ??_7CStripWeapons@@6B@     100d3834     player.obj
 0002:0000e918       ??_7CRevertSaved@@6B@      100d3918     player.obj
 0002:0000e9fc       ??_7CInfoIntermission@@6B@ 100d39fc     player.obj
 0002:0000eae0       __real@8@3ff7b400000000000000 100d3ae0     pm_math.obj
 0002:0000eae8       __real@8@4006b60b60b60b60b800 100d3ae8     pm_math.obj
 0002:0000eaf0       __real@8@c006b400000000000000 100d3af0     pm_math.obj
 0002:0000eaf8       __real@8@3ffdb333333333333000 100d3af8     pm_shared.obj
 0002:0000eb00       __real@4@40048800000000000000 100d3b00     pm_shared.obj
 0002:0000eb04       __real@4@4003e000000000000000 100d3b04     pm_shared.obj
 0002:0000eb08       __real@8@3ffdaa7ef9db22d0e800 100d3b08     pm_shared.obj
 0002:0000eb10       __real@4@400c9c40000000000000 100d3b10     pm_shared.obj
 0002:0000eb14       __real@4@4008e100000000000000 100d3b14     pm_shared.obj
 0002:0000eb18       __real@4@3fffd9999a0000000000 100d3b18     pm_shared.obj
 0002:0000eb20       __real@8@3ffbcccccd0000000000 100d3b20     pm_shared.obj
 0002:0000eb28       __real@8@3ff8d4fdf3b645a1c800 100d3b28     pm_shared.obj
 0002:0000eb30       __real@4@40079100000000000000 100d3b30     pm_shared.obj
 0002:0000eb34       ??_7CPython@@6B@           100d3b34     python.obj
 0002:0000ec9c       ??_7CPythonAmmo@@6B@       100d3c9c     python.obj
 0002:0000ed84       ??_7CRat@@6B@              100d3d84     rat.obj
 0002:0000ef78       ??_7CRoach@@6B@            100d3f78     roach.obj
 0002:0000f170       __real@8@4007c800000000000000 100d4170     rpg.obj
 0002:0000f178       __real@8@40008666666666666800 100d4178     rpg.obj
 0002:0000f180       ??_7CRpg@@6B@              100d4180     rpg.obj
 0002:0000f2e8       ??_7CLaserSpot@@6B@        100d42e8     rpg.obj
 0002:0000f3cc       ??_7CRpgRocket@@6B@        100d43cc     rpg.obj
 0002:0000f5c4       ??_7CRpgAmmo@@6B@          100d45c4     rpg.obj
 0002:0000f6ac       ??_7CSatchelCharge@@6B@    100d46ac     satchel.obj
 0002:0000f8a4       ??_7CSatchel@@6B@          100d48a4     satchel.obj
 0002:0000fa0c       __real@4@40078700000000000000 100d4a0c     schedule.obj
 0002:0000fa10       __real@4@4006be00000000000000 100d4a10     schedule.obj
 0002:0000fa14       ??_7CScientist@@6B@        100d4a14     scientist.obj
 0002:0000fc14       __real@4@40099600000000000000 100d4c14     scientist.obj
 0002:0000fc18       ??_7CDeadScientist@@6B@    100d4c18     scientist.obj
 0002:0000fe0c       ??_7CSittingScientist@@6B@ 100d4e0c     scientist.obj
 0002:00010010       __real@8@4012f424000000000000 100d5010     scripted.obj
 0002:00010018       __real@8@40028000000000000000 100d5018     scripted.obj
 0002:00010020       ??_7CCineMonster@@6B@      100d5020     scripted.obj
 0002:00010224       ??_7CCineAI@@6B@           100d5224     scripted.obj
 0002:00010428       ??_7CScriptedSentence@@6B@ 100d5428     scripted.obj
 0002:00010510       ??_7CFurniture@@6B@        100d5510     scripted.obj
 0002:00010708       __real@8@3ffef333333333333000 100d5708     shotgun.obj
 0002:00010710       __real@8@40008e38e38e38e39000 100d5710     shotgun.obj
 0002:00010718       ??_7CShotgun@@6B@          100d5718     shotgun.obj
 0002:00010880       ??_7CShotgunAmmo@@6B@      100d5880     shotgun.obj
 0002:00010968       ??_7CHalfLifeRules@@6B@    100d5968     singleplay_gamerules.obj
 0002:00010a58       ??_7CAmbientGeneric@@6B@   100d5a58     sound.obj
 0002:00010b3c       ??_7CEnvSound@@6B@         100d5b3c     sound.obj
 0002:00010c20       ??_7CSpeaker@@6B@          100d5c20     sound.obj
 0002:00010d04       ??_7CSoundEnt@@6B@         100d5d04     soundent.obj
 0002:00010de8       __real@8@40069b00000000000000 100d5de8     squeakgrenade.obj
 0002:00010df0       __real@8@40018c00000000000000 100d5df0     squeakgrenade.obj
 0002:00010df8       ??_7CSqueakGrenade@@6B@    100d5df8     squeakgrenade.obj
 0002:00010ff0       ??_7CSqueak@@6B@           100d5ff0     squeakgrenade.obj
 0002:00011158       ??_7CNullEntity@@6B@       100d6158     subs.obj
 0002:0001123c       ??_7CBaseDMStart@@6B@      100d623c     subs.obj
 0002:00011320       __real@8@4007fa00000000000000 100d6320     talkmonster.obj
 0002:00011328       ??_7CHalfLifeTeamplay@@6B@ 100d6328     teamplay_gamerules.obj
 0002:00011420       ??_7CTentacle@@6B@         100d6420     tentacle.obj
 0002:00011614       __real@4@40089600000000000000 100d6614     tentacle.obj
 0002:00011618       __real@4@4007cc00000000000000 100d6618     tentacle.obj
 0002:0001161c       __real@4@4006d800000000000000 100d661c     tentacle.obj
 0002:00011620       __real@4@4008a000000000000000 100d6620     tentacle.obj
 0002:00011624       __real@4@4007e000000000000000 100d6624     tentacle.obj
 0002:00011628       ??_7CTentacleMaw@@6B@      100d6628     tentacle.obj
 0002:0001181c       ??_7CFrictionModifier@@6B@ 100d681c     triggers.obj
 0002:00011900       ??_7CAutoTrigger@@6B@      100d6900     triggers.obj
 0002:000119e4       ??_7CTriggerRelay@@6B@     100d69e4     triggers.obj
 0002:00011ac8       ??_7CMultiManager@@6B@     100d6ac8     triggers.obj
 0002:00011bb0       ??_7CRenderFxManager@@6B@  100d6bb0     triggers.obj
 0002:00011c94       ??_7CBaseTrigger@@6B@      100d6c94     triggers.obj
 0002:00011d7c       ??_7CTriggerHurt@@6B@      100d6d7c     triggers.obj
 0002:00011e64       ??_7CTriggerMonsterJump@@6B@ 100d6e64     triggers.obj
 0002:00011f4c       ??_7CTriggerCDAudio@@6B@   100d6f4c     triggers.obj
 0002:00012034       ??_7CTargetCDAudio@@6B@    100d7034     triggers.obj
 0002:00012118       ??_7CTriggerMultiple@@6B@  100d7118     triggers.obj
 0002:00012200       ??_7CTriggerOnce@@6B@      100d7200     triggers.obj
 0002:000122e8       ??_7CTriggerCounter@@6B@   100d72e8     triggers.obj
 0002:000123d0       ??_7CTriggerVolume@@6B@    100d73d0     triggers.obj
 0002:000124b4       ??_7CFireAndDie@@6B@       100d74b4     triggers.obj
 0002:00012598       ??_7CChangeLevel@@6B@      100d7598     triggers.obj
 0002:00012680       ??_7CLadder@@6B@           100d7680     triggers.obj
 0002:00012768       ??_7CTriggerPush@@6B@      100d7768     triggers.obj
 0002:00012850       ??_7CTriggerTeleport@@6B@  100d7850     triggers.obj
 0002:00012938       ??_7CTriggerSave@@6B@      100d7938     triggers.obj
 0002:00012a20       ??_7CTriggerEndSection@@6B@ 100d7a20     triggers.obj
 0002:00012b08       ??_7CTriggerGravity@@6B@   100d7b08     triggers.obj
 0002:00012bf0       ??_7CTriggerChangeTarget@@6B@ 100d7bf0     triggers.obj
 0002:00012cd4       ??_7CTriggerCamera@@6B@    100d7cd4     triggers.obj
 0002:00012db8       __real@8@4000d555555555555800 100d7db8     tripmine.obj
 0002:00012dc0       ??_7CTripmineGrenade@@6B@  100d7dc0     tripmine.obj
 0002:00012fb8       ??_7CTripmine@@6B@         100d7fb8     tripmine.obj
 0002:00013120       __real@8@3ffeddb22d0e56041800 100d8120     turret.obj
 0002:00013128       __real@8@3ffb9999999999999800 100d8128     turret.obj
 0002:00013130       ??_7CTurret@@6B@           100d8130     turret.obj
 0002:0001333c       ??_7CMiniTurret@@6B@       100d833c     turret.obj
 0002:00013548       ??_7CSentry@@6B@           100d8548     turret.obj
 0002:00013754       ??_7CBaseTurret@@6B@       100d8754     turret.obj
 0002:00013960       __real@8@400f8000000000000000 100d8960     util.obj
 0002:00013968       ??_7CVoiceGameMgr@@6B@     100d8968     voice_gamemgr.obj
 0002:0001396c       ??_7CWeaponBox@@6B@        100d896c     weapons.obj
 0002:00013a50       ??_7CDecal@@6B@            100d8a50     world.obj
 0002:00013b34       ??_7CCorpse@@6B@           100d8b34     world.obj
 0002:00013c18       ??_7CWorld@@6B@            100d8c18     world.obj
 0002:00013cfc       ??_7CXenPLight@@6B@        100d8cfc     xen.obj
 0002:00013de4       ??_7CXenHair@@6B@          100d8de4     xen.obj
 0002:00013ecc       ??_7CXenTreeTrigger@@6B@   100d8ecc     xen.obj
 0002:00013fb0       ??_7CXenTree@@6B@          100d8fb0     xen.obj
 0002:00014098       ??_7CXenHull@@6B@          100d9098     xen.obj
 0002:0001417c       ??_7CXenSporeSmall@@6B@    100d917c     xen.obj
 0002:00014264       ??_7CXenSporeMed@@6B@      100d9264     xen.obj
 0002:0001434c       ??_7CXenSporeLarge@@6B@    100d934c     xen.obj
 0002:00014434       ??_7CActAnimating@@6B@     100d9434     xen.obj
 0002:0001451c       ??_7CXenSpore@@6B@         100d951c     xen.obj
 0002:00014604       ??_7CZombie@@6B@           100d9604     zombie.obj
 0002:000147f8       __real@8@4015800bf60000000000 100d97f8     LIBCMT:testfdiv.obj
 0002:00014800       __real@8@4014bffffc0000000000 100d9800     LIBCMT:testfdiv.obj
 0002:00014808       ??_C@_0BK@JEGK@IsProcessorFeaturePresent?$AA@ 100d9808     LIBCMT:testfdiv.obj
 0002:00014824       ??_C@_08OBID@KERNEL32?$AA@ 100d9824     LIBCMT:testfdiv.obj
 0002:00014830       ??_C@_05OFLO@e?$CL000?$AA@ 100d9830     LIBCMT:cvt.obj
 0002:00014848       __DEFAULT_CW_in_mem        100d9848     LIBCMT:common.obj
 0002:0001484a       __pi_by_2_to_61            100d984a     LIBCMT:common.obj
 0002:00014884       ??_C@_03GAFO@_yn?$AA@      100d9884     LIBCMT:fpexcept.obj
 0002:00014888       ??_C@_03GNLD@_y1?$AA@      100d9888     LIBCMT:fpexcept.obj
 0002:0001488c       ??_C@_03MHCE@_y0?$AA@      100d988c     LIBCMT:fpexcept.obj
 0002:00014890       ??_C@_05PAK@frexp?$AA@     100d9890     LIBCMT:fpexcept.obj
 0002:00014898       ??_C@_04JKCH@fmod?$AA@     100d9898     LIBCMT:fpexcept.obj
 0002:000148a0       ??_C@_06GGHF@_hypot?$AA@   100d98a0     LIBCMT:fpexcept.obj
 0002:000148a8       ??_C@_05JNMC@_cabs?$AA@    100d98a8     LIBCMT:fpexcept.obj
 0002:000148b0       ??_C@_05MEKH@ldexp?$AA@    100d98b0     LIBCMT:fpexcept.obj
 0002:000148b8       ??_C@_04KAOJ@modf?$AA@     100d98b8     LIBCMT:fpexcept.obj
 0002:000148c0       ??_C@_04EHAJ@fabs?$AA@     100d98c0     LIBCMT:fpexcept.obj
 0002:000148c8       ??_C@_05MFBN@floor?$AA@    100d98c8     LIBCMT:fpexcept.obj
 0002:000148d0       ??_C@_04JJMP@ceil?$AA@     100d98d0     LIBCMT:fpexcept.obj
 0002:000148d8       ??_C@_03JLPI@tan?$AA@      100d98d8     LIBCMT:fpexcept.obj
 0002:000148dc       ??_C@_03DLFL@cos?$AA@      100d98dc     LIBCMT:fpexcept.obj
 0002:000148e0       ??_C@_03JAMN@sin?$AA@      100d98e0     LIBCMT:fpexcept.obj
 0002:000148e4       ??_C@_04LMBE@sqrt?$AA@     100d98e4     LIBCMT:fpexcept.obj
 0002:000148ec       ??_C@_05BFPO@atan2?$AA@    100d98ec     LIBCMT:fpexcept.obj
 0002:000148f4       ??_C@_04EAGN@atan?$AA@     100d98f4     LIBCMT:fpexcept.obj
 0002:000148fc       ??_C@_04OAMO@acos?$AA@     100d98fc     LIBCMT:fpexcept.obj
 0002:00014904       ??_C@_04ELFI@asin?$AA@     100d9904     LIBCMT:fpexcept.obj
 0002:0001490c       ??_C@_04LFAD@tanh?$AA@     100d990c     LIBCMT:fpexcept.obj
 0002:00014914       ??_C@_04PFKD@cosh?$AA@     100d9914     LIBCMT:fpexcept.obj
 0002:0001491c       ??_C@_04NPAI@sinh?$AA@     100d991c     LIBCMT:fpexcept.obj
 0002:00014924       ??_C@_05IJHH@log10?$AA@    100d9924     LIBCMT:fpexcept.obj
 0002:0001492c       ??_C@_03BGKD@log?$AA@      100d992c     LIBCMT:fpexcept.obj
 0002:00014930       ??_C@_03EGFG@pow?$AA@      100d9930     LIBCMT:fpexcept.obj
 0002:00014934       ??_C@_03CDGJ@exp?$AA@      100d9934     LIBCMT:fpexcept.obj
 0002:00014938       ___lookuptable             100d9938     LIBCMT:output.obj
 0002:00014994       ??_C@_1O@POHA@?$AA?$CI?$AAn?$AAu?$AAl?$AAl?$AA?$CJ?$AA?$AA@ 100d9994     LIBCMT:output.obj
 0002:000149a4       ??_C@_06ONKE@?$CInull?$CJ?$AA@ 100d99a4     LIBCMT:output.obj
 0002:000149e0       ___dnames                  100d99e0     LIBCMT:timeset.obj
 0002:000149f8       ___mnames                  100d99f8     LIBCMT:timeset.obj
 0002:00014a20       ??_C@_02JHIA@TZ?$AA@       100d9a20     LIBCMT:tzset.obj
 0002:00014a24       ??_C@_07PCLE@LC_TIME?$AA@  100d9a24     LIBCMT:setlocal.obj
 0002:00014a2c       ??_C@_0L@NKG@LC_NUMERIC?$AA@ 100d9a2c     LIBCMT:setlocal.obj
 0002:00014a38       ??_C@_0M@CBIH@LC_MONETARY?$AA@ 100d9a38     LIBCMT:setlocal.obj
 0002:00014a44       ??_C@_08LFGE@LC_CTYPE?$AA@ 100d9a44     LIBCMT:setlocal.obj
 0002:00014a50       ??_C@_0L@CFLC@LC_COLLATE?$AA@ 100d9a50     LIBCMT:setlocal.obj
 0002:00014a5c       ??_C@_06GCPK@LC_ALL?$AA@   100d9a5c     LIBCMT:setlocal.obj
 0002:00014a64       ??_C@_01FAJB@?$DL?$AA@     100d9a64     LIBCMT:setlocal.obj
 0002:00014a68       ??_C@_02BGDO@?$DN?$DL?$AA@ 100d9a68     LIBCMT:setlocal.obj
 0002:00014a6c       ??_C@_01KPOD@?$DN?$AA@     100d9a6c     LIBCMT:setlocal.obj
 0002:00014a70       ??_C@_03DBOJ@_?4?0?$AA@    100d9a70     LIBCMT:setlocal.obj
 0002:00014a74       ??_C@_01PJCK@?4?$AA@       100d9a74     LIBCMT:setlocal.obj
 0002:00014a78       ??_C@_01NON@_?$AA@         100d9a78     LIBCMT:setlocal.obj
 0002:00014a7c       ??_C@_01A@?$AA?$AA@        100d9a7c     LIBCMT:a_map.obj
 0002:00014a80       ??_C@_13A@?$AA?$AA?$AA?$AA@ 100d9a80     LIBCMT:a_map.obj
 0002:00014aac       ??_C@_0P@GGKG@runtime?5error?5?$AA@ 100d9aac     LIBCMT:crt0msg.obj
 0002:00014abc       ??_C@_02PIMC@?$AN?6?$AA@   100d9abc     LIBCMT:crt0msg.obj
 0002:00014ac0       ??_C@_0O@DELO@TLOSS?5error?$AN?6?$AA@ 100d9ac0     LIBCMT:crt0msg.obj
 0002:00014ad0       ??_C@_0N@OMLL@SING?5error?$AN?6?$AA@ 100d9ad0     LIBCMT:crt0msg.obj
 0002:00014ae0       ??_C@_0P@OJAK@DOMAIN?5error?$AN?6?$AA@ 100d9ae0     LIBCMT:crt0msg.obj
 0002:00014af0       ??_C@_0CF@EANP@R6028?$AN?6?9?5unable?5to?5initialize?5he@ 100d9af0     LIBCMT:crt0msg.obj
 0002:00014b18       ??_C@_0DF@ECGN@R6027?$AN?6?9?5not?5enough?5space?5for?5lo@ 100d9b18     LIBCMT:crt0msg.obj
 0002:00014b50       ??_C@_0DF@FKAC@R6026?$AN?6?9?5not?5enough?5space?5for?5st@ 100d9b50     LIBCMT:crt0msg.obj
 0002:00014b88       ??_C@_0CG@DPMN@R6025?$AN?6?9?5pure?5virtual?5function?5c@ 100d9b88     LIBCMT:crt0msg.obj
 0002:00014bb0       ??_C@_0DF@CKIP@R6024?$AN?6?9?5not?5enough?5space?5for?5_o@ 100d9bb0     LIBCMT:crt0msg.obj
 0002:00014be8       ??_C@_0CJ@GGOE@R6019?$AN?6?9?5unable?5to?5open?5console?5@ 100d9be8     LIBCMT:crt0msg.obj
 0002:00014c14       ??_C@_0CB@LBOB@R6018?$AN?6?9?5unexpected?5heap?5error?$AN?6@ 100d9c14     LIBCMT:crt0msg.obj
 0002:00014c38       ??_C@_0CN@FPEG@R6017?$AN?6?9?5unexpected?5multithread?5@ 100d9c38     LIBCMT:crt0msg.obj
 0002:00014c68       ??_C@_0CM@OBIC@R6016?$AN?6?9?5not?5enough?5space?5for?5th@ 100d9c68     LIBCMT:crt0msg.obj
 0002:00014c94       ??_C@_0CB@HPAL@?$AN?6abnormal?5program?5termination?$AN?6@ 100d9c94     LIBCMT:crt0msg.obj
 0002:00014cb8       ??_C@_0CM@JOOB@R6009?$AN?6?9?5not?5enough?5space?5for?5en@ 100d9cb8     LIBCMT:crt0msg.obj
 0002:00014ce4       ??_C@_0CK@OIBL@R6008?$AN?6?9?5not?5enough?5space?5for?5ar@ 100d9ce4     LIBCMT:crt0msg.obj
 0002:00014d10       ??_C@_0CF@LKPB@R6002?$AN?6?9?5floating?5point?5not?5load@ 100d9d10     LIBCMT:crt0msg.obj
 0002:00014d38       ??_C@_0CF@JPDF@Microsoft?5Visual?5C?$CL?$CL?5Runtime?5Lib@ 100d9d38     LIBCMT:crt0msg.obj
 0002:00014d60       ??_C@_02JJJH@?6?6?$AA@     100d9d60     LIBCMT:crt0msg.obj
 0002:00014d64       ??_C@_0BK@DEOK@Runtime?5Error?$CB?6?6Program?3?5?$AA@ 100d9d64     LIBCMT:crt0msg.obj
 0002:00014d80       ??_C@_03NAME@?4?4?4?$AA@   100d9d80     LIBCMT:crt0msg.obj
 0002:00014d84       ??_C@_0BH@NNCD@?$DMprogram?5name?5unknown?$DO?$AA@ 100d9d84     LIBCMT:crt0msg.obj
 0002:00014d9c       ??_C@_08OBJD@Paraguay?$AA@ 100d9d9c     LIBCMT:getqloc.obj
 0002:00014da8       ??_C@_07GLKH@Uruguay?$AA@  100d9da8     LIBCMT:getqloc.obj
 0002:00014db0       ??_C@_05FPFC@Chile?$AA@    100d9db0     LIBCMT:getqloc.obj
 0002:00014db8       ??_C@_07IIGF@Ecuador?$AA@  100d9db8     LIBCMT:getqloc.obj
 0002:00014dc0       ??_C@_09PKAL@Argentina?$AA@ 100d9dc0     LIBCMT:getqloc.obj
 0002:00014dcc       ??_C@_04LKAH@Peru?$AA@     100d9dcc     LIBCMT:getqloc.obj
 0002:00014dd4       ??_C@_08NEEM@Colombia?$AA@ 100d9dd4     LIBCMT:getqloc.obj
 0002:00014de0       ??_C@_09ODEB@Venezuela?$AA@ 100d9de0     LIBCMT:getqloc.obj
 0002:00014dec       ??_C@_0BD@CLEL@Dominican?5Republic?$AA@ 100d9dec     LIBCMT:getqloc.obj
 0002:00014e00       ??_C@_0N@MDGL@South?5Africa?$AA@ 100d9e00     LIBCMT:getqloc.obj
 0002:00014e10       ??_C@_06NKBG@Panama?$AA@   100d9e10     LIBCMT:getqloc.obj
 0002:00014e18       ??_C@_0L@BMHO@Luxembourg?$AA@ 100d9e18     LIBCMT:getqloc.obj
 0002:00014e24       ??_C@_0L@IMDK@Costa?5Rica?$AA@ 100d9e24     LIBCMT:getqloc.obj
 0002:00014e30       ??_C@_0M@BLJF@Switzerland?$AA@ 100d9e30     LIBCMT:getqloc.obj
 0002:00014e3c       ??_C@_09KBOL@Guatemala?$AA@ 100d9e3c     LIBCMT:getqloc.obj
 0002:00014e48       ??_C@_06JNAK@Canada?$AA@   100d9e48     LIBCMT:getqloc.obj
 0002:00014e50       ??_C@_0BG@OLLP@Spanish?5?9?5Modern?5Sort?$AA@ 100d9e50     LIBCMT:getqloc.obj
 0002:00014e68       ??_C@_09IDKE@Australia?$AA@ 100d9e68     LIBCMT:getqloc.obj
 0002:00014e74       ??_C@_07JJJJ@English?$AA@  100d9e74     LIBCMT:getqloc.obj
 0002:00014e7c       ??_C@_07NMDO@Austria?$AA@  100d9e7c     LIBCMT:getqloc.obj
 0002:00014e84       ??_C@_06DEFE@German?$AA@   100d9e84     LIBCMT:getqloc.obj
 0002:00014e8c       ??_C@_07JAIH@Belgium?$AA@  100d9e8c     LIBCMT:getqloc.obj
 0002:00014e94       ??_C@_06BNLJ@Mexico?$AA@   100d9e94     LIBCMT:getqloc.obj
 0002:00014e9c       ??_C@_07JHAG@Spanish?$AA@  100d9e9c     LIBCMT:getqloc.obj
 0002:00014ea4       ??_C@_06DADE@Basque?$AA@   100d9ea4     LIBCMT:getqloc.obj
 0002:00014eac       ??_C@_06ENFP@Sweden?$AA@   100d9eac     LIBCMT:getqloc.obj
 0002:00014eb4       ??_C@_07JPMH@Swedish?$AA@  100d9eb4     LIBCMT:getqloc.obj
 0002:00014ebc       ??_C@_07IEKF@Iceland?$AA@  100d9ebc     LIBCMT:getqloc.obj
 0002:00014ec4       ??_C@_09KNEA@Icelandic?$AA@ 100d9ec4     LIBCMT:getqloc.obj
 0002:00014ed0       ??_C@_06IJOD@France?$AA@   100d9ed0     LIBCMT:getqloc.obj
 0002:00014ed8       ??_C@_06EINI@French?$AA@   100d9ed8     LIBCMT:getqloc.obj
 0002:00014ee0       ??_C@_07FOOE@Finland?$AA@  100d9ee0     LIBCMT:getqloc.obj
 0002:00014ee8       ??_C@_07OJOM@Finnish?$AA@  100d9ee8     LIBCMT:getqloc.obj
 0002:00014ef0       ??_C@_05FFAC@Spain?$AA@    100d9ef0     LIBCMT:getqloc.obj
 0002:00014ef8       ??_C@_0BL@BIHM@Spanish?5?9?5Traditional?5Sort?$AA@ 100d9ef8     LIBCMT:getqloc.obj
 0002:00014f14       ??_C@_0O@GLHB@united?9states?$AA@ 100d9f14     LIBCMT:getqloc.obj
 0002:00014f24       ??_C@_0P@IIKK@united?9kingdom?$AA@ 100d9f24     LIBCMT:getqloc.obj
 0002:00014f34       ??_C@_0BC@FHBO@trinidad?5?$CG?5tobago?$AA@ 100d9f34     LIBCMT:getqloc.obj
 0002:00014f48       ??_C@_0M@BDFM@south?9korea?$AA@ 100d9f48     LIBCMT:getqloc.obj
 0002:00014f54       ??_C@_0N@CKFA@south?9africa?$AA@ 100d9f54     LIBCMT:getqloc.obj
 0002:00014f64       ??_C@_0M@HNHN@south?5korea?$AA@ 100d9f64     LIBCMT:getqloc.obj
 0002:00014f70       ??_C@_0N@MKDO@south?5africa?$AA@ 100d9f70     LIBCMT:getqloc.obj
 0002:00014f80       ??_C@_06KFFJ@slovak?$AA@   100d9f80     LIBCMT:getqloc.obj
 0002:00014f88       ??_C@_0M@NMAC@puerto?9rico?$AA@ 100d9f88     LIBCMT:getqloc.obj
 0002:00014f94       ??_C@_08EJOH@pr?9china?$AA@ 100d9f94     LIBCMT:getqloc.obj
 0002:00014fa0       ??_C@_08CHMG@pr?5china?$AA@ 100d9fa0     LIBCMT:getqloc.obj
 0002:00014fac       ??_C@_02OCJK@nz?$AA@       100d9fac     LIBCMT:getqloc.obj
 0002:00014fb0       ??_C@_0M@MMKA@new?9zealand?$AA@ 100d9fb0     LIBCMT:getqloc.obj
 0002:00014fbc       ??_C@_09MGEH@hong?9kong?$AA@ 100d9fbc     LIBCMT:getqloc.obj
 0002:00014fc8       ??_C@_07CCAK@holland?$AA@  100d9fc8     LIBCMT:getqloc.obj
 0002:00014fd0       ??_C@_0O@MEPL@great?5britain?$AA@ 100d9fd0     LIBCMT:getqloc.obj
 0002:00014fe0       ??_C@_07LGIB@england?$AA@  100d9fe0     LIBCMT:getqloc.obj
 0002:00014fe8       ??_C@_05BMOA@czech?$AA@    100d9fe8     LIBCMT:getqloc.obj
 0002:00014ff0       ??_C@_05NMPB@china?$AA@    100d9ff0     LIBCMT:getqloc.obj
 0002:00014ff8       ??_C@_07GN@britain?$AA@    100d9ff8     LIBCMT:getqloc.obj
 0002:00015000       ??_C@_07DLAK@america?$AA@  100da000     LIBCMT:getqloc.obj
 0002:00015008       ??_C@_03IPEP@usa?$AA@      100da008     LIBCMT:getqloc.obj
 0002:0001500c       ??_C@_02PILH@us?$AA@       100da00c     LIBCMT:getqloc.obj
 0002:00015010       ??_C@_02FHP@uk?$AA@        100da010     LIBCMT:getqloc.obj
 0002:00015014       ??_C@_05DEAI@swiss?$AA@    100da014     LIBCMT:getqloc.obj
 0002:0001501c       ??_C@_0BA@LIAF@swedish?9finland?$AA@ 100da01c     LIBCMT:getqloc.obj
 0002:0001502c       ??_C@_0BC@FMEG@spanish?9venezuela?$AA@ 100da02c     LIBCMT:getqloc.obj
 0002:00015040       ??_C@_0BA@BNMG@spanish?9uruguay?$AA@ 100da040     LIBCMT:getqloc.obj
 0002:00015050       ??_C@_0BE@BKDJ@spanish?9puerto?5rico?$AA@ 100da050     LIBCMT:getqloc.obj
 0002:00015064       ??_C@_0N@JIBL@spanish?9peru?$AA@ 100da064     LIBCMT:getqloc.obj
 0002:00015074       ??_C@_0BB@OGOF@spanish?9paraguay?$AA@ 100da074     LIBCMT:getqloc.obj
 0002:00015088       ??_C@_0P@LLFA@spanish?9panama?$AA@ 100da088     LIBCMT:getqloc.obj
 0002:00015098       ??_C@_0BC@BBJM@spanish?9nicaragua?$AA@ 100da098     LIBCMT:getqloc.obj
 0002:000150ac       ??_C@_0P@NJBN@spanish?9modern?$AA@ 100da0ac     LIBCMT:getqloc.obj
 0002:000150bc       ??_C@_0BA@NHDN@spanish?9mexican?$AA@ 100da0bc     LIBCMT:getqloc.obj
 0002:000150cc       ??_C@_0BB@JHOJ@spanish?9honduras?$AA@ 100da0cc     LIBCMT:getqloc.obj
 0002:000150e0       ??_C@_0BC@BOOM@spanish?9guatemala?$AA@ 100da0e0     LIBCMT:getqloc.obj
 0002:000150f4       ??_C@_0BE@EELI@spanish?9el?5salvador?$AA@ 100da0f4     LIBCMT:getqloc.obj
 0002:00015108       ??_C@_0BA@POAE@spanish?9ecuador?$AA@ 100da108     LIBCMT:getqloc.obj
 0002:00015118       ??_C@_0BL@LDKN@spanish?9dominican?5republic?$AA@ 100da118     LIBCMT:getqloc.obj
 0002:00015134       ??_C@_0BD@HPMH@spanish?9costa?5rica?$AA@ 100da134     LIBCMT:getqloc.obj
 0002:00015148       ??_C@_0BB@NDDK@spanish?9colombia?$AA@ 100da148     LIBCMT:getqloc.obj
 0002:0001515c       ??_C@_0O@BJHA@spanish?9chile?$AA@ 100da15c     LIBCMT:getqloc.obj
 0002:0001516c       ??_C@_0BA@OBNG@spanish?9bolivia?$AA@ 100da16c     LIBCMT:getqloc.obj
 0002:0001517c       ??_C@_0BC@EFAM@spanish?9argentina?$AA@ 100da17c     LIBCMT:getqloc.obj
 0002:00015190       ??_C@_0BF@KMMM@portuguese?9brazilian?$AA@ 100da190     LIBCMT:getqloc.obj
 0002:000151a8       ??_C@_0BC@BAAE@norwegian?9nynorsk?$AA@ 100da1a8     LIBCMT:getqloc.obj
 0002:000151bc       ??_C@_0BB@PBHK@norwegian?9bokmal?$AA@ 100da1bc     LIBCMT:getqloc.obj
 0002:000151d0       ??_C@_09EHKL@norwegian?$AA@ 100da1d0     LIBCMT:getqloc.obj
 0002:000151dc       ??_C@_0O@BEAN@italian?9swiss?$AA@ 100da1dc     LIBCMT:getqloc.obj
 0002:000151ec       ??_C@_0O@OIFK@irish?9english?$AA@ 100da1ec     LIBCMT:getqloc.obj
 0002:000151fc       ??_C@_0N@NBPL@german?9swiss?$AA@ 100da1fc     LIBCMT:getqloc.obj
 0002:0001520c       ??_C@_0BC@ICFJ@german?9luxembourg?$AA@ 100da20c     LIBCMT:getqloc.obj
 0002:00015220       ??_C@_0BE@GGPC@german?9lichtenstein?$AA@ 100da220     LIBCMT:getqloc.obj
 0002:00015234       ??_C@_0BA@MKDC@german?9austrian?$AA@ 100da234     LIBCMT:getqloc.obj
 0002:00015244       ??_C@_0N@ODNB@french?9swiss?$AA@ 100da244     LIBCMT:getqloc.obj
 0002:00015254       ??_C@_0BC@MGCM@french?9luxembourg?$AA@ 100da254     LIBCMT:getqloc.obj
 0002:00015268       ??_C@_0BA@NABK@french?9canadian?$AA@ 100da268     LIBCMT:getqloc.obj
 0002:00015278       ??_C@_0P@CJNO@french?9belgian?$AA@ 100da278     LIBCMT:getqloc.obj
 0002:00015288       ??_C@_0M@LJOL@english?9usa?$AA@ 100da288     LIBCMT:getqloc.obj
 0002:00015294       ??_C@_0L@FMNC@english?9us?$AA@ 100da294     LIBCMT:getqloc.obj
 0002:000152a0       ??_C@_0L@KBBK@english?9uk?$AA@ 100da2a0     LIBCMT:getqloc.obj
 0002:000152ac       ??_C@_0BK@NDDE@english?9trinidad?5y?5tobago?$AA@ 100da2ac     LIBCMT:getqloc.obj
 0002:000152c8       ??_C@_0BF@LKML@english?9south?5africa?$AA@ 100da2c8     LIBCMT:getqloc.obj
 0002:000152e0       ??_C@_0L@EGPP@english?9nz?$AA@ 100da2e0     LIBCMT:getqloc.obj
 0002:000152ec       ??_C@_0BA@HLH@english?9jamaica?$AA@ 100da2ec     LIBCMT:getqloc.obj
 0002:000152fc       ??_C@_0M@PMJI@english?9ire?$AA@ 100da2fc     LIBCMT:getqloc.obj
 0002:00015308       ??_C@_0BC@HINE@english?9caribbean?$AA@ 100da308     LIBCMT:getqloc.obj
 0002:0001531c       ??_C@_0M@DCFH@english?9can?$AA@ 100da31c     LIBCMT:getqloc.obj
 0002:00015328       ??_C@_0P@DGHK@english?9belize?$AA@ 100da328     LIBCMT:getqloc.obj
 0002:00015338       ??_C@_0M@FLHK@english?9aus?$AA@ 100da338     LIBCMT:getqloc.obj
 0002:00015344       ??_C@_0BB@HNCK@english?9american?$AA@ 100da344     LIBCMT:getqloc.obj
 0002:00015358       ??_C@_0O@PAMI@dutch?9belgian?$AA@ 100da358     LIBCMT:getqloc.obj
 0002:00015368       ??_C@_0BE@FPEJ@chinese?9traditional?$AA@ 100da368     LIBCMT:getqloc.obj
 0002:0001537c       ??_C@_0BC@CHFL@chinese?9singapore?$AA@ 100da37c     LIBCMT:getqloc.obj
 0002:00015390       ??_C@_0BD@DCMH@chinese?9simplified?$AA@ 100da390     LIBCMT:getqloc.obj
 0002:000153a4       ??_C@_0BB@JMOE@chinese?9hongkong?$AA@ 100da3a4     LIBCMT:getqloc.obj
 0002:000153b8       ??_C@_07NGFN@chinese?$AA@  100da3b8     LIBCMT:getqloc.obj
 0002:000153c0       ??_C@_03PCOI@chi?$AA@      100da3c0     LIBCMT:getqloc.obj
 0002:000153c4       ??_C@_03FIHP@chh?$AA@      100da3c4     LIBCMT:getqloc.obj
 0002:000153c8       ??_C@_08HFLO@canadian?$AA@ 100da3c8     LIBCMT:getqloc.obj
 0002:000153d4       ??_C@_07INIJ@belgian?$AA@  100da3d4     LIBCMT:getqloc.obj
 0002:000153dc       ??_C@_0L@LCCA@australian?$AA@ 100da3dc     LIBCMT:getqloc.obj
 0002:000153e8       ??_C@_0BB@BJIO@american?9english?$AA@ 100da3e8     LIBCMT:getqloc.obj
 0002:000153fc       ??_C@_0BB@DAGO@american?5english?$AA@ 100da3fc     LIBCMT:getqloc.obj
 0002:00015410       ??_C@_08HENB@american?$AA@ 100da410     LIBCMT:getqloc.obj
 0002:0001541c       ??_C@_03DGJE@OCP?$AA@      100da41c     LIBCMT:getqloc.obj
 0002:00015420       ??_C@_03EKFG@ACP?$AA@      100da420     LIBCMT:getqloc.obj
 0002:00015424       ??_C@_0BD@NJFP@GetLastActivePopup?$AA@ 100da424     LIBCMT:crtmbox.obj
 0002:00015438       ??_C@_0BA@GILI@GetActiveWindow?$AA@ 100da438     LIBCMT:crtmbox.obj
 0002:00015448       ??_C@_0M@PKCK@MessageBoxA?$AA@ 100da448     LIBCMT:crtmbox.obj
 0002:00015454       ??_C@_0L@HKL@user32?4dll?$AA@ 100da454     LIBCMT:crtmbox.obj
 0002:00015460       ??_C@_06PAPI@1?$CDQNAN?$AA@ 100da460     LIBCMT:x10fout.obj
 0002:00015468       ??_C@_05BGNL@1?$CDINF?$AA@ 100da468     LIBCMT:x10fout.obj
 0002:00015470       ??_C@_05EDPF@1?$CDIND?$AA@ 100da470     LIBCMT:x10fout.obj
 0002:00015478       ??_C@_06LKFM@1?$CDSNAN?$AA@ 100da478     LIBCMT:x10fout.obj
 0002:00015480       ??_C@_07CJME@H?3mm?3ss?$AA@ 100da480     LIBCMT:strftime.obj
 0002:00015488       ??_C@_0BE@MHI@dddd?0?5MMMM?5dd?0?5yyyy?$AA@ 100da488     LIBCMT:strftime.obj
 0002:0001549c       ??_C@_06HCAD@M?1d?1yy?$AA@ 100da49c     LIBCMT:strftime.obj
 0002:000154a4       ??_C@_02DBLP@PM?$AA@       100da4a4     LIBCMT:strftime.obj
 0002:000154a8       ??_C@_02ENLM@AM?$AA@       100da4a8     LIBCMT:strftime.obj
 0002:000154ac       ??_C@_08LIDF@December?$AA@ 100da4ac     LIBCMT:strftime.obj
 0002:000154b8       ??_C@_08NJLI@November?$AA@ 100da4b8     LIBCMT:strftime.obj
 0002:000154c4       ??_C@_07IAMM@October?$AA@  100da4c4     LIBCMT:strftime.obj
 0002:000154cc       ??_C@_09MKGD@September?$AA@ 100da4cc     LIBCMT:strftime.obj
 0002:000154d8       ??_C@_06PADP@August?$AA@   100da4d8     LIBCMT:strftime.obj
 0002:000154e0       ??_C@_04PIJO@July?$AA@     100da4e0     LIBCMT:strftime.obj
 0002:000154e8       ??_C@_04ICFP@June?$AA@     100da4e8     LIBCMT:strftime.obj
 0002:000154f0       ??_C@_05JFGC@April?$AA@    100da4f0     LIBCMT:strftime.obj
 0002:000154f8       ??_C@_05FGPD@March?$AA@    100da4f8     LIBCMT:strftime.obj
 0002:00015500       ??_C@_08PGBA@February?$AA@ 100da500     LIBCMT:strftime.obj
 0002:0001550c       ??_C@_07BPKJ@January?$AA@  100da50c     LIBCMT:strftime.obj
 0002:00015514       ??_C@_03PGJO@Dec?$AA@      100da514     LIBCMT:strftime.obj
 0002:00015518       ??_C@_03PDLM@Nov?$AA@      100da518     LIBCMT:strftime.obj
 0002:0001551c       ??_C@_03BLHK@Oct?$AA@      100da51c     LIBCMT:strftime.obj
 0002:00015520       ??_C@_03DPFM@Sep?$AA@      100da520     LIBCMT:strftime.obj
 0002:00015524       ??_C@_03CMCH@Aug?$AA@      100da524     LIBCMT:strftime.obj
 0002:00015528       ??_C@_03OBKI@Jul?$AA@      100da528     LIBCMT:strftime.obj
 0002:0001552c       ??_C@_03LEIG@Jun?$AA@      100da52c     LIBCMT:strftime.obj
 0002:00015530       ??_C@_03MGHB@May?$AA@      100da530     LIBCMT:strftime.obj
 0002:00015534       ??_C@_03MJJM@Apr?$AA@      100da534     LIBCMT:strftime.obj
 0002:00015538       ??_C@_03GNHA@Mar?$AA@      100da538     LIBCMT:strftime.obj
 0002:0001553c       ??_C@_03PICE@Feb?$AA@      100da53c     LIBCMT:strftime.obj
 0002:00015540       ??_C@_03IEIF@Jan?$AA@      100da540     LIBCMT:strftime.obj
 0002:00015544       ??_C@_08FAKH@Saturday?$AA@ 100da544     LIBCMT:strftime.obj
 0002:00015550       ??_C@_06ONCK@Friday?$AA@   100da550     LIBCMT:strftime.obj
 0002:00015558       ??_C@_08CCFO@Thursday?$AA@ 100da558     LIBCMT:strftime.obj
 0002:00015564       ??_C@_09PBIN@Wednesday?$AA@ 100da564     LIBCMT:strftime.obj
 0002:00015570       ??_C@_07BMBC@Tuesday?$AA@  100da570     LIBCMT:strftime.obj
 0002:00015578       ??_C@_06CHLK@Monday?$AA@   100da578     LIBCMT:strftime.obj
 0002:00015580       ??_C@_06OOEM@Sunday?$AA@   100da580     LIBCMT:strftime.obj
 0002:00015588       ??_C@_03MPKK@Sat?$AA@      100da588     LIBCMT:strftime.obj
 0002:0001558c       ??_C@_03FINJ@Fri?$AA@      100da58c     LIBCMT:strftime.obj
 0002:00015590       ??_C@_03HIKC@Thu?$AA@      100da590     LIBCMT:strftime.obj
 0002:00015594       ??_C@_03HECK@Wed?$AA@      100da594     LIBCMT:strftime.obj
 0002:00015598       ??_C@_03ECCP@Tue?$AA@      100da598     LIBCMT:strftime.obj
 0002:0001559c       ??_C@_03PIEP@Mon?$AA@      100da59c     LIBCMT:strftime.obj
 0002:000155a0       ??_C@_03FHEP@Sun?$AA@      100da5a0     LIBCMT:strftime.obj
 0002:000155a4       ??_C@_03MKGK@a?1p?$AA@     100da5a4     LIBCMT:strftime.obj
 0002:000155a8       ??_C@_05BDJK@am?1pm?$AA@   100da5a8     LIBCMT:strftime.obj
 0002:000155fc       __IMPORT_DESCRIPTOR_KERNEL32 100da5fc     kernel32:KERNEL32.dll
 0002:00015610       __NULL_IMPORT_DESCRIPTOR   100da610     kernel32:KERNEL32.dll
 0003:00000000       ___xc_a                    100e0000     LIBCMT:crt0init.obj
 0003:00000038       ___xc_z                    100e0038     LIBCMT:crt0init.obj
 0003:0000003c       ___xi_a                    100e003c     LIBCMT:crt0init.obj
 0003:0000004c       ___xi_z                    100e004c     LIBCMT:crt0init.obj
 0003:00000050       ___xp_a                    100e0050     LIBCMT:crt0init.obj
 0003:00000058       ___xp_z                    100e0058     LIBCMT:crt0init.obj
 0003:0000005c       ___xt_a                    100e005c     LIBCMT:crt0init.obj
 0003:00000060       ___xt_z                    100e0060     LIBCMT:crt0init.obj
 0003:00000070       ?m_SaveData@CFlockingFlyerFlock@@2PAUTYPEDESCRIPTION@@A 100e0070     aflock.obj
 0003:00000090       ?m_SaveData@CFlockingFlyer@@2PAUTYPEDESCRIPTION@@A 100e0090     aflock.obj
 0003:00000390       ?m_SaveData@CAGrunt@@2PAUTYPEDESCRIPTION@@A 100e0390     agrunt.obj
 0003:000003f0       ?pAttackHitSounds@CAGrunt@@2PAPBDA 100e03f0     agrunt.obj
 0003:000003fc       ?pAttackMissSounds@CAGrunt@@2PAPBDA 100e03fc     agrunt.obj
 0003:00000404       ?pAttackSounds@CAGrunt@@2PAPBDA 100e0404     agrunt.obj
 0003:00000410       ?pDieSounds@CAGrunt@@2PAPBDA 100e0410     agrunt.obj
 0003:0000041c       ?pPainSounds@CAGrunt@@2PAPBDA 100e041c     agrunt.obj
 0003:00000430       ?pIdleSounds@CAGrunt@@2PAPBDA 100e0430     agrunt.obj
 0003:00000440       ?pAlertSounds@CAGrunt@@2PAPBDA 100e0440     agrunt.obj
 0003:00000450       ?tlAGruntFail@@3PAUTask_t@@A 100e0450     agrunt.obj
 0003:00000470       ?slAGruntFail@@3PAUSchedule_t@@A 100e0470     agrunt.obj
 0003:00000488       ?tlAGruntCombatFail@@3PAUTask_t@@A 100e0488     agrunt.obj
 0003:000004a8       ?slAGruntCombatFail@@3PAUSchedule_t@@A 100e04a8     agrunt.obj
 0003:000004c0       ?tlAGruntStandoff@@3PAUTask_t@@A 100e04c0     agrunt.obj
 0003:000004d8       ?slAGruntStandoff@@3PAUSchedule_t@@A 100e04d8     agrunt.obj
 0003:000004f0       ?tlAGruntSuppressHornet@@3PAUTask_t@@A 100e04f0     agrunt.obj
 0003:00000500       ?slAGruntSuppress@@3PAUSchedule_t@@A 100e0500     agrunt.obj
 0003:00000518       ?tlAGruntRangeAttack1@@3PAUTask_t@@A 100e0518     agrunt.obj
 0003:00000530       ?slAGruntRangeAttack1@@3PAUSchedule_t@@A 100e0530     agrunt.obj
 0003:00000548       ?tlAGruntHiddenRangeAttack1@@3PAUTask_t@@A 100e0548     agrunt.obj
 0003:00000570       ?slAGruntHiddenRangeAttack@@3PAUSchedule_t@@A 100e0570     agrunt.obj
 0003:00000588       ?tlAGruntTakeCoverFromEnemy@@3PAUTask_t@@A 100e0588     agrunt.obj
 0003:000005c0       ?slAGruntTakeCoverFromEnemy@@3PAUSchedule_t@@A 100e05c0     agrunt.obj
 0003:000005d8       ?tlAGruntVictoryDance@@3PAUTask_t@@A 100e05d8     agrunt.obj
 0003:00000670       ?slAGruntVictoryDance@@3PAUSchedule_t@@A 100e0670     agrunt.obj
 0003:00000688       ?tlAGruntThreatDisplay@@3PAUTask_t@@A 100e0688     agrunt.obj
 0003:000006a0       ?slAGruntThreatDisplay@@3PAUSchedule_t@@A 100e06a0     agrunt.obj
 0003:000006b4       ?m_scheduleList@CAGrunt@@2PAPAUSchedule_t@@A 100e06b4     agrunt.obj
 0003:00000b90       ?m_SaveData@CAirtank@@0PAUTYPEDESCRIPTION@@A 100e0b90     airtank.obj
 0003:00000c30       ?m_SaveData@CBaseAnimating@@2PAUTYPEDESCRIPTION@@A 100e0c30     animating.obj
 0003:00000d20       ?activity_map@@3PAUactivity_map_t@@A 100e0d20     animation.obj
 0003:000014b0       ?m_SaveData@CApache@@0PAUTYPEDESCRIPTION@@A 100e14b0     apache.obj
 0003:00001598       ?m_SaveData@CApacheHVR@@0PAUTYPEDESCRIPTION@@A 100e1598     apache.obj
 0003:000018e0       ?m_SaveData@CBarnacle@@2PAUTYPEDESCRIPTION@@A 100e18e0     barnacle.obj
 0003:00001b80       ?m_SaveData@CBarney@@2PAUTYPEDESCRIPTION@@A 100e1b80     barney.obj
 0003:00001bd0       ?tlBaFollow@@3PAUTask_t@@A 100e1bd0     barney.obj
 0003:00001be0       ?slBaFollow@@3PAUSchedule_t@@A 100e1be0     barney.obj
 0003:00001bf8       ?tlBarneyEnemyDraw@@3PAUTask_t@@A 100e1bf8     barney.obj
 0003:00001c10       ?slBarneyEnemyDraw@@3PAUSchedule_t@@A 100e1c10     barney.obj
 0003:00001c28       ?tlBaFaceTarget@@3PAUTask_t@@A 100e1c28     barney.obj
 0003:00001c48       ?slBaFaceTarget@@3PAUSchedule_t@@A 100e1c48     barney.obj
 0003:00001c60       ?tlIdleBaStand@@3PAUTask_t@@A 100e1c60     barney.obj
 0003:00001c80       ?slIdleBaStand@@3PAUSchedule_t@@A 100e1c80     barney.obj
 0003:00001c94       ?m_scheduleList@CBarney@@2PAPAUSchedule_t@@A 100e1c94     barney.obj
 0003:00001ca4       ?m_szPoses@CDeadBarney@@2PAPADA 100e1ca4     barney.obj
 0003:00002020       ?m_SaveData@CInfoBM@@2PAUTYPEDESCRIPTION@@A 100e2020     bigmomma.obj
 0003:00002030       ?m_SaveData@CBMortar@@2PAUTYPEDESCRIPTION@@A 100e2030     bigmomma.obj
 0003:00002040       ?m_SaveData@CBigMomma@@2PAUTYPEDESCRIPTION@@A 100e2040     bigmomma.obj
 0003:00002090       ?pChildDieSounds@CBigMomma@@2PAPBDA 100e2090     bigmomma.obj
 0003:0000209c       ?pSackSounds@CBigMomma@@2PAPBDA 100e209c     bigmomma.obj
 0003:000020a8       ?pDeathSounds@CBigMomma@@2PAPBDA 100e20a8     bigmomma.obj
 0003:000020ac       ?pAttackSounds@CBigMomma@@2PAPBDA 100e20ac     bigmomma.obj
 0003:000020b8       ?pAttackHitSounds@CBigMomma@@2PAPBDA 100e20b8     bigmomma.obj
 0003:000020c4       ?pBirthSounds@CBigMomma@@2PAPBDA 100e20c4     bigmomma.obj
 0003:000020d0       ?pAlertSounds@CBigMomma@@2PAPBDA 100e20d0     bigmomma.obj
 0003:000020dc       ?pPainSounds@CBigMomma@@2PAPBDA 100e20dc     bigmomma.obj
 0003:000020e8       ?pFootSounds@CBigMomma@@2PAPBDA 100e20e8     bigmomma.obj
 0003:000020f8       ?tlBigNode@@3PAUTask_t@@A  100e20f8     bigmomma.obj
 0003:00002158       ?slBigNode@@3PAUSchedule_t@@A 100e2158     bigmomma.obj
 0003:00002170       ?tlNodeFail@@3PAUTask_t@@A 100e2170     bigmomma.obj
 0003:00002180       ?slNodeFail@@3PAUSchedule_t@@A 100e2180     bigmomma.obj
 0003:00002194       ?m_scheduleList@CBigMomma@@2PAPAUSchedule_t@@A 100e2194     bigmomma.obj
 0003:0000278c       ??_C@_0L@PMO@targetname?$AA@ 100e278c     bigmomma.obj
 0003:000027c0       ?m_SaveData@CFuncRotating@@2PAUTYPEDESCRIPTION@@A 100e27c0     bmodels.obj
 0003:00002810       ?m_SaveData@CPendulum@@2PAUTYPEDESCRIPTION@@A 100e2810     bmodels.obj
 0003:00002a70       ?m_SaveData@CSquidSpit@@2PAUTYPEDESCRIPTION@@A 100e2a70     bullsquid.obj
 0003:00002a80       ?m_SaveData@CBullsquid@@2PAUTYPEDESCRIPTION@@A 100e2a80     bullsquid.obj
 0003:00002ab8       ?tlSquidRangeAttack1@@3PAUTask_t@@A 100e2ab8     bullsquid.obj
 0003:00002ad8       ?slSquidRangeAttack1@@3PAUSchedule_t@@A 100e2ad8     bullsquid.obj
 0003:00002af0       ?tlSquidChaseEnemy1@@3PAUTask_t@@A 100e2af0     bullsquid.obj
 0003:00002b10       ?slSquidChaseEnemy@@3PAUSchedule_t@@A 100e2b10     bullsquid.obj
 0003:00002b28       ?tlSquidHurtHop@@3PAUTask_t@@A 100e2b28     bullsquid.obj
 0003:00002b48       ?slSquidHurtHop@@3PAUSchedule_t@@A 100e2b48     bullsquid.obj
 0003:00002b60       ?tlSquidSeeCrab@@3PAUTask_t@@A 100e2b60     bullsquid.obj
 0003:00002b80       ?slSquidSeeCrab@@3PAUSchedule_t@@A 100e2b80     bullsquid.obj
 0003:00002b98       ?tlSquidEat@@3PAUTask_t@@A 100e2b98     bullsquid.obj
 0003:00002c08       ?slSquidEat@@3PAUSchedule_t@@A 100e2c08     bullsquid.obj
 0003:00002c20       ?tlSquidSniffAndEat@@3PAUTask_t@@A 100e2c20     bullsquid.obj
 0003:00002c98       ?slSquidSniffAndEat@@3PAUSchedule_t@@A 100e2c98     bullsquid.obj
 0003:00002cb0       ?tlSquidWallow@@3PAUTask_t@@A 100e2cb0     bullsquid.obj
 0003:00002d10       ?slSquidWallow@@3PAUSchedule_t@@A 100e2d10     bullsquid.obj
 0003:00002d24       ?m_scheduleList@CBullsquid@@2PAPAUSchedule_t@@A 100e2d24     bullsquid.obj
 0003:00003450       ?m_SaveData@CEnvGlobal@@2PAUTYPEDESCRIPTION@@A 100e3450     buttons.obj
 0003:00003480       ?m_SaveData@CMultiSource@@2PAUTYPEDESCRIPTION@@A 100e3480     buttons.obj
 0003:000034c0       ?m_SaveData@CBaseButton@@2PAUTYPEDESCRIPTION@@A 100e34c0     buttons.obj
 0003:00003540       ?m_SaveData@CMomentaryRotButton@@2PAUTYPEDESCRIPTION@@A 100e3540     buttons.obj
 0003:000035a0       ?m_SaveData@CEnvSpark@@2PAUTYPEDESCRIPTION@@A 100e35a0     buttons.obj
 0003:00003db8       ?m_SaveData@CBaseEntity@@2PAUTYPEDESCRIPTION@@A 100e3db8     cbase.obj
 0003:000040b8       ?custom_entity_field_alias@@3PAUentity_field_alias_t@@A 100e40b8     client.obj
 0003:00004c90       ?m_SaveData@CController@@2PAUTYPEDESCRIPTION@@A 100e4c90     controller.obj
 0003:00004ce0       ?pAttackSounds@CController@@2PAPBDA 100e4ce0     controller.obj
 0003:00004cec       ?pIdleSounds@CController@@2PAPBDA 100e4cec     controller.obj
 0003:00004d00       ?pAlertSounds@CController@@2PAPBDA 100e4d00     controller.obj
 0003:00004d0c       ?pPainSounds@CController@@2PAPBDA 100e4d0c     controller.obj
 0003:00004d18       ?pDeathSounds@CController@@2PAPBDA 100e4d18     controller.obj
 0003:00004d20       ?tlControllerChaseEnemy@@3PAUTask_t@@A 100e4d20     controller.obj
 0003:00004d30       ?slControllerChaseEnemy@@3PAUSchedule_t@@A 100e4d30     controller.obj
 0003:00004d48       ?tlControllerStrafe@@3PAUTask_t@@A 100e4d48     controller.obj
 0003:00004d68       ?slControllerStrafe@@3PAUSchedule_t@@A 100e4d68     controller.obj
 0003:00004d80       ?tlControllerTakeCover@@3PAUTask_t@@A 100e4d80     controller.obj
 0003:00004da0       ?slControllerTakeCover@@3PAUSchedule_t@@A 100e4da0     controller.obj
 0003:00004db8       ?tlControllerFail@@3PAUTask_t@@A 100e4db8     controller.obj
 0003:00004dd8       ?slControllerFail@@3PAUSchedule_t@@A 100e4dd8     controller.obj
 0003:00004dec       ?m_scheduleList@CController@@2PAPAUSchedule_t@@A 100e4dec     controller.obj
 0003:00005278       ?m_SaveData@CCrossbowBolt@@0PAUTYPEDESCRIPTION@@A 100e5278     crossbow.obj
 0003:00005560       ??_C@_0BL@JCJE@models?1w_crossbow_clip?4mdl?$AA@ 100e5560     crossbow.obj
 0003:0000557c       ??_C@_0BD@DCKL@items?19mmclip1?4wav?$AA@ 100e557c     crossbow.obj
 0003:00005590       ??_C@_05JCNA@bolts?$AA@    100e5590     crossbow.obj
 0003:00005768       ?tlFail@@3PAUTask_t@@A     100e5768     defaultai.obj
 0003:00005788       ?slFail@@3PAUSchedule_t@@A 100e5788     defaultai.obj
 0003:000057a0       ?tlIdleStand1@@3PAUTask_t@@A 100e57a0     defaultai.obj
 0003:000057b8       ?slIdleStand@@3PAUSchedule_t@@A 100e57b8     defaultai.obj
 0003:000057d0       ?slIdleTrigger@@3PAUSchedule_t@@A 100e57d0     defaultai.obj
 0003:000057e8       ?tlIdleWalk1@@3PAUTask_t@@A 100e57e8     defaultai.obj
 0003:000057f8       ?slIdleWalk@@3PAUSchedule_t@@A 100e57f8     defaultai.obj
 0003:00005810       ?tlAmbush@@3PAUTask_t@@A   100e5810     defaultai.obj
 0003:00005828       ?slAmbush@@3PAUSchedule_t@@A 100e5828     defaultai.obj
 0003:00005840       ?tlActiveIdle@@3PAUTask_t@@A 100e5840     defaultai.obj
 0003:000058a0       ?slActiveIdle@@3PAUSchedule_t@@A 100e58a0     defaultai.obj
 0003:000058b8       ?tlWakeAngry1@@3PAUTask_t@@A 100e58b8     defaultai.obj
 0003:000058d8       ?slWakeAngry@@3PAUSchedule_t@@A 100e58d8     defaultai.obj
 0003:000058f0       ?tlAlertFace1@@3PAUTask_t@@A 100e58f0     defaultai.obj
 0003:00005908       ?slAlertFace@@3PAUSchedule_t@@A 100e5908     defaultai.obj
 0003:00005920       ?tlAlertSmallFlinch@@3PAUTask_t@@A 100e5920     defaultai.obj
 0003:00005940       ?slAlertSmallFlinch@@3PAUSchedule_t@@A 100e5940     defaultai.obj
 0003:00005958       ?tlAlertStand1@@3PAUTask_t@@A 100e5958     defaultai.obj
 0003:00005978       ?slAlertStand@@3PAUSchedule_t@@A 100e5978     defaultai.obj
 0003:00005990       ?tlInvestigateSound@@3PAUTask_t@@A 100e5990     defaultai.obj
 0003:000059f0       ?slInvestigateSound@@3PAUSchedule_t@@A 100e59f0     defaultai.obj
 0003:00005a08       ?tlCombatStand1@@3PAUTask_t@@A 100e5a08     defaultai.obj
 0003:00005a20       ?slCombatStand@@3PAUSchedule_t@@A 100e5a20     defaultai.obj
 0003:00005a38       ?tlCombatFace1@@3PAUTask_t@@A 100e5a38     defaultai.obj
 0003:00005a50       ?slCombatFace@@3PAUSchedule_t@@A 100e5a50     defaultai.obj
 0003:00005a68       ?tlStandoff@@3PAUTask_t@@A 100e5a68     defaultai.obj
 0003:00005a80       ?slStandoff@@3PAUSchedule_t@@A 100e5a80     defaultai.obj
 0003:00005a98       ?tlArmWeapon@@3PAUTask_t@@A 100e5a98     defaultai.obj
 0003:00005aa8       ?slArmWeapon@@3PAUSchedule_t@@A 100e5aa8     defaultai.obj
 0003:00005ac0       ?tlReload@@3PAUTask_t@@A   100e5ac0     defaultai.obj
 0003:00005ad0       ?slReload@@3PAUSchedule_t@@A 100e5ad0     defaultai.obj
 0003:00005ae8       ?tlRangeAttack1@@3PAUTask_t@@A 100e5ae8     defaultai.obj
 0003:00005b00       ?slRangeAttack1@@3PAUSchedule_t@@A 100e5b00     defaultai.obj
 0003:00005b18       ?tlRangeAttack2@@3PAUTask_t@@A 100e5b18     defaultai.obj
 0003:00005b30       ?slRangeAttack2@@3PAUSchedule_t@@A 100e5b30     defaultai.obj
 0003:00005b48       ?tlPrimaryMeleeAttack1@@3PAUTask_t@@A 100e5b48     defaultai.obj
 0003:00005b60       ?slPrimaryMeleeAttack@@3PAUSchedule_t@@A 100e5b60     defaultai.obj
 0003:00005b78       ?tlSecondaryMeleeAttack1@@3PAUTask_t@@A 100e5b78     defaultai.obj
 0003:00005b90       ?slSecondaryMeleeAttack@@3PAUSchedule_t@@A 100e5b90     defaultai.obj
 0003:00005ba8       ?tlSpecialAttack1@@3PAUTask_t@@A 100e5ba8     defaultai.obj
 0003:00005bc0       ?slSpecialAttack1@@3PAUSchedule_t@@A 100e5bc0     defaultai.obj
 0003:00005bd8       ?tlSpecialAttack2@@3PAUTask_t@@A 100e5bd8     defaultai.obj
 0003:00005bf0       ?slSpecialAttack2@@3PAUSchedule_t@@A 100e5bf0     defaultai.obj
 0003:00005c08       ?tlChaseEnemy1@@3PAUTask_t@@A 100e5c08     defaultai.obj
 0003:00005c28       ?slChaseEnemy@@3PAUSchedule_t@@A 100e5c28     defaultai.obj
 0003:00005c40       ?tlChaseEnemyFailed@@3PAUTask_t@@A 100e5c40     defaultai.obj
 0003:00005c80       ?slChaseEnemyFailed@@3PAUSchedule_t@@A 100e5c80     defaultai.obj
 0003:00005c98       ?tlSmallFlinch@@3PAUTask_t@@A 100e5c98     defaultai.obj
 0003:00005cb0       ?slSmallFlinch@@3PAUSchedule_t@@A 100e5cb0     defaultai.obj
 0003:00005cc8       ?tlDie1@@3PAUTask_t@@A     100e5cc8     defaultai.obj
 0003:00005ce0       ?slDie@@3PAUSchedule_t@@A  100e5ce0     defaultai.obj
 0003:00005cf8       ?tlVictoryDance@@3PAUTask_t@@A 100e5cf8     defaultai.obj
 0003:00005d10       ?slVictoryDance@@3PAUSchedule_t@@A 100e5d10     defaultai.obj
 0003:00005d28       ?tlBarnacleVictimGrab@@3PAUTask_t@@A 100e5d28     defaultai.obj
 0003:00005d48       ?slBarnacleVictimGrab@@3PAUSchedule_t@@A 100e5d48     defaultai.obj
 0003:00005d60       ?tlBarnacleVictimChomp@@3PAUTask_t@@A 100e5d60     defaultai.obj
 0003:00005d80       ?slBarnacleVictimChomp@@3PAUSchedule_t@@A 100e5d80     defaultai.obj
 0003:00005d98       ?tlError@@3PAUTask_t@@A    100e5d98     defaultai.obj
 0003:00005da8       ?slError@@3PAUSchedule_t@@A 100e5da8     defaultai.obj
 0003:00005dc0       ?tlScriptedWalk@@3PAUTask_t@@A 100e5dc0     defaultai.obj
 0003:00005e00       ?slWalkToScript@@3PAUSchedule_t@@A 100e5e00     defaultai.obj
 0003:00005e18       ?tlScriptedRun@@3PAUTask_t@@A 100e5e18     defaultai.obj
 0003:00005e58       ?slRunToScript@@3PAUSchedule_t@@A 100e5e58     defaultai.obj
 0003:00005e70       ?tlScriptedWait@@3PAUTask_t@@A 100e5e70     defaultai.obj
 0003:00005e88       ?slWaitScript@@3PAUSchedule_t@@A 100e5e88     defaultai.obj
 0003:00005ea0       ?tlScriptedFace@@3PAUTask_t@@A 100e5ea0     defaultai.obj
 0003:00005ec8       ?slFaceScript@@3PAUSchedule_t@@A 100e5ec8     defaultai.obj
 0003:00005ee0       ?tlCower@@3PAUTask_t@@A    100e5ee0     defaultai.obj
 0003:00005ef0       ?slCower@@3PAUSchedule_t@@A 100e5ef0     defaultai.obj
 0003:00005f08       ?tlTakeCoverFromOrigin@@3PAUTask_t@@A 100e5f08     defaultai.obj
 0003:00005f38       ?slTakeCoverFromOrigin@@3PAUSchedule_t@@A 100e5f38     defaultai.obj
 0003:00005f50       ?tlTakeCoverFromBestSound@@3PAUTask_t@@A 100e5f50     defaultai.obj
 0003:00005f80       ?slTakeCoverFromBestSound@@3PAUSchedule_t@@A 100e5f80     defaultai.obj
 0003:00005f98       ?tlTakeCoverFromEnemy@@3PAUTask_t@@A 100e5f98     defaultai.obj
 0003:00005fd8       ?slTakeCoverFromEnemy@@3PAUSchedule_t@@A 100e5fd8     defaultai.obj
 0003:00005fec       ?m_scheduleList@CBaseMonster@@2PAPAUSchedule_t@@A 100e5fec     defaultai.obj
 0003:00006330       ?m_SaveData@CBaseDoor@@2PAUTYPEDESCRIPTION@@A 100e6330     doors.obj
 0003:000063a0       ?m_SaveData@CMomentaryDoor@@2PAUTYPEDESCRIPTION@@A 100e63a0     doors.obj
 0003:00006a30       ?m_SaveData@CBubbling@@2PAUTYPEDESCRIPTION@@A 100e6a30     effects.obj
 0003:00006a60       ?m_SaveData@CLightning@@2PAUTYPEDESCRIPTION@@A 100e6a60     effects.obj
 0003:00006b30       ?m_SaveData@CLaser@@2PAUTYPEDESCRIPTION@@A 100e6b30     effects.obj
 0003:00006b60       ?m_SaveData@CGlow@@2PAUTYPEDESCRIPTION@@A 100e6b60     effects.obj
 0003:00006b80       ?m_SaveData@CSprite@@2PAUTYPEDESCRIPTION@@A 100e6b80     effects.obj
 0003:00006ba0       ?m_SaveData@CGibShooter@@2PAUTYPEDESCRIPTION@@A 100e6ba0     effects.obj
 0003:00007324       ??_C@_0BH@FNIA@models?1w_chainammo?4mdl?$AA@ 100e7324     egon.obj
 0003:0000733c       ??_C@_07POLL@uranium?$AA@  100e733c     egon.obj
 0003:00007348       ?m_SaveData@CEnvExplosion@@2PAUTYPEDESCRIPTION@@A 100e7348     explode.obj
 0003:00007428       ?pSpawnObjects@CBreakable@@2PAPBDA 100e7428     func_break.obj
 0003:00007480       ?m_SaveData@CBreakable@@2PAUTYPEDESCRIPTION@@A 100e7480     func_break.obj
 0003:000074d0       ?pSoundsWood@CBreakable@@2PAPBDA 100e74d0     func_break.obj
 0003:000074dc       ?pSoundsFlesh@CBreakable@@2PAPBDA 100e74dc     func_break.obj
 0003:000074f4       ?pSoundsMetal@CBreakable@@2PAPBDA 100e74f4     func_break.obj
 0003:00007500       ?pSoundsConcrete@CBreakable@@2PAPBDA 100e7500     func_break.obj
 0003:0000750c       ?pSoundsGlass@CBreakable@@2PAPBDA 100e750c     func_break.obj
 0003:00007518       ?m_SaveData@CPushable@@2PAUTYPEDESCRIPTION@@A 100e7518     func_break.obj
 0003:00007538       ?m_soundNames@CPushable@@2PAPADA 100e7538     func_break.obj
 0003:00007e68       ?m_SaveData@CFuncTank@@2PAUTYPEDESCRIPTION@@A 100e7e68     func_tank.obj
 0003:00008008       ?m_SaveData@CFuncTankLaser@@2PAUTYPEDESCRIPTION@@A 100e8008     func_tank.obj
 0003:00008028       ?m_SaveData@CFuncTankControls@@2PAUTYPEDESCRIPTION@@A 100e8028     func_tank.obj
 0003:000083c8       ?displaysoundlist@@3Ucvar_s@@A 100e83c8     game.obj
 0003:000083e0       ?fragsleft@@3Ucvar_s@@A    100e83e0     game.obj
 0003:000083f8       ?timeleft@@3Ucvar_s@@A     100e83f8     game.obj
 0003:00008410       ?teamplay@@3Ucvar_s@@A     100e8410     game.obj
 0003:00008428       ?fraglimit@@3Ucvar_s@@A    100e8428     game.obj
 0003:00008440       ?timelimit@@3Ucvar_s@@A    100e8440     game.obj
 0003:00008458       ?friendlyfire@@3Ucvar_s@@A 100e8458     game.obj
 0003:00008470       ?falldamage@@3Ucvar_s@@A   100e8470     game.obj
 0003:00008488       ?weaponstay@@3Ucvar_s@@A   100e8488     game.obj
 0003:000084a0       ?forcerespawn@@3Ucvar_s@@A 100e84a0     game.obj
 0003:000084b8       ?flashlight@@3Ucvar_s@@A   100e84b8     game.obj
 0003:000084d0       ?aimcrosshair@@3Ucvar_s@@A 100e84d0     game.obj
 0003:000084e8       ?decalfrequency@@3Ucvar_s@@A 100e84e8     game.obj
 0003:00008500       ?teamlist@@3Ucvar_s@@A     100e8500     game.obj
 0003:00008518       ?teamoverride@@3Ucvar_s@@A 100e8518     game.obj
 0003:00008530       ?defaultteam@@3Ucvar_s@@A  100e8530     game.obj
 0003:00008548       ?allowmonsters@@3Ucvar_s@@A 100e8548     game.obj
 0003:00008560       ?mp_chattime@@3Ucvar_s@@A  100e8560     game.obj
 0003:00008578       ?autorecord@@3Ucvar_s@@A   100e8578     game.obj
 0003:00008590       ?autosave@@3Ucvar_s@@A     100e8590     game.obj
 0003:000085a8       ?jumpvelocity@@3Ucvar_s@@A 100e85a8     game.obj
 0003:000085c0       ?sethealth@@3Ucvar_s@@A    100e85c0     game.obj
 0003:000085d8       ?setbattery@@3Ucvar_s@@A   100e85d8     game.obj
 0003:000085f0       ?sv_trigger_alpha@@3Ucvar_s@@A 100e85f0     game.obj
 0003:00008608       ?sv_trigger_changelevel_display@@3Ucvar_s@@A 100e8608     game.obj
 0003:00008620       ?sv_trigger_changelevel_color@@3Ucvar_s@@A 100e8620     game.obj
 0003:00008638       ?sv_trigger_transition_display@@3Ucvar_s@@A 100e8638     game.obj
 0003:00008650       ?sv_trigger_transition_color@@3Ucvar_s@@A 100e8650     game.obj
 0003:00008668       ?sv_trigger_hurt_display@@3Ucvar_s@@A 100e8668     game.obj
 0003:00008680       ?sv_trigger_hurt_color@@3Ucvar_s@@A 100e8680     game.obj
 0003:00008698       ?sv_trigger_push_display@@3Ucvar_s@@A 100e8698     game.obj
 0003:000086b0       ?sv_trigger_push_color@@3Ucvar_s@@A 100e86b0     game.obj
 0003:000086c8       ?sv_trigger_once_display@@3Ucvar_s@@A 100e86c8     game.obj
 0003:000086e0       ?sv_trigger_once_color@@3Ucvar_s@@A 100e86e0     game.obj
 0003:000086f8       ?sv_trigger_multiple_display@@3Ucvar_s@@A 100e86f8     game.obj
 0003:00008710       ?sv_trigger_multiple_color@@3Ucvar_s@@A 100e8710     game.obj
 0003:00008728       ?sv_trigger_teleport_display@@3Ucvar_s@@A 100e8728     game.obj
 0003:00008740       ?sv_trigger_teleport_color@@3Ucvar_s@@A 100e8740     game.obj
 0003:00008758       ?sv_info_landmark_display@@3Ucvar_s@@A 100e8758     game.obj
 0003:00008770       ?sv_info_landmark_model@@3Ucvar_s@@A 100e8770     game.obj
 0003:00008788       ?sv_explosion_display@@3Ucvar_s@@A 100e8788     game.obj
 0003:000087a0       ?sk_agrunt_health1@@3Ucvar_s@@A 100e87a0     game.obj
 0003:000087b8       ?sk_agrunt_health2@@3Ucvar_s@@A 100e87b8     game.obj
 0003:000087d0       ?sk_agrunt_health3@@3Ucvar_s@@A 100e87d0     game.obj
 0003:000087e8       ?sk_agrunt_dmg_punch1@@3Ucvar_s@@A 100e87e8     game.obj
 0003:00008800       ?sk_agrunt_dmg_punch2@@3Ucvar_s@@A 100e8800     game.obj
 0003:00008818       ?sk_agrunt_dmg_punch3@@3Ucvar_s@@A 100e8818     game.obj
 0003:00008830       ?sk_apache_health1@@3Ucvar_s@@A 100e8830     game.obj
 0003:00008848       ?sk_apache_health2@@3Ucvar_s@@A 100e8848     game.obj
 0003:00008860       ?sk_apache_health3@@3Ucvar_s@@A 100e8860     game.obj
 0003:00008878       ?sk_barney_health1@@3Ucvar_s@@A 100e8878     game.obj
 0003:00008890       ?sk_barney_health2@@3Ucvar_s@@A 100e8890     game.obj
 0003:000088a8       ?sk_barney_health3@@3Ucvar_s@@A 100e88a8     game.obj
 0003:000088c0       ?sk_bullsquid_health1@@3Ucvar_s@@A 100e88c0     game.obj
 0003:000088d8       ?sk_bullsquid_health2@@3Ucvar_s@@A 100e88d8     game.obj
 0003:000088f0       ?sk_bullsquid_health3@@3Ucvar_s@@A 100e88f0     game.obj
 0003:00008908       ?sk_bullsquid_dmg_bite1@@3Ucvar_s@@A 100e8908     game.obj
 0003:00008920       ?sk_bullsquid_dmg_bite2@@3Ucvar_s@@A 100e8920     game.obj
 0003:00008938       ?sk_bullsquid_dmg_bite3@@3Ucvar_s@@A 100e8938     game.obj
 0003:00008950       ?sk_bullsquid_dmg_whip1@@3Ucvar_s@@A 100e8950     game.obj
 0003:00008968       ?sk_bullsquid_dmg_whip2@@3Ucvar_s@@A 100e8968     game.obj
 0003:00008980       ?sk_bullsquid_dmg_whip3@@3Ucvar_s@@A 100e8980     game.obj
 0003:00008998       ?sk_bullsquid_dmg_spit1@@3Ucvar_s@@A 100e8998     game.obj
 0003:000089b0       ?sk_bullsquid_dmg_spit2@@3Ucvar_s@@A 100e89b0     game.obj
 0003:000089c8       ?sk_bullsquid_dmg_spit3@@3Ucvar_s@@A 100e89c8     game.obj
 0003:000089e0       ?sk_bigmomma_health_factor1@@3Ucvar_s@@A 100e89e0     game.obj
 0003:000089f8       ?sk_bigmomma_health_factor2@@3Ucvar_s@@A 100e89f8     game.obj
 0003:00008a10       ?sk_bigmomma_health_factor3@@3Ucvar_s@@A 100e8a10     game.obj
 0003:00008a28       ?sk_bigmomma_dmg_slash1@@3Ucvar_s@@A 100e8a28     game.obj
 0003:00008a40       ?sk_bigmomma_dmg_slash2@@3Ucvar_s@@A 100e8a40     game.obj
 0003:00008a58       ?sk_bigmomma_dmg_slash3@@3Ucvar_s@@A 100e8a58     game.obj
 0003:00008a70       ?sk_bigmomma_dmg_blast1@@3Ucvar_s@@A 100e8a70     game.obj
 0003:00008a88       ?sk_bigmomma_dmg_blast2@@3Ucvar_s@@A 100e8a88     game.obj
 0003:00008aa0       ?sk_bigmomma_dmg_blast3@@3Ucvar_s@@A 100e8aa0     game.obj
 0003:00008ab8       ?sk_bigmomma_radius_blast1@@3Ucvar_s@@A 100e8ab8     game.obj
 0003:00008ad0       ?sk_bigmomma_radius_blast2@@3Ucvar_s@@A 100e8ad0     game.obj
 0003:00008ae8       ?sk_bigmomma_radius_blast3@@3Ucvar_s@@A 100e8ae8     game.obj
 0003:00008b00       ?sk_gargantua_health1@@3Ucvar_s@@A 100e8b00     game.obj
 0003:00008b18       ?sk_gargantua_health2@@3Ucvar_s@@A 100e8b18     game.obj
 0003:00008b30       ?sk_gargantua_health3@@3Ucvar_s@@A 100e8b30     game.obj
 0003:00008b48       ?sk_gargantua_dmg_slash1@@3Ucvar_s@@A 100e8b48     game.obj
 0003:00008b60       ?sk_gargantua_dmg_slash2@@3Ucvar_s@@A 100e8b60     game.obj
 0003:00008b78       ?sk_gargantua_dmg_slash3@@3Ucvar_s@@A 100e8b78     game.obj
 0003:00008b90       ?sk_gargantua_dmg_fire1@@3Ucvar_s@@A 100e8b90     game.obj
 0003:00008ba8       ?sk_gargantua_dmg_fire2@@3Ucvar_s@@A 100e8ba8     game.obj
 0003:00008bc0       ?sk_gargantua_dmg_fire3@@3Ucvar_s@@A 100e8bc0     game.obj
 0003:00008bd8       ?sk_gargantua_dmg_stomp1@@3Ucvar_s@@A 100e8bd8     game.obj
 0003:00008bf0       ?sk_gargantua_dmg_stomp2@@3Ucvar_s@@A 100e8bf0     game.obj
 0003:00008c08       ?sk_gargantua_dmg_stomp3@@3Ucvar_s@@A 100e8c08     game.obj
 0003:00008c20       ?sk_hassassin_health1@@3Ucvar_s@@A 100e8c20     game.obj
 0003:00008c38       ?sk_hassassin_health2@@3Ucvar_s@@A 100e8c38     game.obj
 0003:00008c50       ?sk_hassassin_health3@@3Ucvar_s@@A 100e8c50     game.obj
 0003:00008c68       ?sk_headcrab_health1@@3Ucvar_s@@A 100e8c68     game.obj
 0003:00008c80       ?sk_headcrab_health2@@3Ucvar_s@@A 100e8c80     game.obj
 0003:00008c98       ?sk_headcrab_health3@@3Ucvar_s@@A 100e8c98     game.obj
 0003:00008cb0       ?sk_headcrab_dmg_bite1@@3Ucvar_s@@A 100e8cb0     game.obj
 0003:00008cc8       ?sk_headcrab_dmg_bite2@@3Ucvar_s@@A 100e8cc8     game.obj
 0003:00008ce0       ?sk_headcrab_dmg_bite3@@3Ucvar_s@@A 100e8ce0     game.obj
 0003:00008cf8       ?sk_hgrunt_health1@@3Ucvar_s@@A 100e8cf8     game.obj
 0003:00008d10       ?sk_hgrunt_health2@@3Ucvar_s@@A 100e8d10     game.obj
 0003:00008d28       ?sk_hgrunt_health3@@3Ucvar_s@@A 100e8d28     game.obj
 0003:00008d40       ?sk_hgrunt_kick1@@3Ucvar_s@@A 100e8d40     game.obj
 0003:00008d58       ?sk_hgrunt_kick2@@3Ucvar_s@@A 100e8d58     game.obj
 0003:00008d70       ?sk_hgrunt_kick3@@3Ucvar_s@@A 100e8d70     game.obj
 0003:00008d88       ?sk_hgrunt_pellets1@@3Ucvar_s@@A 100e8d88     game.obj
 0003:00008da0       ?sk_hgrunt_pellets2@@3Ucvar_s@@A 100e8da0     game.obj
 0003:00008db8       ?sk_hgrunt_pellets3@@3Ucvar_s@@A 100e8db8     game.obj
 0003:00008dd0       ?sk_hgrunt_gspeed1@@3Ucvar_s@@A 100e8dd0     game.obj
 0003:00008de8       ?sk_hgrunt_gspeed2@@3Ucvar_s@@A 100e8de8     game.obj
 0003:00008e00       ?sk_hgrunt_gspeed3@@3Ucvar_s@@A 100e8e00     game.obj
 0003:00008e18       ?sk_houndeye_health1@@3Ucvar_s@@A 100e8e18     game.obj
 0003:00008e30       ?sk_houndeye_health2@@3Ucvar_s@@A 100e8e30     game.obj
 0003:00008e48       ?sk_houndeye_health3@@3Ucvar_s@@A 100e8e48     game.obj
 0003:00008e60       ?sk_houndeye_dmg_blast1@@3Ucvar_s@@A 100e8e60     game.obj
 0003:00008e78       ?sk_houndeye_dmg_blast2@@3Ucvar_s@@A 100e8e78     game.obj
 0003:00008e90       ?sk_houndeye_dmg_blast3@@3Ucvar_s@@A 100e8e90     game.obj
 0003:00008ea8       ?sk_islave_health1@@3Ucvar_s@@A 100e8ea8     game.obj
 0003:00008ec0       ?sk_islave_health2@@3Ucvar_s@@A 100e8ec0     game.obj
 0003:00008ed8       ?sk_islave_health3@@3Ucvar_s@@A 100e8ed8     game.obj
 0003:00008ef0       ?sk_islave_dmg_claw1@@3Ucvar_s@@A 100e8ef0     game.obj
 0003:00008f08       ?sk_islave_dmg_claw2@@3Ucvar_s@@A 100e8f08     game.obj
 0003:00008f20       ?sk_islave_dmg_claw3@@3Ucvar_s@@A 100e8f20     game.obj
 0003:00008f38       ?sk_islave_dmg_clawrake1@@3Ucvar_s@@A 100e8f38     game.obj
 0003:00008f50       ?sk_islave_dmg_clawrake2@@3Ucvar_s@@A 100e8f50     game.obj
 0003:00008f68       ?sk_islave_dmg_clawrake3@@3Ucvar_s@@A 100e8f68     game.obj
 0003:00008f80       ?sk_islave_dmg_zap1@@3Ucvar_s@@A 100e8f80     game.obj
 0003:00008f98       ?sk_islave_dmg_zap2@@3Ucvar_s@@A 100e8f98     game.obj
 0003:00008fb0       ?sk_islave_dmg_zap3@@3Ucvar_s@@A 100e8fb0     game.obj
 0003:00008fc8       ?sk_ichthyosaur_health1@@3Ucvar_s@@A 100e8fc8     game.obj
 0003:00008fe0       ?sk_ichthyosaur_health2@@3Ucvar_s@@A 100e8fe0     game.obj
 0003:00008ff8       ?sk_ichthyosaur_health3@@3Ucvar_s@@A 100e8ff8     game.obj
 0003:00009010       ?sk_ichthyosaur_shake1@@3Ucvar_s@@A 100e9010     game.obj
 0003:00009028       ?sk_ichthyosaur_shake2@@3Ucvar_s@@A 100e9028     game.obj
 0003:00009040       ?sk_ichthyosaur_shake3@@3Ucvar_s@@A 100e9040     game.obj
 0003:00009058       ?sk_leech_health1@@3Ucvar_s@@A 100e9058     game.obj
 0003:00009070       ?sk_leech_health2@@3Ucvar_s@@A 100e9070     game.obj
 0003:00009088       ?sk_leech_health3@@3Ucvar_s@@A 100e9088     game.obj
 0003:000090a0       ?sk_leech_dmg_bite1@@3Ucvar_s@@A 100e90a0     game.obj
 0003:000090b8       ?sk_leech_dmg_bite2@@3Ucvar_s@@A 100e90b8     game.obj
 0003:000090d0       ?sk_leech_dmg_bite3@@3Ucvar_s@@A 100e90d0     game.obj
 0003:000090e8       ?sk_controller_health1@@3Ucvar_s@@A 100e90e8     game.obj
 0003:00009100       ?sk_controller_health2@@3Ucvar_s@@A 100e9100     game.obj
 0003:00009118       ?sk_controller_health3@@3Ucvar_s@@A 100e9118     game.obj
 0003:00009130       ?sk_controller_dmgzap1@@3Ucvar_s@@A 100e9130     game.obj
 0003:00009148       ?sk_controller_dmgzap2@@3Ucvar_s@@A 100e9148     game.obj
 0003:00009160       ?sk_controller_dmgzap3@@3Ucvar_s@@A 100e9160     game.obj
 0003:00009178       ?sk_controller_speedball1@@3Ucvar_s@@A 100e9178     game.obj
 0003:00009190       ?sk_controller_speedball2@@3Ucvar_s@@A 100e9190     game.obj
 0003:000091a8       ?sk_controller_speedball3@@3Ucvar_s@@A 100e91a8     game.obj
 0003:000091c0       ?sk_controller_dmgball1@@3Ucvar_s@@A 100e91c0     game.obj
 0003:000091d8       ?sk_controller_dmgball2@@3Ucvar_s@@A 100e91d8     game.obj
 0003:000091f0       ?sk_controller_dmgball3@@3Ucvar_s@@A 100e91f0     game.obj
 0003:00009208       ?sk_nihilanth_health1@@3Ucvar_s@@A 100e9208     game.obj
 0003:00009220       ?sk_nihilanth_health2@@3Ucvar_s@@A 100e9220     game.obj
 0003:00009238       ?sk_nihilanth_health3@@3Ucvar_s@@A 100e9238     game.obj
 0003:00009250       ?sk_nihilanth_zap1@@3Ucvar_s@@A 100e9250     game.obj
 0003:00009268       ?sk_nihilanth_zap2@@3Ucvar_s@@A 100e9268     game.obj
 0003:00009280       ?sk_nihilanth_zap3@@3Ucvar_s@@A 100e9280     game.obj
 0003:00009298       ?sk_scientist_health1@@3Ucvar_s@@A 100e9298     game.obj
 0003:000092b0       ?sk_scientist_health2@@3Ucvar_s@@A 100e92b0     game.obj
 0003:000092c8       ?sk_scientist_health3@@3Ucvar_s@@A 100e92c8     game.obj
 0003:000092e0       ?sk_snark_health1@@3Ucvar_s@@A 100e92e0     game.obj
 0003:000092f8       ?sk_snark_health2@@3Ucvar_s@@A 100e92f8     game.obj
 0003:00009310       ?sk_snark_health3@@3Ucvar_s@@A 100e9310     game.obj
 0003:00009328       ?sk_snark_dmg_bite1@@3Ucvar_s@@A 100e9328     game.obj
 0003:00009340       ?sk_snark_dmg_bite2@@3Ucvar_s@@A 100e9340     game.obj
 0003:00009358       ?sk_snark_dmg_bite3@@3Ucvar_s@@A 100e9358     game.obj
 0003:00009370       ?sk_snark_dmg_pop1@@3Ucvar_s@@A 100e9370     game.obj
 0003:00009388       ?sk_snark_dmg_pop2@@3Ucvar_s@@A 100e9388     game.obj
 0003:000093a0       ?sk_snark_dmg_pop3@@3Ucvar_s@@A 100e93a0     game.obj
 0003:000093b8       ?sk_zombie_health1@@3Ucvar_s@@A 100e93b8     game.obj
 0003:000093d0       ?sk_zombie_health2@@3Ucvar_s@@A 100e93d0     game.obj
 0003:000093e8       ?sk_zombie_health3@@3Ucvar_s@@A 100e93e8     game.obj
 0003:00009400       ?sk_zombie_dmg_one_slash1@@3Ucvar_s@@A 100e9400     game.obj
 0003:00009418       ?sk_zombie_dmg_one_slash2@@3Ucvar_s@@A 100e9418     game.obj
 0003:00009430       ?sk_zombie_dmg_one_slash3@@3Ucvar_s@@A 100e9430     game.obj
 0003:00009448       ?sk_zombie_dmg_both_slash1@@3Ucvar_s@@A 100e9448     game.obj
 0003:00009460       ?sk_zombie_dmg_both_slash2@@3Ucvar_s@@A 100e9460     game.obj
 0003:00009478       ?sk_zombie_dmg_both_slash3@@3Ucvar_s@@A 100e9478     game.obj
 0003:00009490       ?sk_turret_health1@@3Ucvar_s@@A 100e9490     game.obj
 0003:000094a8       ?sk_turret_health2@@3Ucvar_s@@A 100e94a8     game.obj
 0003:000094c0       ?sk_turret_health3@@3Ucvar_s@@A 100e94c0     game.obj
 0003:000094d8       ?sk_miniturret_health1@@3Ucvar_s@@A 100e94d8     game.obj
 0003:000094f0       ?sk_miniturret_health2@@3Ucvar_s@@A 100e94f0     game.obj
 0003:00009508       ?sk_miniturret_health3@@3Ucvar_s@@A 100e9508     game.obj
 0003:00009520       ?sk_sentry_health1@@3Ucvar_s@@A 100e9520     game.obj
 0003:00009538       ?sk_sentry_health2@@3Ucvar_s@@A 100e9538     game.obj
 0003:00009550       ?sk_sentry_health3@@3Ucvar_s@@A 100e9550     game.obj
 0003:00009568       ?sk_plr_crowbar1@@3Ucvar_s@@A 100e9568     game.obj
 0003:00009580       ?sk_plr_crowbar2@@3Ucvar_s@@A 100e9580     game.obj
 0003:00009598       ?sk_plr_crowbar3@@3Ucvar_s@@A 100e9598     game.obj
 0003:000095b0       ?sk_plr_9mm_bullet1@@3Ucvar_s@@A 100e95b0     game.obj
 0003:000095c8       ?sk_plr_9mm_bullet2@@3Ucvar_s@@A 100e95c8     game.obj
 0003:000095e0       ?sk_plr_9mm_bullet3@@3Ucvar_s@@A 100e95e0     game.obj
 0003:000095f8       ?sk_plr_357_bullet1@@3Ucvar_s@@A 100e95f8     game.obj
 0003:00009610       ?sk_plr_357_bullet2@@3Ucvar_s@@A 100e9610     game.obj
 0003:00009628       ?sk_plr_357_bullet3@@3Ucvar_s@@A 100e9628     game.obj
 0003:00009640       ?sk_plr_9mmAR_bullet1@@3Ucvar_s@@A 100e9640     game.obj
 0003:00009658       ?sk_plr_9mmAR_bullet2@@3Ucvar_s@@A 100e9658     game.obj
 0003:00009670       ?sk_plr_9mmAR_bullet3@@3Ucvar_s@@A 100e9670     game.obj
 0003:00009688       ?sk_plr_9mmAR_grenade1@@3Ucvar_s@@A 100e9688     game.obj
 0003:000096a0       ?sk_plr_9mmAR_grenade2@@3Ucvar_s@@A 100e96a0     game.obj
 0003:000096b8       ?sk_plr_9mmAR_grenade3@@3Ucvar_s@@A 100e96b8     game.obj
 0003:000096d0       ?sk_plr_buckshot1@@3Ucvar_s@@A 100e96d0     game.obj
 0003:000096e8       ?sk_plr_buckshot2@@3Ucvar_s@@A 100e96e8     game.obj
 0003:00009700       ?sk_plr_buckshot3@@3Ucvar_s@@A 100e9700     game.obj
 0003:00009718       ?sk_plr_xbow_bolt_client1@@3Ucvar_s@@A 100e9718     game.obj
 0003:00009730       ?sk_plr_xbow_bolt_client2@@3Ucvar_s@@A 100e9730     game.obj
 0003:00009748       ?sk_plr_xbow_bolt_client3@@3Ucvar_s@@A 100e9748     game.obj
 0003:00009760       ?sk_plr_xbow_bolt_monster1@@3Ucvar_s@@A 100e9760     game.obj
 0003:00009778       ?sk_plr_xbow_bolt_monster2@@3Ucvar_s@@A 100e9778     game.obj
 0003:00009790       ?sk_plr_xbow_bolt_monster3@@3Ucvar_s@@A 100e9790     game.obj
 0003:000097a8       ?sk_plr_rpg1@@3Ucvar_s@@A  100e97a8     game.obj
 0003:000097c0       ?sk_plr_rpg2@@3Ucvar_s@@A  100e97c0     game.obj
 0003:000097d8       ?sk_plr_rpg3@@3Ucvar_s@@A  100e97d8     game.obj
 0003:000097f0       ?sk_plr_gauss1@@3Ucvar_s@@A 100e97f0     game.obj
 0003:00009808       ?sk_plr_gauss2@@3Ucvar_s@@A 100e9808     game.obj
 0003:00009820       ?sk_plr_gauss3@@3Ucvar_s@@A 100e9820     game.obj
 0003:00009838       ?sk_plr_egon_narrow1@@3Ucvar_s@@A 100e9838     game.obj
 0003:00009850       ?sk_plr_egon_narrow2@@3Ucvar_s@@A 100e9850     game.obj
 0003:00009868       ?sk_plr_egon_narrow3@@3Ucvar_s@@A 100e9868     game.obj
 0003:00009880       ?sk_plr_egon_wide1@@3Ucvar_s@@A 100e9880     game.obj
 0003:00009898       ?sk_plr_egon_wide2@@3Ucvar_s@@A 100e9898     game.obj
 0003:000098b0       ?sk_plr_egon_wide3@@3Ucvar_s@@A 100e98b0     game.obj
 0003:000098c8       ?sk_plr_hand_grenade1@@3Ucvar_s@@A 100e98c8     game.obj
 0003:000098e0       ?sk_plr_hand_grenade2@@3Ucvar_s@@A 100e98e0     game.obj
 0003:000098f8       ?sk_plr_hand_grenade3@@3Ucvar_s@@A 100e98f8     game.obj
 0003:00009910       ?sk_plr_satchel1@@3Ucvar_s@@A 100e9910     game.obj
 0003:00009928       ?sk_plr_satchel2@@3Ucvar_s@@A 100e9928     game.obj
 0003:00009940       ?sk_plr_satchel3@@3Ucvar_s@@A 100e9940     game.obj
 0003:00009958       ?sk_plr_tripmine1@@3Ucvar_s@@A 100e9958     game.obj
 0003:00009970       ?sk_plr_tripmine2@@3Ucvar_s@@A 100e9970     game.obj
 0003:00009988       ?sk_plr_tripmine3@@3Ucvar_s@@A 100e9988     game.obj
 0003:000099a0       ?sk_12mm_bullet1@@3Ucvar_s@@A 100e99a0     game.obj
 0003:000099b8       ?sk_12mm_bullet2@@3Ucvar_s@@A 100e99b8     game.obj
 0003:000099d0       ?sk_12mm_bullet3@@3Ucvar_s@@A 100e99d0     game.obj
 0003:000099e8       ?sk_9mmAR_bullet1@@3Ucvar_s@@A 100e99e8     game.obj
 0003:00009a00       ?sk_9mmAR_bullet2@@3Ucvar_s@@A 100e9a00     game.obj
 0003:00009a18       ?sk_9mmAR_bullet3@@3Ucvar_s@@A 100e9a18     game.obj
 0003:00009a30       ?sk_9mm_bullet1@@3Ucvar_s@@A 100e9a30     game.obj
 0003:00009a48       ?sk_9mm_bullet2@@3Ucvar_s@@A 100e9a48     game.obj
 0003:00009a60       ?sk_9mm_bullet3@@3Ucvar_s@@A 100e9a60     game.obj
 0003:00009a78       ?sk_hornet_dmg1@@3Ucvar_s@@A 100e9a78     game.obj
 0003:00009a90       ?sk_hornet_dmg2@@3Ucvar_s@@A 100e9a90     game.obj
 0003:00009aa8       ?sk_hornet_dmg3@@3Ucvar_s@@A 100e9aa8     game.obj
 0003:00009ac0       ?sk_suitcharger1@@3Ucvar_s@@A 100e9ac0     game.obj
 0003:00009ad8       ?sk_suitcharger2@@3Ucvar_s@@A 100e9ad8     game.obj
 0003:00009af0       ?sk_suitcharger3@@3Ucvar_s@@A 100e9af0     game.obj
 0003:00009b08       ?sk_battery1@@3Ucvar_s@@A  100e9b08     game.obj
 0003:00009b20       ?sk_battery2@@3Ucvar_s@@A  100e9b20     game.obj
 0003:00009b38       ?sk_battery3@@3Ucvar_s@@A  100e9b38     game.obj
 0003:00009b50       ?sk_healthcharger1@@3Ucvar_s@@A 100e9b50     game.obj
 0003:00009b68       ?sk_healthcharger2@@3Ucvar_s@@A 100e9b68     game.obj
 0003:00009b80       ?sk_healthcharger3@@3Ucvar_s@@A 100e9b80     game.obj
 0003:00009b98       ?sk_healthkit1@@3Ucvar_s@@A 100e9b98     game.obj
 0003:00009bb0       ?sk_healthkit2@@3Ucvar_s@@A 100e9bb0     game.obj
 0003:00009bc8       ?sk_healthkit3@@3Ucvar_s@@A 100e9bc8     game.obj
 0003:00009be0       ?sk_scientist_heal1@@3Ucvar_s@@A 100e9be0     game.obj
 0003:00009bf8       ?sk_scientist_heal2@@3Ucvar_s@@A 100e9bf8     game.obj
 0003:00009c10       ?sk_scientist_heal3@@3Ucvar_s@@A 100e9c10     game.obj
 0003:00009c28       ?sk_monster_head1@@3Ucvar_s@@A 100e9c28     game.obj
 0003:00009c40       ?sk_monster_head2@@3Ucvar_s@@A 100e9c40     game.obj
 0003:00009c58       ?sk_monster_head3@@3Ucvar_s@@A 100e9c58     game.obj
 0003:00009c70       ?sk_monster_chest1@@3Ucvar_s@@A 100e9c70     game.obj
 0003:00009c88       ?sk_monster_chest2@@3Ucvar_s@@A 100e9c88     game.obj
 0003:00009ca0       ?sk_monster_chest3@@3Ucvar_s@@A 100e9ca0     game.obj
 0003:00009cb8       ?sk_monster_stomach1@@3Ucvar_s@@A 100e9cb8     game.obj
 0003:00009cd0       ?sk_monster_stomach2@@3Ucvar_s@@A 100e9cd0     game.obj
 0003:00009ce8       ?sk_monster_stomach3@@3Ucvar_s@@A 100e9ce8     game.obj
 0003:00009d00       ?sk_monster_arm1@@3Ucvar_s@@A 100e9d00     game.obj
 0003:00009d18       ?sk_monster_arm2@@3Ucvar_s@@A 100e9d18     game.obj
 0003:00009d30       ?sk_monster_arm3@@3Ucvar_s@@A 100e9d30     game.obj
 0003:00009d48       ?sk_monster_leg1@@3Ucvar_s@@A 100e9d48     game.obj
 0003:00009d60       ?sk_monster_leg2@@3Ucvar_s@@A 100e9d60     game.obj
 0003:00009d78       ?sk_monster_leg3@@3Ucvar_s@@A 100e9d78     game.obj
 0003:00009d90       ?sk_player_head1@@3Ucvar_s@@A 100e9d90     game.obj
 0003:00009da8       ?sk_player_head2@@3Ucvar_s@@A 100e9da8     game.obj
 0003:00009dc0       ?sk_player_head3@@3Ucvar_s@@A 100e9dc0     game.obj
 0003:00009dd8       ?sk_player_chest1@@3Ucvar_s@@A 100e9dd8     game.obj
 0003:00009df0       ?sk_player_chest2@@3Ucvar_s@@A 100e9df0     game.obj
 0003:00009e08       ?sk_player_chest3@@3Ucvar_s@@A 100e9e08     game.obj
 0003:00009e20       ?sk_player_stomach1@@3Ucvar_s@@A 100e9e20     game.obj
 0003:00009e38       ?sk_player_stomach2@@3Ucvar_s@@A 100e9e38     game.obj
 0003:00009e50       ?sk_player_stomach3@@3Ucvar_s@@A 100e9e50     game.obj
 0003:00009e68       ?sk_player_arm1@@3Ucvar_s@@A 100e9e68     game.obj
 0003:00009e80       ?sk_player_arm2@@3Ucvar_s@@A 100e9e80     game.obj
 0003:00009e98       ?sk_player_arm3@@3Ucvar_s@@A 100e9e98     game.obj
 0003:00009eb0       ?sk_player_leg1@@3Ucvar_s@@A 100e9eb0     game.obj
 0003:00009ec8       ?sk_player_leg2@@3Ucvar_s@@A 100e9ec8     game.obj
 0003:00009ee0       ?sk_player_leg3@@3Ucvar_s@@A 100e9ee0     game.obj
 0003:0000c280       ?m_SaveData@CGargantua@@2PAUTYPEDESCRIPTION@@A 100ec280     gargantua.obj
 0003:0000c310       ?pAttackHitSounds@CGargantua@@0PAPBDA 100ec310     gargantua.obj
 0003:0000c31c       ?pBeamAttackSounds@CGargantua@@0PAPBDA 100ec31c     gargantua.obj
 0003:0000c328       ?pAttackMissSounds@CGargantua@@0PAPBDA 100ec328     gargantua.obj
 0003:0000c330       ?pRicSounds@CGargantua@@0PAPBDA 100ec330     gargantua.obj
 0003:0000c340       ?pFootSounds@CGargantua@@0PAPBDA 100ec340     gargantua.obj
 0003:0000c348       ?pIdleSounds@CGargantua@@0PAPBDA 100ec348     gargantua.obj
 0003:0000c35c       ?pAttackSounds@CGargantua@@0PAPBDA 100ec35c     gargantua.obj
 0003:0000c368       ?pAlertSounds@CGargantua@@0PAPBDA 100ec368     gargantua.obj
 0003:0000c374       ?pPainSounds@CGargantua@@0PAPBDA 100ec374     gargantua.obj
 0003:0000c380       ?pStompSounds@CGargantua@@0PAPBDA 100ec380     gargantua.obj
 0003:0000c384       ?pBreatheSounds@CGargantua@@0PAPBDA 100ec384     gargantua.obj
 0003:0000c390       ?tlGargFlame@@3PAUTask_t@@A 100ec390     gargantua.obj
 0003:0000c3c0       ?slGargFlame@@3PAUSchedule_t@@A 100ec3c0     gargantua.obj
 0003:0000c3d8       ?tlGargSwipe@@3PAUTask_t@@A 100ec3d8     gargantua.obj
 0003:0000c3f0       ?slGargSwipe@@3PAUSchedule_t@@A 100ec3f0     gargantua.obj
 0003:0000c404       ?m_scheduleList@CGargantua@@2PAPAUSchedule_t@@A 100ec404     gargantua.obj
 0003:0000cbc4       ??_C@_0BH@HIFD@models?1w_gaussammo?4mdl?$AA@ 100ecbc4     gauss.obj
 0003:0000cd48       ??_C@_09JDJH@classname?$AA@ 100ecd48     ggrenade.obj
 0003:0000cd58       ?m_SaveData@CGMan@@2PAUTYPEDESCRIPTION@@A 100ecd58     gman.obj
 0003:0000cdd0       ?m_SaveData@CRecharge@@2PAUTYPEDESCRIPTION@@A 100ecdd0     h_battery.obj
 0003:0000cf70       ??_C@_0BK@OEND@models?1cine?9scientist?4mdl?$AA@ 100ecf70     h_cine.obj
 0003:0000cf8c       ??_C@_0BI@KHOC@models?1cine?9panther?4mdl?$AA@ 100ecf8c     h_cine.obj
 0003:0000cfa4       ??_C@_0BH@DBIK@models?1cine?9barney?4mdl?$AA@ 100ecfa4     h_cine.obj
 0003:0000cfbc       ??_C@_0BL@LCO@models?1cine2?9scientist?4mdl?$AA@ 100ecfbc     h_cine.obj
 0003:0000cfd8       ??_C@_0BM@NKEF@models?1cine2_hvyweapons?4mdl?$AA@ 100ecfd8     h_cine.obj
 0003:0000cff4       ??_C@_0BH@JLDG@models?1cine2_slave?4mdl?$AA@ 100ecff4     h_cine.obj
 0003:0000d00c       ??_C@_0BL@MJIO@models?1cine3?9scientist?4mdl?$AA@ 100ed00c     h_cine.obj
 0003:0000d028       ??_C@_0BI@BOID@models?1cine3?9barney?4mdl?$AA@ 100ed028     h_cine.obj
 0003:0000d040       ?m_SaveData@CCycler@@2PAUTYPEDESCRIPTION@@A 100ed040     h_cycler.obj
 0003:0000d050       ?m_SaveData@CCyclerSprite@@2PAUTYPEDESCRIPTION@@A 100ed050     h_cycler.obj
 0003:0000d080       ?m_SaveData@CWreckage@@0PAUTYPEDESCRIPTION@@A 100ed080     h_cycler.obj
 0003:0000d258       ?m_SaveData@CHAssassin@@2PAUTYPEDESCRIPTION@@A 100ed258     hassassin.obj
 0003:0000d2e8       ?tlAssassinFail@@3PAUTask_t@@A 100ed2e8     hassassin.obj
 0003:0000d308       ?slAssassinFail@@3PAUSchedule_t@@A 100ed308     hassassin.obj
 0003:0000d320       ?tlAssassinExposed@@3PAUTask_t@@A 100ed320     hassassin.obj
 0003:0000d340       ?slAssassinExposed@@3PAUSchedule_t@@A 100ed340     hassassin.obj
 0003:0000d358       ?tlAssassinTakeCoverFromEnemy@@3PAUTask_t@@A 100ed358     hassassin.obj
 0003:0000d398       ?slAssassinTakeCoverFromEnemy@@3PAUSchedule_t@@A 100ed398     hassassin.obj
 0003:0000d3b0       ?tlAssassinTakeCoverFromEnemy2@@3PAUTask_t@@A 100ed3b0     hassassin.obj
 0003:0000d400       ?slAssassinTakeCoverFromEnemy2@@3PAUSchedule_t@@A 100ed400     hassassin.obj
 0003:0000d418       ?tlAssassinTakeCoverFromBestSound@@3PAUTask_t@@A 100ed418     hassassin.obj
 0003:0000d450       ?slAssassinTakeCoverFromBestSound@@3PAUSchedule_t@@A 100ed450     hassassin.obj
 0003:0000d468       ?tlAssassinHide@@3PAUTask_t@@A 100ed468     hassassin.obj
 0003:0000d488       ?slAssassinHide@@3PAUSchedule_t@@A 100ed488     hassassin.obj
 0003:0000d4a0       ?tlAssassinHunt@@3PAUTask_t@@A 100ed4a0     hassassin.obj
 0003:0000d4b8       ?slAssassinHunt@@3PAUSchedule_t@@A 100ed4b8     hassassin.obj
 0003:0000d4d0       ?tlAssassinJump@@3PAUTask_t@@A 100ed4d0     hassassin.obj
 0003:0000d4e8       ?slAssassinJump@@3PAUSchedule_t@@A 100ed4e8     hassassin.obj
 0003:0000d500       ?tlAssassinJumpAttack@@3PAUTask_t@@A 100ed500     hassassin.obj
 0003:0000d510       ?slAssassinJumpAttack@@3PAUSchedule_t@@A 100ed510     hassassin.obj
 0003:0000d528       ?tlAssassinJumpLand@@3PAUTask_t@@A 100ed528     hassassin.obj
 0003:0000d578       ?slAssassinJumpLand@@3PAUSchedule_t@@A 100ed578     hassassin.obj
 0003:0000d58c       ?m_scheduleList@CHAssassin@@2PAPAUSchedule_t@@A 100ed58c     hassassin.obj
 0003:0000d878       ?tlHCRangeAttack1@@3PAUTask_t@@A 100ed878     headcrab.obj
 0003:0000d8a8       ?slHCRangeAttack1@@3PAUSchedule_t@@A 100ed8a8     headcrab.obj
 0003:0000d8c0       ?tlHCRangeAttack1Fast@@3PAUTask_t@@A 100ed8c0     headcrab.obj
 0003:0000d8e0       ?slHCRangeAttack1Fast@@3PAUSchedule_t@@A 100ed8e0     headcrab.obj
 0003:0000d8f4       ?m_scheduleList@CHeadCrab@@2PAPAUSchedule_t@@A 100ed8f4     headcrab.obj
 0003:0000d8fc       ?pIdleSounds@CHeadCrab@@2PAPBDA 100ed8fc     headcrab.obj
 0003:0000d908       ?pAlertSounds@CHeadCrab@@2PAPBDA 100ed908     headcrab.obj
 0003:0000d90c       ?pPainSounds@CHeadCrab@@2PAPBDA 100ed90c     headcrab.obj
 0003:0000d918       ?pAttackSounds@CHeadCrab@@2PAPBDA 100ed918     headcrab.obj
 0003:0000d924       ?pDeathSounds@CHeadCrab@@2PAPBDA 100ed924     headcrab.obj
 0003:0000d92c       ?pBiteSounds@CHeadCrab@@2PAPBDA 100ed92c     headcrab.obj
 0003:0000dae8       ?m_SaveData@CWallHealth@@2PAUTYPEDESCRIPTION@@A 100edae8     healthkit.obj
 0003:0000dcd0       ?m_SaveData@CHGrunt@@2PAUTYPEDESCRIPTION@@A 100edcd0     hgrunt.obj
 0003:0000dd60       ?pGruntSentences@CHGrunt@@2PAPBDA 100edd60     hgrunt.obj
 0003:0000dd80       ?tlGruntFail@@3PAUTask_t@@A 100edd80     hgrunt.obj
 0003:0000dda0       ?slGruntFail@@3PAUSchedule_t@@A 100edda0     hgrunt.obj
 0003:0000ddb8       ?tlGruntCombatFail@@3PAUTask_t@@A 100eddb8     hgrunt.obj
 0003:0000ddd8       ?slGruntCombatFail@@3PAUSchedule_t@@A 100eddd8     hgrunt.obj
 0003:0000ddf0       ?tlGruntVictoryDance@@3PAUTask_t@@A 100eddf0     hgrunt.obj
 0003:0000de30       ?slGruntVictoryDance@@3PAUSchedule_t@@A 100ede30     hgrunt.obj
 0003:0000de48       ?tlGruntEstablishLineOfFire@@3PAUTask_t@@A 100ede48     hgrunt.obj
 0003:0000de70       ?slGruntEstablishLineOfFire@@3PAUSchedule_t@@A 100ede70     hgrunt.obj
 0003:0000de88       ?tlGruntFoundEnemy@@3PAUTask_t@@A 100ede88     hgrunt.obj
 0003:0000dea0       ?slGruntFoundEnemy@@3PAUSchedule_t@@A 100edea0     hgrunt.obj
 0003:0000deb8       ?tlGruntCombatFace1@@3PAUTask_t@@A 100edeb8     hgrunt.obj
 0003:0000dee0       ?slGruntCombatFace@@3PAUSchedule_t@@A 100edee0     hgrunt.obj
 0003:0000def8       ?tlGruntSignalSuppress@@3PAUTask_t@@A 100edef8     hgrunt.obj
 0003:0000df88       ?slGruntSignalSuppress@@3PAUSchedule_t@@A 100edf88     hgrunt.obj
 0003:0000dfa0       ?tlGruntSuppress@@3PAUTask_t@@A 100edfa0     hgrunt.obj
 0003:0000e020       ?slGruntSuppress@@3PAUSchedule_t@@A 100ee020     hgrunt.obj
 0003:0000e038       ?tlGruntWaitInCover@@3PAUTask_t@@A 100ee038     hgrunt.obj
 0003:0000e050       ?slGruntWaitInCover@@3PAUSchedule_t@@A 100ee050     hgrunt.obj
 0003:0000e068       ?tlGruntTakeCover1@@3PAUTask_t@@A 100ee068     hgrunt.obj
 0003:0000e0b0       ?slGruntTakeCover@@3PAUSchedule_t@@A 100ee0b0     hgrunt.obj
 0003:0000e0c8       ?tlGruntGrenadeCover1@@3PAUTask_t@@A 100ee0c8     hgrunt.obj
 0003:0000e108       ?slGruntGrenadeCover@@3PAUSchedule_t@@A 100ee108     hgrunt.obj
 0003:0000e120       ?tlGruntTossGrenadeCover1@@3PAUTask_t@@A 100ee120     hgrunt.obj
 0003:0000e138       ?slGruntTossGrenadeCover@@3PAUSchedule_t@@A 100ee138     hgrunt.obj
 0003:0000e150       ?tlGruntTakeCoverFromBestSound@@3PAUTask_t@@A 100ee150     hgrunt.obj
 0003:0000e188       ?slGruntTakeCoverFromBestSound@@3PAUSchedule_t@@A 100ee188     hgrunt.obj
 0003:0000e1a0       ?tlGruntHideReload@@3PAUTask_t@@A 100ee1a0     hgrunt.obj
 0003:0000e1e0       ?slGruntHideReload@@3PAUSchedule_t@@A 100ee1e0     hgrunt.obj
 0003:0000e1f8       ?tlGruntSweep@@3PAUTask_t@@A 100ee1f8     hgrunt.obj
 0003:0000e218       ?slGruntSweep@@3PAUSchedule_t@@A 100ee218     hgrunt.obj
 0003:0000e230       ?tlGruntRangeAttack1A@@3PAUTask_t@@A 100ee230     hgrunt.obj
 0003:0000e298       ?slGruntRangeAttack1A@@3PAUSchedule_t@@A 100ee298     hgrunt.obj
 0003:0000e2b0       ?tlGruntRangeAttack1B@@3PAUTask_t@@A 100ee2b0     hgrunt.obj
 0003:0000e318       ?slGruntRangeAttack1B@@3PAUSchedule_t@@A 100ee318     hgrunt.obj
 0003:0000e330       ?tlGruntRangeAttack2@@3PAUTask_t@@A 100ee330     hgrunt.obj
 0003:0000e350       ?slGruntRangeAttack2@@3PAUSchedule_t@@A 100ee350     hgrunt.obj
 0003:0000e368       ?tlGruntRepel@@3PAUTask_t@@A 100ee368     hgrunt.obj
 0003:0000e380       ?slGruntRepel@@3PAUSchedule_t@@A 100ee380     hgrunt.obj
 0003:0000e398       ?tlGruntRepelAttack@@3PAUTask_t@@A 100ee398     hgrunt.obj
 0003:0000e3b0       ?slGruntRepelAttack@@3PAUSchedule_t@@A 100ee3b0     hgrunt.obj
 0003:0000e3c8       ?tlGruntRepelLand@@3PAUTask_t@@A 100ee3c8     hgrunt.obj
 0003:0000e3f8       ?slGruntRepelLand@@3PAUSchedule_t@@A 100ee3f8     hgrunt.obj
 0003:0000e40c       ?m_scheduleList@CHGrunt@@2PAPAUSchedule_t@@A 100ee40c     hgrunt.obj
 0003:0000e460       ?m_szPoses@CDeadHGrunt@@2PAPADA 100ee460     hgrunt.obj
 0003:0000ed00       ??_C@_0BF@LOAJ@models?1w_9mmclip?4mdl?$AA@ 100eed00     hl_wpn_glock.obj
 0003:0000ed18       ??_C@_03IEOM@9mm?$AA@      100eed18     hl_wpn_glock.obj
 0003:0000ed20       ?m_SaveData@CHornet@@2PAUTYPEDESCRIPTION@@A 100eed20     hornet.obj
 0003:0000f038       ?m_SaveData@CHoundeye@@2PAUTYPEDESCRIPTION@@A 100ef038     houndeye.obj
 0003:0000f080       ?tlHoundGuardPack@@3PAUTask_t@@A 100ef080     houndeye.obj
 0003:0000f090       ?slHoundGuardPack@@3PAUSchedule_t@@A 100ef090     houndeye.obj
 0003:0000f0a8       ?tlHoundYell1@@3PAUTask_t@@A 100ef0a8     houndeye.obj
 0003:0000f0c8       ?tlHoundYell2@@3PAUTask_t@@A 100ef0c8     houndeye.obj
 0003:0000f0e0       ?slHoundRangeAttack@@3PAUSchedule_t@@A 100ef0e0     houndeye.obj
 0003:0000f108       ?tlHoundSleep@@3PAUTask_t@@A 100ef108     houndeye.obj
 0003:0000f148       ?slHoundSleep@@3PAUSchedule_t@@A 100ef148     houndeye.obj
 0003:0000f160       ?tlHoundWakeLazy@@3PAUTask_t@@A 100ef160     houndeye.obj
 0003:0000f188       ?slHoundWakeLazy@@3PAUSchedule_t@@A 100ef188     houndeye.obj
 0003:0000f1a0       ?tlHoundWakeUrgent@@3PAUTask_t@@A 100ef1a0     houndeye.obj
 0003:0000f1c0       ?slHoundWakeUrgent@@3PAUSchedule_t@@A 100ef1c0     houndeye.obj
 0003:0000f1d8       ?tlHoundSpecialAttack1@@3PAUTask_t@@A 100ef1d8     houndeye.obj
 0003:0000f1f8       ?slHoundSpecialAttack1@@3PAUSchedule_t@@A 100ef1f8     houndeye.obj
 0003:0000f210       ?tlHoundAgitated@@3PAUTask_t@@A 100ef210     houndeye.obj
 0003:0000f220       ?slHoundAgitated@@3PAUSchedule_t@@A 100ef220     houndeye.obj
 0003:0000f238       ?tlHoundHopRetreat@@3PAUTask_t@@A 100ef238     houndeye.obj
 0003:0000f250       ?slHoundHopRetreat@@3PAUSchedule_t@@A 100ef250     houndeye.obj
 0003:0000f268       ?tlHoundCombatFailPVS@@3PAUTask_t@@A 100ef268     houndeye.obj
 0003:0000f280       ?slHoundCombatFailPVS@@3PAUSchedule_t@@A 100ef280     houndeye.obj
 0003:0000f298       ?tlHoundCombatFailNoPVS@@3PAUTask_t@@A 100ef298     houndeye.obj
 0003:0000f2c0       ?slHoundCombatFailNoPVS@@3PAUSchedule_t@@A 100ef2c0     houndeye.obj
 0003:0000f2d4       ?m_scheduleList@CHoundeye@@2PAPAUSchedule_t@@A 100ef2d4     houndeye.obj
 0003:0000f8e0       ?m_SaveData@CIchthyosaur@@2PAUTYPEDESCRIPTION@@A 100ef8e0     ichthyosaur.obj
 0003:0000f970       ?pIdleSounds@CIchthyosaur@@2PAPBDA 100ef970     ichthyosaur.obj
 0003:0000f980       ?pAlertSounds@CIchthyosaur@@2PAPBDA 100ef980     ichthyosaur.obj
 0003:0000f988       ?pAttackSounds@CIchthyosaur@@2PAPBDA 100ef988     ichthyosaur.obj
 0003:0000f990       ?pBiteSounds@CIchthyosaur@@2PAPBDA 100ef990     ichthyosaur.obj
 0003:0000f998       ?pPainSounds@CIchthyosaur@@2PAPBDA 100ef998     ichthyosaur.obj
 0003:0000f9a4       ?pDieSounds@CIchthyosaur@@2PAPBDA 100ef9a4     ichthyosaur.obj
 0003:0000fa30       ?tlTwitchDie@@3PAUTask_t@@A 100efa30     ichthyosaur.obj
 0003:0000fa50       ?slTwitchDie@@3PAUSchedule_t@@A 100efa50     ichthyosaur.obj
 0003:0000fa64       ?m_scheduleList@CIchthyosaur@@2PAPAUSchedule_t@@A 100efa64     ichthyosaur.obj
 0003:0000fca8       ?m_SaveData@CISlave@@2PAUTYPEDESCRIPTION@@A 100efca8     islave.obj
 0003:0000fd08       ?pAttackHitSounds@CISlave@@2PAPBDA 100efd08     islave.obj
 0003:0000fd14       ?pAttackMissSounds@CISlave@@2PAPBDA 100efd14     islave.obj
 0003:0000fd1c       ?pPainSounds@CISlave@@2PAPBDA 100efd1c     islave.obj
 0003:0000fd24       ?pDeathSounds@CISlave@@2PAPBDA 100efd24     islave.obj
 0003:0000fd30       ?tlSlaveAttack1@@3PAUTask_t@@A 100efd30     islave.obj
 0003:0000fd48       ?slSlaveAttack1@@3PAUSchedule_t@@A 100efd48     islave.obj
 0003:0000fd5c       ?m_scheduleList@CISlave@@2PAPAUSchedule_t@@A 100efd5c     islave.obj
 0003:00010120       ??_C@_0BC@FPHB@models?1w_suit?4mdl?$AA@ 100f0120     items.obj
 0003:00010134       ??_C@_08EMBP@?$CBHEV_AAx?$AA@ 100f0134     items.obj
 0003:00010140       ??_C@_07DAO@?$CBHEV_A0?$AA@ 100f0140     items.obj
 0003:00010148       ??_C@_0BF@KDIP@models?1w_battery?4mdl?$AA@ 100f0148     items.obj
 0003:00010160       ??_C@_0BF@FDHL@items?1gunpickup2?4wav?$AA@ 100f0160     items.obj
 0003:00010178       ??_C@_09NHDB@?$CBHEV_?$CF1dP?$AA@ 100f0178     items.obj
 0003:00010184       ??_C@_0BG@HIIM@models?1w_antidote?4mdl?$AA@ 100f0184     items.obj
 0003:0001019c       ??_C@_09EAGM@?$CBHEV_DET4?$AA@ 100f019c     items.obj
 0003:000101a8       ??_C@_0BG@CMAO@models?1w_security?4mdl?$AA@ 100f01a8     items.obj
 0003:000101c0       ??_C@_0BG@FEFN@models?1w_longjump?4mdl?$AA@ 100f01c0     items.obj
 0003:000101d8       ??_C@_07KJJJ@?$CBHEV_A1?$AA@ 100f01d8     items.obj
 0003:000101e0       ??_C@_03HGJB@slj?$AA@      100f01e0     items.obj
 0003:000101e4       ??_C@_01FBAH@1?$AA@        100f01e4     items.obj
 0003:000101e8       ?m_SaveData@CLeech@@2PAUTYPEDESCRIPTION@@A 100f01e8     leech.obj
 0003:000102a8       ?pAttackSounds@CLeech@@2PAPBDA 100f02a8     leech.obj
 0003:000102b4       ?pAlertSounds@CLeech@@2PAPBDA 100f02b4     leech.obj
 0003:00010408       ?m_SaveData@CLight@@2PAUTYPEDESCRIPTION@@A 100f0408     lights.obj
 0003:00010500       ?m_SaveData@CRuleEntity@@2PAUTYPEDESCRIPTION@@A 100f0500     maprules.obj
 0003:00010510       ?m_SaveData@CGameText@@2PAUTYPEDESCRIPTION@@A 100f0510     maprules.obj
 0003:00010520       ?m_SaveData@CGamePlayerZone@@2PAUTYPEDESCRIPTION@@A 100f0520     maprules.obj
 0003:000106c0       ?m_SaveData@CMonsterMaker@@2PAUTYPEDESCRIPTION@@A 100f06c0     monstermaker.obj
 0003:00010810       ?m_SaveData@CBaseMonster@@2PAUTYPEDESCRIPTION@@A 100f0810     monsters.obj
 0003:00011548       ?m_SaveData@CFuncMortarField@@2PAUTYPEDESCRIPTION@@A 100f1548     mortar.obj
 0003:000118c8       ??_C@_0BH@GGOB@models?1w_9mmARclip?4mdl?$AA@ 100f18c8     mp5.obj
 0003:000118e0       ??_C@_0BH@DCNA@models?1w_ARgrenade?4mdl?$AA@ 100f18e0     mp5.obj
 0003:000118f8       ??_C@_0L@GNNC@ARgrenades?$AA@ 100f18f8     mp5.obj
 0003:00011dc8       ??_C@_09OKKL@Half?9Life?$AA@ 100f1dc8     multiplay_gamerules.obj
 0003:00011dd8       ?m_SaveData@CNihilanth@@2PAUTYPEDESCRIPTION@@A 100f1dd8     nihilanth.obj
 0003:00011fb8       ?m_SaveData@CNihilanthHVR@@2PAUTYPEDESCRIPTION@@A 100f1fb8     nihilanth.obj
 0003:00012008       ?pAttackSounds@CNihilanth@@2PAPBDA 100f2008     nihilanth.obj
 0003:00012014       ?pBallSounds@CNihilanth@@2PAPBDA 100f2014     nihilanth.obj
 0003:00012018       ?pShootSounds@CNihilanth@@2PAPBDA 100f2018     nihilanth.obj
 0003:0001201c       ?pRechargeSounds@CNihilanth@@2PAPBDA 100f201c     nihilanth.obj
 0003:00012028       ?pLaughSounds@CNihilanth@@2PAPBDA 100f2028     nihilanth.obj
 0003:00012030       ?pPainSounds@CNihilanth@@2PAPBDA 100f2030     nihilanth.obj
 0003:00012038       ?pDeathSounds@CNihilanth@@2PAPBDA 100f2038     nihilanth.obj
 0003:000127e0       ?Primes@@3PAHA             100f27e0     nodes.obj
 0003:00013b04       ??_C@_06CCPD@target?$AA@   100f3b04     nodes.obj
 0003:00013b10       ?m_SaveData@COsprey@@2PAUTYPEDESCRIPTION@@A 100f3b10     osprey.obj
 0003:00013f38       ?m_SaveData@CPathCorner@@2PAUTYPEDESCRIPTION@@A 100f3f38     pathcorner.obj
 0003:00013f48       ?m_SaveData@CPathTrack@@2PAUTYPEDESCRIPTION@@A 100f3f48     pathcorner.obj
 0003:00014060       ?m_SaveData@CBasePlatTrain@@2PAUTYPEDESCRIPTION@@A 100f4060     plats.obj
 0003:00014090       ?m_SaveData@CFuncPlatRot@@2PAUTYPEDESCRIPTION@@A 100f4090     plats.obj
 0003:000140b0       ?m_SaveData@CFuncTrain@@2PAUTYPEDESCRIPTION@@A 100f40b0     plats.obj
 0003:000140e0       ?m_SaveData@CFuncTrackTrain@@2PAUTYPEDESCRIPTION@@A 100f40e0     plats.obj
 0003:000141a0       ?m_SaveData@CFuncTrackChange@@2PAUTYPEDESCRIPTION@@A 100f41a0     plats.obj
 0003:00014230       ?m_SaveData@CGunTarget@@2PAUTYPEDESCRIPTION@@A 100f4230     plats.obj
 0003:00014ce8       ?gInitHUD@@3HA             100f4ce8     player.obj
 0003:00014cf0       ?m_playerSaveData@CBasePlayer@@2PAUTYPEDESCRIPTION@@A 100f4cf0     player.obj
 0003:00014fb0       ?m_szPoses@CDeadHEV@@2PAPADA 100f4fb0     player.obj
 0003:00014fc0       ?m_SaveData@CRevertSaved@@2PAUTYPEDESCRIPTION@@A 100f4fc0     player.obj
 0003:00015ecc       _nanmask                   100f5ecc     pm_math.obj
 0003:00015ed0       _g_iCustomJumpvel          100f5ed0     pm_shared.obj
 0003:0001659c       ??_C@_0BI@GIKK@models?1w_357ammobox?4mdl?$AA@ 100f659c     python.obj
 0003:000165b4       ??_C@_03MIAK@357?$AA@      100f65b4     python.obj
 0003:00016898       ??_C@_0BF@FJPG@models?1w_rpgammo?4mdl?$AA@ 100f6898     rpg.obj
 0003:000168b0       ??_C@_07DPNP@rockets?$AA@  100f68b0     rpg.obj
 0003:00016db0       ?m_SaveData@CScientist@@2PAUTYPEDESCRIPTION@@A 100f6db0     scientist.obj
 0003:00016de0       ?tlFollow@@3PAUTask_t@@A   100f6de0     scientist.obj
 0003:00016df0       ?slFollow@@3PAUSchedule_t@@A 100f6df0     scientist.obj
 0003:00016e08       ?tlFollowScared@@3PAUTask_t@@A 100f6e08     scientist.obj
 0003:00016e18       ?slFollowScared@@3PAUSchedule_t@@A 100f6e18     scientist.obj
 0003:00016e30       ?tlFaceTargetScared@@3PAUTask_t@@A 100f6e30     scientist.obj
 0003:00016e48       ?slFaceTargetScared@@3PAUSchedule_t@@A 100f6e48     scientist.obj
 0003:00016e60       ?tlStopFollowing@@3PAUTask_t@@A 100f6e60     scientist.obj
 0003:00016e68       ?slStopFollowing@@3PAUSchedule_t@@A 100f6e68     scientist.obj
 0003:00016e80       ?tlHeal@@3PAUTask_t@@A     100f6e80     scientist.obj
 0003:00016eb8       ?slHeal@@3PAUSchedule_t@@A 100f6eb8     scientist.obj
 0003:00016ed0       ?tlFaceTarget@@3PAUTask_t@@A 100f6ed0     scientist.obj
 0003:00016ef0       ?slFaceTarget@@3PAUSchedule_t@@A 100f6ef0     scientist.obj
 0003:00016f08       ?tlSciPanic@@3PAUTask_t@@A 100f6f08     scientist.obj
 0003:00016f30       ?slSciPanic@@3PAUSchedule_t@@A 100f6f30     scientist.obj
 0003:00016f48       ?tlIdleSciStand@@3PAUTask_t@@A 100f6f48     scientist.obj
 0003:00016f68       ?slIdleSciStand@@3PAUSchedule_t@@A 100f6f68     scientist.obj
 0003:00016f80       ?tlScientistCover@@3PAUTask_t@@A 100f6f80     scientist.obj
 0003:00016fb0       ?slScientistCover@@3PAUSchedule_t@@A 100f6fb0     scientist.obj
 0003:00016fc8       ?tlScientistHide@@3PAUTask_t@@A 100f6fc8     scientist.obj
 0003:00016ff0       ?slScientistHide@@3PAUSchedule_t@@A 100f6ff0     scientist.obj
 0003:00017008       ?tlScientistStartle@@3PAUTask_t@@A 100f7008     scientist.obj
 0003:00017040       ?slScientistStartle@@3PAUSchedule_t@@A 100f7040     scientist.obj
 0003:00017058       ?tlFear@@3PAUTask_t@@A     100f7058     scientist.obj
 0003:00017070       ?slFear@@3PAUSchedule_t@@A 100f7070     scientist.obj
 0003:00017084       ?m_scheduleList@CScientist@@2PAPAUSchedule_t@@A 100f7084     scientist.obj
 0003:000170c0       ?m_szPoses@CDeadScientist@@2PAPADA 100f70c0     scientist.obj
 0003:000170e0       ?m_SaveData@CSittingScientist@@2PAUTYPEDESCRIPTION@@A 100f70e0     scientist.obj
 0003:00017598       ?m_SaveData@CCineMonster@@2PAUTYPEDESCRIPTION@@A 100f7598     scripted.obj
 0003:00017668       ?m_SaveData@CScriptedSentence@@2PAUTYPEDESCRIPTION@@A 100f7668     scripted.obj
 0003:00017cc8       ??_C@_0BF@DNNJ@models?1w_shotbox?4mdl?$AA@ 100f7cc8     shotgun.obj
 0003:00017ce0       ??_C@_08NGBJ@buckshot?$AA@ 100f7ce0     shotgun.obj
 0003:00017d20       ?rgdpvpreset@@3PAUdynpitchvol@@A 100f7d20     sound.obj
 0003:000187b0       ?m_SaveData@CAmbientGeneric@@2PAUTYPEDESCRIPTION@@A 100f87b0     sound.obj
 0003:000187f0       ?m_SaveData@CEnvSound@@2PAUTYPEDESCRIPTION@@A 100f87f0     sound.obj
 0003:00018810       ?m_SaveData@CSpeaker@@2PAUTYPEDESCRIPTION@@A 100f8810     sound.obj
 0003:00018f68       ?m_SaveData@CSquadMonster@@2PAUTYPEDESCRIPTION@@A 100f8f68     squadmonster.obj
 0003:00019098       ?m_SaveData@CSqueakGrenade@@0PAUTYPEDESCRIPTION@@A 100f9098     squeakgrenade.obj
 0003:00019438       ?m_SaveData@CBaseDelay@@2PAUTYPEDESCRIPTION@@A 100f9438     subs.obj
 0003:00019458       ?m_SaveData@CBaseToggle@@2PAUTYPEDESCRIPTION@@A 100f9458     subs.obj
 0003:000197f8       ?m_SaveData@CTalkMonster@@2PAUTYPEDESCRIPTION@@A 100f97f8     talkmonster.obj
 0003:00019878       ?m_szFriends@CTalkMonster@@2PAPADA 100f9878     talkmonster.obj
 0003:00019888       ?tlIdleResponse@@3PAUTask_t@@A 100f9888     talkmonster.obj
 0003:000198c8       ?slIdleResponse@@3PAUSchedule_t@@A 100f98c8     talkmonster.obj
 0003:000198e0       ?tlIdleSpeak@@3PAUTask_t@@A 100f98e0     talkmonster.obj
 0003:00019910       ?slIdleSpeak@@3PAUSchedule_t@@A 100f9910     talkmonster.obj
 0003:00019928       ?tlIdleSpeakWait@@3PAUTask_t@@A 100f9928     talkmonster.obj
 0003:00019948       ?slIdleSpeakWait@@3PAUSchedule_t@@A 100f9948     talkmonster.obj
 0003:00019960       ?tlIdleHello@@3PAUTask_t@@A 100f9960     talkmonster.obj
 0003:000199c8       ?slIdleHello@@3PAUSchedule_t@@A 100f99c8     talkmonster.obj
 0003:000199e0       ?tlIdleStopShooting@@3PAUTask_t@@A 100f99e0     talkmonster.obj
 0003:000199e8       ?slIdleStopShooting@@3PAUSchedule_t@@A 100f99e8     talkmonster.obj
 0003:00019a00       ?tlMoveAway@@3PAUTask_t@@A 100f9a00     talkmonster.obj
 0003:00019a30       ?slMoveAway@@3PAUSchedule_t@@A 100f9a30     talkmonster.obj
 0003:00019a48       ?tlMoveAwayFail@@3PAUTask_t@@A 100f9a48     talkmonster.obj
 0003:00019a58       ?slMoveAwayFail@@3PAUSchedule_t@@A 100f9a58     talkmonster.obj
 0003:00019a70       ?tlMoveAwayFollow@@3PAUTask_t@@A 100f9a70     talkmonster.obj
 0003:00019aa0       ?slMoveAwayFollow@@3PAUSchedule_t@@A 100f9aa0     talkmonster.obj
 0003:00019ab8       ?tlTlkIdleWatchClient@@3PAUTask_t@@A 100f9ab8     talkmonster.obj
 0003:00019ad0       ?tlTlkIdleWatchClientStare@@3PAUTask_t@@A 100f9ad0     talkmonster.obj
 0003:00019b10       ?slTlkIdleWatchClient@@3PAUSchedule_t@@A 100f9b10     talkmonster.obj
 0003:00019b38       ?tlTlkIdleEyecontact@@3PAUTask_t@@A 100f9b38     talkmonster.obj
 0003:00019b58       ?slTlkIdleEyecontact@@3PAUSchedule_t@@A 100f9b58     talkmonster.obj
 0003:00019b6c       ?m_scheduleList@CTalkMonster@@2PAPAUSchedule_t@@A 100f9b6c     talkmonster.obj
 0003:00019ed0       ??_C@_0M@FNHG@HL?5Teamplay?$AA@ 100f9ed0     teamplay_gamerules.obj
 0003:00019ee0       ?pHitSilo@CTentacle@@2PAPBDA 100f9ee0     tentacle.obj
 0003:00019ee8       ?pHitDirt@CTentacle@@2PAPBDA 100f9ee8     tentacle.obj
 0003:00019ef8       ?pHitWater@CTentacle@@2PAPBDA 100f9ef8     tentacle.obj
 0003:00019f08       ?m_SaveData@CTentacle@@2PAUTYPEDESCRIPTION@@A 100f9f08     tentacle.obj
 0003:0001a538       ?m_SaveData@CFrictionModifier@@2PAUTYPEDESCRIPTION@@A 100fa538     triggers.obj
 0003:0001a548       ?m_SaveData@CAutoTrigger@@2PAUTYPEDESCRIPTION@@A 100fa548     triggers.obj
 0003:0001a568       ?m_SaveData@CTriggerRelay@@2PAUTYPEDESCRIPTION@@A 100fa568     triggers.obj
 0003:0001a578       ?m_SaveData@CMultiManager@@2PAUTYPEDESCRIPTION@@A 100fa578     triggers.obj
 0003:0001a5c8       ?m_SaveData@CChangeLevel@@2PAUTYPEDESCRIPTION@@A 100fa5c8     triggers.obj
 0003:0001a608       ?m_SaveData@CTriggerChangeTarget@@2PAUTYPEDESCRIPTION@@A 100fa608     triggers.obj
 0003:0001a618       ?m_SaveData@CTriggerCamera@@2PAUTYPEDESCRIPTION@@A 100fa618     triggers.obj
 0003:0001af18       ?m_SaveData@CTripmineGrenade@@0PAUTYPEDESCRIPTION@@A 100faf18     tripmine.obj
 0003:0001b298       ?m_SaveData@CBaseTurret@@2PAUTYPEDESCRIPTION@@A 100fb298     turret.obj
 0003:0001b3f8       ?m_SaveData@CTurret@@2PAUTYPEDESCRIPTION@@A 100fb3f8     turret.obj
 0003:0001b998       ?seed_table@@3PAIA         100fb998     util.obj
 0003:0001bd98       ?gEntvarsDescription@@3PAUTYPEDESCRIPTION@@A 100fbd98     util.obj
 0003:0001c888       ?voice_serverdebug@@3Ucvar_s@@A 100fc888     voice_gamemgr.obj
 0003:0001c8a0       ?sv_alltalk@@3Ucvar_s@@A   100fc8a0     voice_gamemgr.obj
 0003:0001ca30       ?g_pModelNameLaser@@3PBDB  100fca30     weapons.obj
 0003:0001ca38       ?m_SaveData@CBasePlayerItem@@2PAUTYPEDESCRIPTION@@A 100fca38     weapons.obj
 0003:0001ca68       ?m_SaveData@CBasePlayerWeapon@@2PAUTYPEDESCRIPTION@@A 100fca68     weapons.obj
 0003:0001cad8       ?m_SaveData@CWeaponBox@@2PAUTYPEDESCRIPTION@@A 100fcad8     weapons.obj
 0003:0001cb18       ?m_SaveData@CRpg@@2PAUTYPEDESCRIPTION@@A 100fcb18     weapons.obj
 0003:0001cb38       ?m_SaveData@CRpgRocket@@2PAUTYPEDESCRIPTION@@A 100fcb38     weapons.obj
 0003:0001cb58       ?m_SaveData@CShotgun@@2PAUTYPEDESCRIPTION@@A 100fcb58     weapons.obj
 0003:0001cb98       ?m_SaveData@CGauss@@2PAUTYPEDESCRIPTION@@A 100fcb98     weapons.obj
 0003:0001cbd8       ?m_SaveData@CEgon@@2PAUTYPEDESCRIPTION@@A 100fcbd8     weapons.obj
 0003:0001cc28       ?m_SaveData@CSatchel@@2PAUTYPEDESCRIPTION@@A 100fcc28     weapons.obj
 0003:0001d470       ?gDecals@@3PAUDLL_DECALLIST@@A 100fd470     world.obj
 0003:0001d5c0       ?m_SaveData@CGlobalState@@2PAUTYPEDESCRIPTION@@A 100fd5c0     world.obj
 0003:0001d5d0       ?gGlobalEntitySaveData@@3PAUTYPEDESCRIPTION@@A 100fd5d0     world.obj
 0003:0001dc78       ?m_SaveData@CActAnimating@@2PAUTYPEDESCRIPTION@@A 100fdc78     xen.obj
 0003:0001dc88       ?m_SaveData@CXenPLight@@2PAUTYPEDESCRIPTION@@A 100fdc88     xen.obj
 0003:0001dc98       ?m_SaveData@CXenTree@@2PAUTYPEDESCRIPTION@@A 100fdc98     xen.obj
 0003:0001dca8       ?pAttackHitSounds@CXenTree@@2PAPBDA 100fdca8     xen.obj
 0003:0001dcb4       ?pAttackMissSounds@CXenTree@@2PAPBDA 100fdcb4     xen.obj
