 client

 Timestamp is 51a8c703 (Fri May 31 19:51:31 2013)

 Preferred load address is 10000000

 Start         Length     Name                   Class
 0001:00000000 00071b1aH .text                   CODE
 0001:00071b20 000013fcH .text$x                 CODE
 0002:00000000 000009f8H .idata$5                DATA
 0002:00000a00 0000c010H .rdata                  DATA
 0002:0000ca10 00000044H .rdata$r                DATA
 0002:0000ca58 00001318H .xdata$x                DATA
 0002:0000dd70 00000078H .idata$2                DATA
 0002:0000dde8 00000014H .idata$3                DATA
 0002:0000ddfc 000009f8H .idata$4                DATA
 0002:0000e7f4 00006716H .idata$6                DATA
 0002:00014f10 00006e93H .edata                  DATA
 0003:00000000 00000004H .CRT$XCA                DATA
 0003:00000004 00000094H .CRT$XCU                DATA
 0003:00000098 00000004H .CRT$XCZ                DATA
 0003:0000009c 00000004H .CRT$XIA                DATA
 0003:000000a0 0000000cH .CRT$XIC                DATA
 0003:000000ac 00000004H .CRT$XIY                DATA
 0003:000000b0 00000004H .CRT$XIZ                DATA
 0003:000000b4 00000004H .CRT$XPA                DATA
 0003:000000b8 00000004H .CRT$XPX                DATA
 0003:000000bc 00000004H .CRT$XPZ                DATA
 0003:000000c0 00000004H .CRT$XTA                DATA
 0003:000000c4 00000004H .CRT$XTB                DATA
 0003:000000c8 00000004H .CRT$XTZ                DATA
 0003:000000d0 00007dacH .data                   DATA
 0003:00007e80 0003873cH .bss                    DATA

  Address         Publics by Value              Rva+Base     Lib:Object

 0001:00000000       ?SUB_CallUseToggle@CBaseEntity@@QAEXXZ 10001000 f i crossbow.obj
 0001:00000030       ?CallMonsterThink@CBaseMonster@@QAEXXZ 10001030 f i crossbow.obj
 0001:00000050       _weapon_crossbow           10001050 f   crossbow.obj
 0001:00000061       ?Spawn@CCrossbow@@UAEXXZ   10001061 f   crossbow.obj
 0001:000000b4       ?AddToPlayer@CCrossbow@@UAEHPAVCBasePlayer@@@Z 100010b4 f   crossbow.obj
 0001:00000109       ?Precache@CCrossbow@@UAEXXZ 10001109 f   crossbow.obj
 0001:0000019b       ?GetItemInfo@CCrossbow@@UAEHPAUItemInfo@@@Z 1000119b f   crossbow.obj
 0001:0000022a       ?Deploy@CCrossbow@@UAEHXZ  1000122a f   crossbow.obj
 0001:0000027d       ?Holster@CCrossbow@@UAEXH@Z 1000127d f   crossbow.obj
 0001:00000303       ?PrimaryAttack@CCrossbow@@UAEXXZ 10001303 f   crossbow.obj
 0001:0000033a       ?FireSniperBolt@CCrossbow@@QAEXXZ 1000133a f   crossbow.obj
 0001:00000525       ?FireBolt@CCrossbow@@QAEXXZ 10001525 f   crossbow.obj
 0001:0000076d       ?SecondaryAttack@CCrossbow@@UAEXXZ 1000176d f   crossbow.obj
 0001:00000842       ?Reload@CCrossbow@@UAEXXZ  10001842 f   crossbow.obj
 0001:000008ef       ?WeaponIdle@CCrossbow@@UAEXXZ 100018ef f   crossbow.obj
 0001:00000a2f       _ammo_crossbow             10001a2f f   crossbow.obj
 0001:00000a40       ?ENT@@YAPAUedict_s@@PBUentvars_s@@@Z 10001a40 f i crossbow.obj
 0001:00000a50       ?MESSAGE_BEGIN@@YAXHHPBMPAUentvars_s@@@Z 10001a50 f i crossbow.obj
 0001:00000a80       ??0Vector@@QAE@QAM@Z       10001a80 f i crossbow.obj
 0001:00000a80       ??0Vector@@QAE@ABV0@@Z     10001a80 f i crossbow.obj
 0001:00000ac0       ??HVector@@QBE?AV0@ABV0@@Z 10001ac0 f i crossbow.obj
 0001:00000b20       ??0Vector@@QAE@MMM@Z       10001b20 f i crossbow.obj
 0001:00000b50       ??GVector@@QBE?AV0@ABV0@@Z 10001b50 f i crossbow.obj
 0001:00000bb0       ??DVector@@QBE?AV0@M@Z     10001bb0 f i crossbow.obj
 0001:00000c00       ?edict@CBaseEntity@@QAEPAUedict_s@@XZ 10001c00 f i crossbow.obj
 0001:00000c20       ??0TraceResult@@QAE@XZ     10001c20 f i crossbow.obj
 0001:00000c50       ?GetClassPtr@@YAPAVCCrossbow@@PAV1@@Z 10001c50 f i crossbow.obj
 0001:00000d10       ?GET_PRIVATE@@YAPAXPAUedict_s@@@Z 10001d10 f i crossbow.obj
 0001:00000d30       ?VARS@@YAPAUentvars_s@@PAUedict_s@@@Z 10001d30 f i crossbow.obj
 0001:00000d50       ??2CBaseEntity@@SAPAXIPAUentvars_s@@@Z 10001d50 f i crossbow.obj
 0001:00000d70       ??3CBaseEntity@@SAXPAXPAUentvars_s@@@Z 10001d70 f i crossbow.obj
 0001:00000d90       ?GetClassPtr@@YAPAVCCrossbowAmmo@@PAV1@@Z 10001d90 f i crossbow.obj
 0001:00000e50       ??0CCrossbow@@QAE@XZ       10001e50 f i crossbow.obj
 0001:00000e70       ?SecondaryAmmoIndex@CBasePlayerItem@@UAEHXZ 10001e70 f i crossbow.obj
 0001:00000e70       ?BloodColor@CBaseEntity@@UAEHXZ 10001e70 f i crossbow.obj
 0001:00000e70       ?PrimaryAmmoIndex@CBasePlayerItem@@UAEHXZ 10001e70 f i crossbow.obj
 0001:00000e70       ?BloodColor@CGrenade@@UAEHXZ 10001e70 f i crossbow.obj
 0001:00000e80       ?AddAmmo@CBasePlayerAmmo@@UAEHPAVCBaseEntity@@@Z 10001e80 f i crossbow.obj
 0001:00000e80       ?IsTriggered@CBaseEntity@@UAEHPAV1@@Z 10001e80 f i crossbow.obj
 0001:00000e80       ?FValidateCover@CBaseMonster@@UAEHABVVector@@@Z 10001e80 f i crossbow.obj
 0001:00000ea0       ?Draw@CHudBase@@UAEHM@Z    10001ea0 f i crossbow.obj
 0001:00000ea0       ?GetItemInfo@CBasePlayerItem@@UAEHPAUItemInfo@@@Z 10001ea0 f i crossbow.obj
 0001:00000ea0       ?AddDuplicate@CBasePlayerItem@@UAEHPAV1@@Z 10001ea0 f i crossbow.obj
 0001:00000ea0       ?UpdateClientData@CBasePlayerItem@@UAEHPAVCBasePlayer@@@Z 10001ea0 f i crossbow.obj
 0001:00000ea0       ?AddPlayerItem@CBaseEntity@@UAEHPAVCBasePlayerItem@@@Z 10001ea0 f i crossbow.obj
 0001:00000ea0       ?OnControls@CBaseEntity@@UAEHPAUentvars_s@@@Z 10001ea0 f i crossbow.obj
 0001:00000ea0       ?RemovePlayerItem@CBaseEntity@@UAEHPAVCBasePlayerItem@@@Z 10001ea0 f i crossbow.obj
 0001:00000eb0       ?GiveAmmo@CBaseEntity@@UAEHHPADH@Z 10001eb0 f i crossbow.obj
 0001:00000ec0       ?GetDelay@CBaseEntity@@UAEMXZ 10001ec0 f i crossbow.obj
 0001:00000ee0       ?IsMoving@CBaseEntity@@UAEHXZ 10001ee0 f i crossbow.obj
 0001:00000f00       ??9Vector@@QBEHABV0@@Z     10001f00 f i crossbow.obj
 0001:00000f20       ??8Vector@@QBEHABV0@@Z     10001f20 f i crossbow.obj
 0001:00000f80       ?IsBSPModel@CBaseEntity@@UAEHXZ 10001f80 f i crossbow.obj
 0001:00000fc0       ?ReflectGauss@CBaseEntity@@UAEHXZ 10001fc0 f i crossbow.obj
 0001:00001010       ?HasTarget@CBaseEntity@@UAEHH@Z 10002010 f i crossbow.obj
 0001:00001050       ?FStrEq@@YAHPBD0@Z         10002050 f i crossbow.obj
 0001:00001070       ?TeamID@CBaseEntity@@UAEPBDXZ 10002070 f i crossbow.obj
 0001:00001080       ?Think@CBaseEntity@@UAEXXZ 10002080 f i crossbow.obj
 0001:000010a0       ?Touch@CBaseEntity@@UAEXPAV1@@Z 100020a0 f i crossbow.obj
 0001:000010d0       ?Use@CBaseEntity@@UAEXPAV1@0W4USE_TYPE@@M@Z 100020d0 f i crossbow.obj
 0001:00001100       ?Blocked@CBaseEntity@@UAEXPAV1@@Z 10002100 f i crossbow.obj
 0001:00001130       ?Center@CBaseEntity@@UAE?AVVector@@XZ 10002130 f i crossbow.obj
 0001:00001180       ?EyePosition@CBaseEntity@@UAE?AVVector@@XZ 10002180 f i crossbow.obj
 0001:00001180       ?EarPosition@CBaseEntity@@UAE?AVVector@@XZ 10002180 f i crossbow.obj
 0001:000011c0       ?BodyTarget@CBaseEntity@@UAE?AVVector@@ABV2@@Z 100021c0 f i crossbow.obj
 0001:000011f0       ?Illumination@CBaseEntity@@UAEHXZ 100021f0 f i crossbow.obj
 0001:00001220       ?AddWeapon@CBasePlayerWeapon@@UAEHXZ 10002220 f i crossbow.obj
 0001:00001250       ?iItemSlot@CBasePlayerItem@@UAEHXZ 10002250 f i crossbow.obj
 0001:00001250       ?Init@CHudBase@@UAEHXZ     10002250 f i crossbow.obj
 0001:00001250       ?FBecomeProne@CBaseEntity@@UAEHXZ 10002250 f i crossbow.obj
 0001:00001250       ?UseDecrement@CBasePlayerWeapon@@UAEHXZ 10002250 f i crossbow.obj
 0001:00001250       ?IsPlayer@CBaseEntity@@UAEHXZ 10002250 f i crossbow.obj
 0001:00001250       ?ShouldWeaponIdle@CBasePlayerWeapon@@UAEHXZ 10002250 f i crossbow.obj
 0001:00001250       ?Respawn@CBaseEntity@@UAEPAV1@XZ 10002250 f i crossbow.obj
 0001:00001250       ?Classify@CBaseEntity@@UAEHXZ 10002250 f i crossbow.obj
 0001:00001250       ?ShouldFadeOnDeath@CBasePlayer@@UAEHXZ 10002250 f i crossbow.obj
 0001:00001250       ?IsNotValid@CommandButton@@UAEHXZ 10002250 f i crossbow.obj
 0001:00001250       ?VidInit@CHudBase@@UAEHXZ  10002250 f i crossbow.obj
 0001:00001250       ?MyMonsterPointer@CBaseEntity@@UAEPAVCBaseMonster@@XZ 10002250 f i crossbow.obj
 0001:00001250       ?GetToggleState@CBaseEntity@@UAEHXZ 10002250 f i crossbow.obj
 0001:00001250       ?IsNetClient@CBaseEntity@@UAEHXZ 10002250 f i crossbow.obj
 0001:00001250       ?IsSneaking@CBaseEntity@@UAEHXZ 10002250 f i crossbow.obj
 0001:00001250       ?GetWeaponPtr@CBasePlayerItem@@UAEPAV1@XZ 10002250 f i crossbow.obj
 0001:00001250       ?MySquadMonsterPointer@CBaseEntity@@UAEPAVCSquadMonster@@XZ 10002250 f i crossbow.obj
 0001:00001260       ??0CCrossbowAmmo@@QAE@XZ   10002260 f i crossbow.obj
 0001:00001280       ?KeyValue@CBaseEntity@@UAEXPAUKeyValueData_s@@@Z 10002280 f i crossbow.obj
 0001:000012a0       ?Spawn@CCrossbowAmmo@@EAEXXZ 100022a0 f i crossbow.obj
 0001:000012e0       ?Precache@CCrossbowAmmo@@EAEXXZ 100022e0 f i crossbow.obj
 0001:00001310       ?AddAmmo@CCrossbowAmmo@@EAEHPAVCBaseEntity@@@Z 10002310 f i crossbow.obj
 0001:00001370       ?EMIT_SOUND@@YAXPAUedict_s@@HPBDMM@Z 10002370 f i crossbow.obj
 0001:000013a0       ??0CBasePlayerWeapon@@QAE@XZ 100023a0 f i crossbow.obj
 0001:000013c0       ??0CBasePlayerAmmo@@QAE@XZ 100023c0 f i crossbow.obj
 0001:000013e0       ??0CBasePlayerItem@@QAE@XZ 100023e0 f i crossbow.obj
 0001:00001400       ??0CBaseEntity@@QAE@XZ     10002400 f i crossbow.obj
 0001:00001420       ??0CBaseAnimating@@QAE@XZ  10002420 f i crossbow.obj
 0001:00001440       ??0CBaseDelay@@QAE@XZ      10002440 f i crossbow.obj
 0001:00001460       _weapon_crowbar            10002460 f   crowbar.obj
 0001:00001471       ?Spawn@CCrowbar@@UAEXXZ    10002471 f   crowbar.obj
 0001:000014c4       ?Precache@CCrowbar@@UAEXXZ 100024c4 f   crowbar.obj
 0001:00001567       ?GetItemInfo@CCrowbar@@UAEHPAUItemInfo@@@Z 10002567 f   crowbar.obj
 0001:000015ec       ?Deploy@CCrowbar@@UAEHXZ   100025ec f   crowbar.obj
 0001:00001614       ?Holster@CCrowbar@@UAEXH@Z 10002614 f   crowbar.obj
 0001:00001651       ?FindHullIntersection@@YAXABVVector@@AAUTraceResult@@PAM2PAUedict_s@@@Z 10002651 f   crowbar.obj
 0001:0000180d       ?PrimaryAttack@CCrowbar@@UAEXXZ 1000280d f   crowbar.obj
 0001:0000184f       ?Smack@CCrowbar@@QAEXXZ    1000284f f   crowbar.obj
 0001:0000186d       ?SwingAgain@CCrowbar@@QAEXXZ 1000286d f   crowbar.obj
 0001:00001882       ?Swing@CCrowbar@@QAEHH@Z   10002882 f   crowbar.obj
 0001:00001a90       ?Length@Vector@@QBEMXZ     10002a90 f i crowbar.obj
 0001:00001ae0       ?GetClassPtr@@YAPAVCCrowbar@@PAV1@@Z 10002ae0 f i crowbar.obj
 0001:00001ba0       ??0CCrowbar@@QAE@XZ        10002ba0 f i crowbar.obj
 0001:00001bd0       _weapon_egon               10002bd0 f   egon.obj
 0001:00001be1       ?Spawn@CEgon@@UAEXXZ       10002be1 f   egon.obj
 0001:00001c34       ?Precache@CEgon@@UAEXXZ    10002c34 f   egon.obj
 0001:00001d0d       ?Deploy@CEgon@@UAEHXZ      10002d0d f   egon.obj
 0001:00001d4c       ?AddToPlayer@CEgon@@UAEHPAVCBasePlayer@@@Z 10002d4c f   egon.obj
 0001:00001da1       ?Holster@CEgon@@UAEXH@Z    10002da1 f   egon.obj
 0001:00001de6       ?GetItemInfo@CEgon@@UAEHPAUItemInfo@@@Z 10002de6 f   egon.obj
 0001:00001e7f       ?GetPulseInterval@CEgon@@QAEMXZ 10002e7f f   egon.obj
 0001:00001e90       ?GetDischargeInterval@CEgon@@QAEMXZ 10002e90 f   egon.obj
 0001:00001ea1       ?HasAmmo@CEgon@@QAEHXZ     10002ea1 f   egon.obj
 0001:00001ec1       ?UseAmmo@CEgon@@QAEXH@Z    10002ec1 f   egon.obj
 0001:00001f34       ?Attack@CEgon@@QAEXXZ      10002f34 f   egon.obj
 0001:000021e7       ?PrimaryAttack@CEgon@@UAEXXZ 100031e7 f   egon.obj
 0001:00002207       ?Fire@CEgon@@QAEXABVVector@@0@Z 10003207 f   egon.obj
 0001:000023b5       ?UpdateEffect@CEgon@@QAEXABVVector@@0M@Z 100033b5 f   egon.obj
 0001:000023c2       ?CreateEffect@CEgon@@QAEXXZ 100033c2 f   egon.obj
 0001:000023cd       ?DestroyEffect@CEgon@@QAEXXZ 100033cd f   egon.obj
 0001:000023d8       ?WeaponIdle@CEgon@@UAEXXZ  100033d8 f   egon.obj
 0001:000024be       ?EndAttack@CEgon@@QAEXXZ   100034be f   egon.obj
 0001:0000257a       _ammo_egonclip             1000357a f   egon.obj
 0001:00002590       ?GetClassPtr@@YAPAVCEgon@@PAV1@@Z 10003590 f i egon.obj
 0001:00002650       ?GetClassPtr@@YAPAVCEgonAmmo@@PAV1@@Z 10003650 f i egon.obj
 0001:00002710       ??0CEgon@@QAE@XZ           10003710 f i egon.obj
 0001:00002730       ??0CEgonAmmo@@QAE@XZ       10003730 f i egon.obj
 0001:00002750       ?Precache@CMP5Chainammo@@EAEXXZ 10003750 f i egon.obj
 0001:00002750       ?Precache@CEgonAmmo@@EAEXXZ 10003750 f i egon.obj
 0001:00002780       ??4?$Dar@PAVInputSignal@vgui@@@vgui@@QAEAAV01@ABV01@@Z 10003780 f i ev_hldm.obj
 0001:00002780       ??4?$Dar@H@vgui@@QAEAAV01@ABV01@@Z 10003780 f i ev_hldm.obj
 0001:00002780       ??4?$Dar@PAVSurfaceBase@vgui@@@vgui@@QAEAAV01@ABV01@@Z 10003780 f i ev_hldm.obj
 0001:00002780       ??4?$Dar@PAVFrameSignal@vgui@@@vgui@@QAEAAV01@ABV01@@Z 10003780 f i ev_hldm.obj
 0001:00002780       ??4?$Dar@PAVIntChangeSignal@vgui@@@vgui@@QAEAAV01@ABV01@@Z 10003780 f i ev_hldm.obj
 0001:00002780       ??4?$Dar@PAVDesktopIcon@vgui@@@vgui@@QAEAAV01@ABV01@@Z 10003780 f i ev_hldm.obj
 0001:00002780       ??4?$Dar@PAVLabel@vgui@@@vgui@@QAEAAV01@ABV01@@Z 10003780 f i ev_hldm.obj
 0001:00002780       ??4?$Dar@PAV?$Dar@D@vgui@@@vgui@@QAEAAV01@ABV01@@Z 10003780 f i ev_hldm.obj
 0001:00002780       ??4?$Dar@PAVChangeSignal@vgui@@@vgui@@QAEAAV01@ABV01@@Z 10003780 f i ev_hldm.obj
 0001:00002780       ??4?$Dar@D@vgui@@QAEAAV01@ABV01@@Z 10003780 f i ev_hldm.obj
 0001:00002780       ??4?$Dar@PAVFrame@vgui@@@vgui@@QAEAAV01@ABV01@@Z 10003780 f i ev_hldm.obj
 0001:00002780       ??4?$Dar@PAVTickSignal@vgui@@@vgui@@QAEAAV01@ABV01@@Z 10003780 f i ev_hldm.obj
 0001:00002780       ??4?$Dar@PAVRepaintSignal@vgui@@@vgui@@QAEAAV01@ABV01@@Z 10003780 f i ev_hldm.obj
 0001:00002780       ??4?$Dar@PAD@vgui@@QAEAAV01@ABV01@@Z 10003780 f i ev_hldm.obj
 0001:00002780       ??4?$Dar@PAVActionSignal@vgui@@@vgui@@QAEAAV01@ABV01@@Z 10003780 f i ev_hldm.obj
 0001:00002780       ??4?$Dar@PAVFocusChangeSignal@vgui@@@vgui@@QAEAAV01@ABV01@@Z 10003780 f i ev_hldm.obj
 0001:00002780       ??4?$Dar@PAVButton@vgui@@@vgui@@QAEAAV01@ABV01@@Z 10003780 f i ev_hldm.obj
 0001:00002780       ??4?$Dar@PAVPanel@vgui@@@vgui@@QAEAAV01@ABV01@@Z 10003780 f i ev_hldm.obj
 0001:000027b0       ??0Scheme@vgui@@QAE@ABV01@@Z 100037b0 f i ev_hldm.obj
 0001:00002820       ??4Scheme@vgui@@QAEAAV01@ABV01@@Z 10003820 f i ev_hldm.obj
 0001:000028d0       ??0Color@vgui@@QAE@ABV01@@Z 100038d0 f i ev_hldm.obj
 0001:00002910       ??4Color@vgui@@QAEAAV01@ABV01@@Z 10003910 f i ev_hldm.obj
 0001:00002960       ??0Panel@vgui@@QAE@ABV01@@Z 10003960 f i ev_hldm.obj
 0001:00002ba0       ??4Panel@vgui@@QAEAAV01@ABV01@@Z 10003ba0 f i ev_hldm.obj
 0001:00002e70       ??0Label@vgui@@QAE@XZ      10003e70 f i ev_hldm.obj
 0001:00002eb0       ??0Label@vgui@@QAE@ABV01@@Z 10003eb0 f i ev_hldm.obj
 0001:00002f60       ??4Label@vgui@@QAEAAV01@ABV01@@Z 10003f60 f i ev_hldm.obj
 0001:00003000       ??0Image@vgui@@QAE@ABV01@@Z 10004000 f i ev_hldm.obj
 0001:00003060       ??4Image@vgui@@QAEAAV01@ABV01@@Z 10004060 f i ev_hldm.obj
 0001:000030f0       ??0Border@vgui@@QAE@ABV01@@Z 100040f0 f i ev_hldm.obj
 0001:00003150       ??4Border@vgui@@QAEAAV01@ABV01@@Z 10004150 f i ev_hldm.obj
 0001:000031b0       ?setLineColor@LineBorder@vgui@@QAEXHHHH@Z 100041b0 f i ev_hldm.obj
 0001:000031f0       ??0LineBorder@vgui@@QAE@ABV01@@Z 100041f0 f i ev_hldm.obj
 0001:00003230       ??4LineBorder@vgui@@QAEAAV01@ABV01@@Z 10004230 f i ev_hldm.obj
 0001:00003260       ??0ImagePanel@vgui@@QAE@XZ 10004260 f i ev_hldm.obj
 0001:00003290       ??0ImagePanel@vgui@@QAE@ABV01@@Z 10004290 f i ev_hldm.obj
 0001:000032d0       ??0Bitmap@vgui@@QAE@ABV01@@Z 100042d0 f i ev_hldm.obj
 0001:00003320       ??4Bitmap@vgui@@QAEAAV01@ABV01@@Z 10004320 f i ev_hldm.obj
 0001:00003360       ??0BitmapTGA@vgui@@QAE@ABV01@@Z 10004360 f i ev_hldm.obj
 0001:00003390       ??4BitmapTGA@vgui@@QAEAAV01@ABV01@@Z 10004390 f i ev_hldm.obj
 0001:000033b0       ??0InputSignal@vgui@@QAE@XZ 100043b0 f i ev_hldm.obj
 0001:000033d0       ??0InputSignal@vgui@@QAE@ABV01@@Z 100043d0 f i ev_hldm.obj
 0001:000033f0       ??0Button@vgui@@QAE@ABV01@@Z 100043f0 f i ev_hldm.obj
 0001:000034c0       ??4Button@vgui@@QAEAAV01@ABV01@@Z 100044c0 f i ev_hldm.obj
 0001:00003580       ??_H@YGXPAXIHP6EX0@Z@Z     10004580 f i ev_hldm.obj
 0001:000035b0       ?EV_HLDM_PlayTextureSound@@YAMHPAUpmtrace_s@@PAM1H@Z 100045b0 f   ev_hldm.obj
 0001:000039a2       ?EV_HLDM_DamageDecal@@YAPADPAUphysent_s@@@Z 100049a2 f   ev_hldm.obj
 0001:00003a2c       ?EV_HLDM_GunshotDecalTrace@@YAXPAUpmtrace_s@@PAD@Z 10004a2c f   ev_hldm.obj
 0001:00003c4d       ?EV_HLDM_DecalGunshot@@YAXPAUpmtrace_s@@H@Z 10004c4d f   ev_hldm.obj
 0001:00003c9b       ?EV_HLDM_CheckTracer@@YAHHPAM000HHPAH@Z 10004c9b f   ev_hldm.obj
 0001:00003dd9       ?EV_HLDM_FireBullets@@YAXHPAM00H00MHHPAHMM@Z 10004dd9 f   ev_hldm.obj
 0001:00004150       _EV_FireGlock1             10005150 f   ev_hldm.obj
 0001:0000446b       _EV_FireGlock2             1000546b f   ev_hldm.obj
 0001:00004783       _EV_FireShotGunDouble      10005783 f   ev_hldm.obj
 0001:00004b35       _EV_FireShotGunSingle      10005b35 f   ev_hldm.obj
 0001:00004ec5       _EV_FireMP5                10005ec5 f   ev_hldm.obj
 0001:000052bb       _EV_FireMP52               100062bb f   ev_hldm.obj
 0001:000053d0       _EV_GrenadeFire            100063d0 f   ev_hldm.obj
 0001:00005425       _EV_FirePython             10006425 f   ev_hldm.obj
 0001:00005719       _EV_SpinGauss              10006719 f   ev_hldm.obj
 0001:000058bb       ?EV_StopPreviousGauss@@YAXH@Z 100068bb f   ev_hldm.obj
 0001:000058eb       _EV_FireGauss              100068eb f   ev_hldm.obj
 0001:00006993       _EV_Crowbar                10007993 f   ev_hldm.obj
 0001:00006aa9       ?EV_BoltCallback@@YAXPAUtempent_s@@MM@Z 10007aa9 f   ev_hldm.obj
 0001:00006af1       _EV_FireCrossbow2          10007af1 f   ev_hldm.obj
 0001:00007029       _EV_FireCrossbow           10008029 f   ev_hldm.obj
 0001:00007153       _EV_FireRpg                10008153 f   ev_hldm.obj
 0001:0000722a       _EV_EgonFire               1000822a f   ev_hldm.obj
 0001:000076c6       _EV_EgonStop               100086c6 f   ev_hldm.obj
 0001:000077ae       _EV_HornetGunFire          100087ae f   ev_hldm.obj
 0001:00007953       _EV_TripmineFire           10008953 f   ev_hldm.obj
 0001:00007afb       _EV_SnarkFire              10008afb f   ev_hldm.obj
 0001:00007cf5       _EV_TrainPitchAdjust       10008cf5 f   ev_hldm.obj
 0001:00007f0d       ?EV_TFC_IsAllyTeam@@YAHHH@Z 10008f0d f   ev_hldm.obj
 0001:00007f20       ?CVAR_GET_FLOAT@@YAMPBD@Z  10008f20 f i ev_hldm.obj
 0001:00007f40       ??0Vector@@QAE@HHH@Z       10008f40 f i ev_hldm.obj
 0001:00007f70       ??0pmtrace_s@@QAE@XZ       10008f70 f i ev_hldm.obj
 0001:00007fa0       ??0?$Dar@D@vgui@@QAE@XZ    10008fa0 f i ev_hldm.obj
 0001:00007fe0       ??0?$Dar@D@vgui@@QAE@H@Z   10008fe0 f i ev_hldm.obj
 0001:00008020       ?ensureCapacity@?$Dar@D@vgui@@QAEXH@Z 10009020 f i ev_hldm.obj
 0001:00008100       ?addElement@?$Dar@D@vgui@@QAEXD@Z 10009100 f i ev_hldm.obj
 0001:00008140       ?hasElement@?$Dar@D@vgui@@QAE_ND@Z 10009140 f i ev_hldm.obj
 0001:00008190       ?putElement@?$Dar@D@vgui@@QAEXD@Z 10009190 f i ev_hldm.obj
 0001:000081c0       ?insertElementAt@?$Dar@D@vgui@@QAEXDH@Z 100091c0 f i ev_hldm.obj
 0001:00008260       ?setElementAt@?$Dar@D@vgui@@QAEXDH@Z 10009260 f i ev_hldm.obj
 0001:00008290       ?removeElementAt@?$Dar@D@vgui@@QAEXH@Z 10009290 f i ev_hldm.obj
 0001:00008300       ?removeElement@?$Dar@D@vgui@@QAEXD@Z 10009300 f i ev_hldm.obj
 0001:00008350       ??A?$Dar@D@vgui@@QAEDH@Z   10009350 f i ev_hldm.obj
 0001:00008380       ?putElement@?$Dar@PAD@vgui@@QAEXPAD@Z 10009380 f i ev_hldm.obj
 0001:000083b0       ?removeElement@?$Dar@PAVLabel@vgui@@@vgui@@QAEXPAVLabel@2@@Z 100093b0 f i ev_hldm.obj
 0001:000083b0       ?removeElement@?$Dar@PAVFocusChangeSignal@vgui@@@vgui@@QAEXPAVFocusChangeSignal@2@@Z 100093b0 f i ev_hldm.obj
 0001:000083b0       ?removeElement@?$Dar@PAVIntChangeSignal@vgui@@@vgui@@QAEXPAVIntChangeSignal@2@@Z 100093b0 f i ev_hldm.obj
 0001:000083b0       ?removeElement@?$Dar@PAVPanel@vgui@@@vgui@@QAEXPAVPanel@2@@Z 100093b0 f i ev_hldm.obj
 0001:000083b0       ?removeElement@?$Dar@PAVDesktopIcon@vgui@@@vgui@@QAEXPAVDesktopIcon@2@@Z 100093b0 f i ev_hldm.obj
 0001:000083b0       ?removeElement@?$Dar@PAVFrame@vgui@@@vgui@@QAEXPAVFrame@2@@Z 100093b0 f i ev_hldm.obj
 0001:000083b0       ?removeElement@?$Dar@PAVTickSignal@vgui@@@vgui@@QAEXPAVTickSignal@2@@Z 100093b0 f i ev_hldm.obj
 0001:000083b0       ?removeElement@?$Dar@PAVInputSignal@vgui@@@vgui@@QAEXPAVInputSignal@2@@Z 100093b0 f i ev_hldm.obj
 0001:000083b0       ?removeElement@?$Dar@PAV?$Dar@D@vgui@@@vgui@@QAEXPAV?$Dar@D@2@@Z 100093b0 f i ev_hldm.obj
 0001:000083b0       ?removeElement@?$Dar@H@vgui@@QAEXH@Z 100093b0 f i ev_hldm.obj
 0001:000083b0       ?removeElement@?$Dar@PAVButton@vgui@@@vgui@@QAEXPAVButton@2@@Z 100093b0 f i ev_hldm.obj
 0001:000083b0       ?removeElement@?$Dar@PAVRepaintSignal@vgui@@@vgui@@QAEXPAVRepaintSignal@2@@Z 100093b0 f i ev_hldm.obj
 0001:000083b0       ?removeElement@?$Dar@PAVSurfaceBase@vgui@@@vgui@@QAEXPAVSurfaceBase@2@@Z 100093b0 f i ev_hldm.obj
 0001:000083b0       ?removeElement@?$Dar@PAVActionSignal@vgui@@@vgui@@QAEXPAVActionSignal@2@@Z 100093b0 f i ev_hldm.obj
 0001:000083b0       ?removeElement@?$Dar@PAVFrameSignal@vgui@@@vgui@@QAEXPAVFrameSignal@2@@Z 100093b0 f i ev_hldm.obj
 0001:000083b0       ?removeElement@?$Dar@PAD@vgui@@QAEXPAD@Z 100093b0 f i ev_hldm.obj
 0001:000083b0       ?removeElement@?$Dar@PAVChangeSignal@vgui@@@vgui@@QAEXPAVChangeSignal@2@@Z 100093b0 f i ev_hldm.obj
 0001:00008400       ?putElement@?$Dar@H@vgui@@QAEXH@Z 10009400 f i ev_hldm.obj
 0001:00008430       ??0?$Dar@H@vgui@@QAE@XZ    10009430 f i ev_hldm.obj
 0001:00008430       ??0?$Dar@PAV?$Dar@D@vgui@@@vgui@@QAE@XZ 10009430 f i ev_hldm.obj
 0001:00008430       ??0?$Dar@PAVInputSignal@vgui@@@vgui@@QAE@XZ 10009430 f i ev_hldm.obj
 0001:00008430       ??0?$Dar@PAVFocusChangeSignal@vgui@@@vgui@@QAE@XZ 10009430 f i ev_hldm.obj
 0001:00008430       ??0?$Dar@PAVTickSignal@vgui@@@vgui@@QAE@XZ 10009430 f i ev_hldm.obj
 0001:00008430       ??0?$Dar@PAVPanel@vgui@@@vgui@@QAE@XZ 10009430 f i ev_hldm.obj
 0001:00008430       ??0?$Dar@PAVFrameSignal@vgui@@@vgui@@QAE@XZ 10009430 f i ev_hldm.obj
 0001:00008430       ??0?$Dar@PAVDesktopIcon@vgui@@@vgui@@QAE@XZ 10009430 f i ev_hldm.obj
 0001:00008430       ??0?$Dar@PAVLabel@vgui@@@vgui@@QAE@XZ 10009430 f i ev_hldm.obj
 0001:00008430       ??0?$Dar@PAD@vgui@@QAE@XZ  10009430 f i ev_hldm.obj
 0001:00008430       ??0?$Dar@PAVRepaintSignal@vgui@@@vgui@@QAE@XZ 10009430 f i ev_hldm.obj
 0001:00008430       ??0?$Dar@PAVButton@vgui@@@vgui@@QAE@XZ 10009430 f i ev_hldm.obj
 0001:00008430       ??0?$Dar@PAVActionSignal@vgui@@@vgui@@QAE@XZ 10009430 f i ev_hldm.obj
 0001:00008430       ??0?$Dar@PAVChangeSignal@vgui@@@vgui@@QAE@XZ 10009430 f i ev_hldm.obj
 0001:00008430       ??0?$Dar@PAVIntChangeSignal@vgui@@@vgui@@QAE@XZ 10009430 f i ev_hldm.obj
 0001:00008430       ??0?$Dar@PAVFrame@vgui@@@vgui@@QAE@XZ 10009430 f i ev_hldm.obj
 0001:00008430       ??0?$Dar@PAVSurfaceBase@vgui@@@vgui@@QAE@XZ 10009430 f i ev_hldm.obj
 0001:00008470       ?hasElement@?$Dar@PAVRepaintSignal@vgui@@@vgui@@QAE_NPAVRepaintSignal@2@@Z 10009470 f i ev_hldm.obj
 0001:00008470       ?hasElement@?$Dar@PAVPanel@vgui@@@vgui@@QAE_NPAVPanel@2@@Z 10009470 f i ev_hldm.obj
 0001:00008470       ?hasElement@?$Dar@PAVChangeSignal@vgui@@@vgui@@QAE_NPAVChangeSignal@2@@Z 10009470 f i ev_hldm.obj
 0001:00008470       ?hasElement@?$Dar@H@vgui@@QAE_NH@Z 10009470 f i ev_hldm.obj
 0001:00008470       ?hasElement@?$Dar@PAD@vgui@@QAE_NPAD@Z 10009470 f i ev_hldm.obj
 0001:00008470       ?hasElement@?$Dar@PAVFocusChangeSignal@vgui@@@vgui@@QAE_NPAVFocusChangeSignal@2@@Z 10009470 f i ev_hldm.obj
 0001:00008470       ?hasElement@?$Dar@PAVButton@vgui@@@vgui@@QAE_NPAVButton@2@@Z 10009470 f i ev_hldm.obj
 0001:00008470       ?hasElement@?$Dar@PAVLabel@vgui@@@vgui@@QAE_NPAVLabel@2@@Z 10009470 f i ev_hldm.obj
 0001:00008470       ?hasElement@?$Dar@PAVSurfaceBase@vgui@@@vgui@@QAE_NPAVSurfaceBase@2@@Z 10009470 f i ev_hldm.obj
 0001:00008470       ?hasElement@?$Dar@PAVIntChangeSignal@vgui@@@vgui@@QAE_NPAVIntChangeSignal@2@@Z 10009470 f i ev_hldm.obj
 0001:00008470       ?hasElement@?$Dar@PAVTickSignal@vgui@@@vgui@@QAE_NPAVTickSignal@2@@Z 10009470 f i ev_hldm.obj
 0001:00008470       ?hasElement@?$Dar@PAVDesktopIcon@vgui@@@vgui@@QAE_NPAVDesktopIcon@2@@Z 10009470 f i ev_hldm.obj
 0001:00008470       ?hasElement@?$Dar@PAV?$Dar@D@vgui@@@vgui@@QAE_NPAV?$Dar@D@2@@Z 10009470 f i ev_hldm.obj
 0001:00008470       ?hasElement@?$Dar@PAVInputSignal@vgui@@@vgui@@QAE_NPAVInputSignal@2@@Z 10009470 f i ev_hldm.obj
 0001:00008470       ?hasElement@?$Dar@PAVFrame@vgui@@@vgui@@QAE_NPAVFrame@2@@Z 10009470 f i ev_hldm.obj
 0001:00008470       ?hasElement@?$Dar@PAVActionSignal@vgui@@@vgui@@QAE_NPAVActionSignal@2@@Z 10009470 f i ev_hldm.obj
 0001:00008470       ?hasElement@?$Dar@PAVFrameSignal@vgui@@@vgui@@QAE_NPAVFrameSignal@2@@Z 10009470 f i ev_hldm.obj
 0001:000084c0       ?putElement@?$Dar@PAVButton@vgui@@@vgui@@QAEXPAVButton@2@@Z 100094c0 f i ev_hldm.obj
 0001:000084f0       ?putElement@?$Dar@PAVSurfaceBase@vgui@@@vgui@@QAEXPAVSurfaceBase@2@@Z 100094f0 f i ev_hldm.obj
 0001:00008520       ??0?$Dar@PAVActionSignal@vgui@@@vgui@@QAE@H@Z 10009520 f i ev_hldm.obj
 0001:00008520       ??0?$Dar@PAD@vgui@@QAE@H@Z 10009520 f i ev_hldm.obj
 0001:00008520       ??0?$Dar@PAVLabel@vgui@@@vgui@@QAE@H@Z 10009520 f i ev_hldm.obj
 0001:00008520       ??0?$Dar@PAVDesktopIcon@vgui@@@vgui@@QAE@H@Z 10009520 f i ev_hldm.obj
 0001:00008520       ??0?$Dar@PAVIntChangeSignal@vgui@@@vgui@@QAE@H@Z 10009520 f i ev_hldm.obj
 0001:00008520       ??0?$Dar@PAVFrame@vgui@@@vgui@@QAE@H@Z 10009520 f i ev_hldm.obj
 0001:00008520       ??0?$Dar@H@vgui@@QAE@H@Z   10009520 f i ev_hldm.obj
 0001:00008520       ??0?$Dar@PAVSurfaceBase@vgui@@@vgui@@QAE@H@Z 10009520 f i ev_hldm.obj
 0001:00008520       ??0?$Dar@PAVInputSignal@vgui@@@vgui@@QAE@H@Z 10009520 f i ev_hldm.obj
 0001:00008520       ??0?$Dar@PAVChangeSignal@vgui@@@vgui@@QAE@H@Z 10009520 f i ev_hldm.obj
 0001:00008520       ??0?$Dar@PAVFocusChangeSignal@vgui@@@vgui@@QAE@H@Z 10009520 f i ev_hldm.obj
 0001:00008520       ??0?$Dar@PAV?$Dar@D@vgui@@@vgui@@QAE@H@Z 10009520 f i ev_hldm.obj
 0001:00008520       ??0?$Dar@PAVTickSignal@vgui@@@vgui@@QAE@H@Z 10009520 f i ev_hldm.obj
 0001:00008520       ??0?$Dar@PAVFrameSignal@vgui@@@vgui@@QAE@H@Z 10009520 f i ev_hldm.obj
 0001:00008520       ??0?$Dar@PAVButton@vgui@@@vgui@@QAE@H@Z 10009520 f i ev_hldm.obj
 0001:00008520       ??0?$Dar@PAVRepaintSignal@vgui@@@vgui@@QAE@H@Z 10009520 f i ev_hldm.obj
 0001:00008520       ??0?$Dar@PAVPanel@vgui@@@vgui@@QAE@H@Z 10009520 f i ev_hldm.obj
 0001:00008560       ?putElement@?$Dar@PAVInputSignal@vgui@@@vgui@@QAEXPAVInputSignal@2@@Z 10009560 f i ev_hldm.obj
 0001:00008590       ?putElement@?$Dar@PAVFocusChangeSignal@vgui@@@vgui@@QAEXPAVFocusChangeSignal@2@@Z 10009590 f i ev_hldm.obj
 0001:000085c0       ?putElement@?$Dar@PAVFrameSignal@vgui@@@vgui@@QAEXPAVFrameSignal@2@@Z 100095c0 f i ev_hldm.obj
 0001:000085f0       ?setElementAt@?$Dar@PAVDesktopIcon@vgui@@@vgui@@QAEXPAVDesktopIcon@2@H@Z 100095f0 f i ev_hldm.obj
 0001:000085f0       ?setElementAt@?$Dar@PAV?$Dar@D@vgui@@@vgui@@QAEXPAV?$Dar@D@2@H@Z 100095f0 f i ev_hldm.obj
 0001:000085f0       ?setElementAt@?$Dar@PAVActionSignal@vgui@@@vgui@@QAEXPAVActionSignal@2@H@Z 100095f0 f i ev_hldm.obj
 0001:000085f0       ?setElementAt@?$Dar@PAVLabel@vgui@@@vgui@@QAEXPAVLabel@2@H@Z 100095f0 f i ev_hldm.obj
 0001:000085f0       ?setElementAt@?$Dar@PAVFrameSignal@vgui@@@vgui@@QAEXPAVFrameSignal@2@H@Z 100095f0 f i ev_hldm.obj
 0001:000085f0       ?setElementAt@?$Dar@PAVChangeSignal@vgui@@@vgui@@QAEXPAVChangeSignal@2@H@Z 100095f0 f i ev_hldm.obj
 0001:000085f0       ?setElementAt@?$Dar@PAVFrame@vgui@@@vgui@@QAEXPAVFrame@2@H@Z 100095f0 f i ev_hldm.obj
 0001:000085f0       ?setElementAt@?$Dar@PAVRepaintSignal@vgui@@@vgui@@QAEXPAVRepaintSignal@2@H@Z 100095f0 f i ev_hldm.obj
 0001:000085f0       ?setElementAt@?$Dar@H@vgui@@QAEXHH@Z 100095f0 f i ev_hldm.obj
 0001:000085f0       ?setElementAt@?$Dar@PAVButton@vgui@@@vgui@@QAEXPAVButton@2@H@Z 100095f0 f i ev_hldm.obj
 0001:000085f0       ?setElementAt@?$Dar@PAVIntChangeSignal@vgui@@@vgui@@QAEXPAVIntChangeSignal@2@H@Z 100095f0 f i ev_hldm.obj
 0001:000085f0       ?setElementAt@?$Dar@PAVSurfaceBase@vgui@@@vgui@@QAEXPAVSurfaceBase@2@H@Z 100095f0 f i ev_hldm.obj
 0001:000085f0       ?setElementAt@?$Dar@PAVFocusChangeSignal@vgui@@@vgui@@QAEXPAVFocusChangeSignal@2@H@Z 100095f0 f i ev_hldm.obj
 0001:000085f0       ?setElementAt@?$Dar@PAVInputSignal@vgui@@@vgui@@QAEXPAVInputSignal@2@H@Z 100095f0 f i ev_hldm.obj
 0001:000085f0       ?setElementAt@?$Dar@PAD@vgui@@QAEXPADH@Z 100095f0 f i ev_hldm.obj
 0001:000085f0       ?setElementAt@?$Dar@PAVPanel@vgui@@@vgui@@QAEXPAVPanel@2@H@Z 100095f0 f i ev_hldm.obj
 0001:000085f0       ?setElementAt@?$Dar@PAVTickSignal@vgui@@@vgui@@QAEXPAVTickSignal@2@H@Z 100095f0 f i ev_hldm.obj
 0001:00008620       ?putElement@?$Dar@PAVActionSignal@vgui@@@vgui@@QAEXPAVActionSignal@2@@Z 10009620 f i ev_hldm.obj
 0001:00008650       ?addElement@?$Dar@PAD@vgui@@QAEXPAD@Z 10009650 f i ev_hldm.obj
 0001:00008650       ?addElement@?$Dar@PAVIntChangeSignal@vgui@@@vgui@@QAEXPAVIntChangeSignal@2@@Z 10009650 f i ev_hldm.obj
 0001:00008650       ?addElement@?$Dar@PAVRepaintSignal@vgui@@@vgui@@QAEXPAVRepaintSignal@2@@Z 10009650 f i ev_hldm.obj
 0001:00008650       ?addElement@?$Dar@PAVChangeSignal@vgui@@@vgui@@QAEXPAVChangeSignal@2@@Z 10009650 f i ev_hldm.obj
 0001:00008650       ?addElement@?$Dar@PAVFrame@vgui@@@vgui@@QAEXPAVFrame@2@@Z 10009650 f i ev_hldm.obj
 0001:00008650       ?addElement@?$Dar@PAVFrameSignal@vgui@@@vgui@@QAEXPAVFrameSignal@2@@Z 10009650 f i ev_hldm.obj
 0001:00008650       ?addElement@?$Dar@PAVFocusChangeSignal@vgui@@@vgui@@QAEXPAVFocusChangeSignal@2@@Z 10009650 f i ev_hldm.obj
 0001:00008650       ?addElement@?$Dar@PAV?$Dar@D@vgui@@@vgui@@QAEXPAV?$Dar@D@2@@Z 10009650 f i ev_hldm.obj
 0001:00008650       ?addElement@?$Dar@PAVTickSignal@vgui@@@vgui@@QAEXPAVTickSignal@2@@Z 10009650 f i ev_hldm.obj
 0001:00008650       ?addElement@?$Dar@H@vgui@@QAEXH@Z 10009650 f i ev_hldm.obj
 0001:00008650       ?addElement@?$Dar@PAVButton@vgui@@@vgui@@QAEXPAVButton@2@@Z 10009650 f i ev_hldm.obj
 0001:00008650       ?addElement@?$Dar@PAVPanel@vgui@@@vgui@@QAEXPAVPanel@2@@Z 10009650 f i ev_hldm.obj
 0001:00008650       ?addElement@?$Dar@PAVInputSignal@vgui@@@vgui@@QAEXPAVInputSignal@2@@Z 10009650 f i ev_hldm.obj
 0001:00008650       ?addElement@?$Dar@PAVDesktopIcon@vgui@@@vgui@@QAEXPAVDesktopIcon@2@@Z 10009650 f i ev_hldm.obj
 0001:00008650       ?addElement@?$Dar@PAVLabel@vgui@@@vgui@@QAEXPAVLabel@2@@Z 10009650 f i ev_hldm.obj
 0001:00008650       ?addElement@?$Dar@PAVActionSignal@vgui@@@vgui@@QAEXPAVActionSignal@2@@Z 10009650 f i ev_hldm.obj
 0001:00008650       ?addElement@?$Dar@PAVSurfaceBase@vgui@@@vgui@@QAEXPAVSurfaceBase@2@@Z 10009650 f i ev_hldm.obj
 0001:00008690       ?putElement@?$Dar@PAVIntChangeSignal@vgui@@@vgui@@QAEXPAVIntChangeSignal@2@@Z 10009690 f i ev_hldm.obj
 0001:000086c0       ?getCount@?$Dar@PAVSurfaceBase@vgui@@@vgui@@QAEHXZ 100096c0 f i ev_hldm.obj
 0001:000086c0       ?getCount@?$Dar@PAVRepaintSignal@vgui@@@vgui@@QAEHXZ 100096c0 f i ev_hldm.obj
 0001:000086c0       ?getCount@?$Dar@PAVFrame@vgui@@@vgui@@QAEHXZ 100096c0 f i ev_hldm.obj
 0001:000086c0       ?getCount@?$Dar@D@vgui@@QAEHXZ 100096c0 f i ev_hldm.obj
 0001:000086c0       ?getCount@?$Dar@PAVTickSignal@vgui@@@vgui@@QAEHXZ 100096c0 f i ev_hldm.obj
 0001:000086c0       ?getCount@?$Dar@PAVButton@vgui@@@vgui@@QAEHXZ 100096c0 f i ev_hldm.obj
 0001:000086c0       ?getCount@?$Dar@PAVLabel@vgui@@@vgui@@QAEHXZ 100096c0 f i ev_hldm.obj
 0001:000086c0       ?getCount@?$Dar@PAVDesktopIcon@vgui@@@vgui@@QAEHXZ 100096c0 f i ev_hldm.obj
 0001:000086c0       ?getCount@?$Dar@PAV?$Dar@D@vgui@@@vgui@@QAEHXZ 100096c0 f i ev_hldm.obj
 0001:000086c0       ?getCount@?$Dar@PAVPanel@vgui@@@vgui@@QAEHXZ 100096c0 f i ev_hldm.obj
 0001:000086c0       ?getCount@?$Dar@PAVFrameSignal@vgui@@@vgui@@QAEHXZ 100096c0 f i ev_hldm.obj
 0001:000086c0       ?getCount@?$Dar@PAVInputSignal@vgui@@@vgui@@QAEHXZ 100096c0 f i ev_hldm.obj
 0001:000086c0       ?getCount@?$Dar@H@vgui@@QAEHXZ 100096c0 f i ev_hldm.obj
 0001:000086c0       ?getCount@?$Dar@PAVFocusChangeSignal@vgui@@@vgui@@QAEHXZ 100096c0 f i ev_hldm.obj
 0001:000086c0       ?getCount@?$Dar@PAD@vgui@@QAEHXZ 100096c0 f i ev_hldm.obj
 0001:000086c0       ?getCount@?$Dar@PAVChangeSignal@vgui@@@vgui@@QAEHXZ 100096c0 f i ev_hldm.obj
 0001:000086c0       ?getCount@?$Dar@PAVActionSignal@vgui@@@vgui@@QAEHXZ 100096c0 f i ev_hldm.obj
 0001:000086c0       ?getCount@?$Dar@PAVIntChangeSignal@vgui@@@vgui@@QAEHXZ 100096c0 f i ev_hldm.obj
 0001:000086d0       ?putElement@?$Dar@PAVTickSignal@vgui@@@vgui@@QAEXPAVTickSignal@2@@Z 100096d0 f i ev_hldm.obj
 0001:00008700       ?removeAll@?$Dar@PAVChangeSignal@vgui@@@vgui@@QAEXXZ 10009700 f i ev_hldm.obj
 0001:00008700       ?removeAll@?$Dar@PAVFocusChangeSignal@vgui@@@vgui@@QAEXXZ 10009700 f i ev_hldm.obj
 0001:00008700       ?removeAll@?$Dar@PAD@vgui@@QAEXXZ 10009700 f i ev_hldm.obj
 0001:00008700       ?removeAll@?$Dar@PAVButton@vgui@@@vgui@@QAEXXZ 10009700 f i ev_hldm.obj
 0001:00008700       ?removeAll@?$Dar@PAVSurfaceBase@vgui@@@vgui@@QAEXXZ 10009700 f i ev_hldm.obj
 0001:00008700       ?removeAll@?$Dar@PAVTickSignal@vgui@@@vgui@@QAEXXZ 10009700 f i ev_hldm.obj
 0001:00008700       ?removeAll@?$Dar@PAVLabel@vgui@@@vgui@@QAEXXZ 10009700 f i ev_hldm.obj
 0001:00008700       ?removeAll@?$Dar@PAVInputSignal@vgui@@@vgui@@QAEXXZ 10009700 f i ev_hldm.obj
 0001:00008700       ?removeAll@?$Dar@PAVPanel@vgui@@@vgui@@QAEXXZ 10009700 f i ev_hldm.obj
 0001:00008700       ?removeAll@?$Dar@PAVFrame@vgui@@@vgui@@QAEXXZ 10009700 f i ev_hldm.obj
 0001:00008700       ?removeAll@?$Dar@PAVActionSignal@vgui@@@vgui@@QAEXXZ 10009700 f i ev_hldm.obj
 0001:00008700       ?removeAll@?$Dar@PAVFrameSignal@vgui@@@vgui@@QAEXXZ 10009700 f i ev_hldm.obj
 0001:00008700       ?removeAll@?$Dar@PAVIntChangeSignal@vgui@@@vgui@@QAEXXZ 10009700 f i ev_hldm.obj
 0001:00008700       ?removeAll@?$Dar@PAVRepaintSignal@vgui@@@vgui@@QAEXXZ 10009700 f i ev_hldm.obj
 0001:00008700       ?removeAll@?$Dar@PAV?$Dar@D@vgui@@@vgui@@QAEXXZ 10009700 f i ev_hldm.obj
 0001:00008700       ?removeAll@?$Dar@PAVDesktopIcon@vgui@@@vgui@@QAEXXZ 10009700 f i ev_hldm.obj
 0001:00008700       ?removeAll@?$Dar@D@vgui@@QAEXXZ 10009700 f i ev_hldm.obj
 0001:00008700       ?removeAll@?$Dar@H@vgui@@QAEXXZ 10009700 f i ev_hldm.obj
 0001:00008720       ?putElement@?$Dar@PAV?$Dar@D@vgui@@@vgui@@QAEXPAV?$Dar@D@2@@Z 10009720 f i ev_hldm.obj
 0001:00008750       ?putElement@?$Dar@PAVFrame@vgui@@@vgui@@QAEXPAVFrame@2@@Z 10009750 f i ev_hldm.obj
 0001:00008780       ?ensureCapacity@?$Dar@PAV?$Dar@D@vgui@@@vgui@@QAEXH@Z 10009780 f i ev_hldm.obj
 0001:00008780       ?ensureCapacity@?$Dar@PAVFrame@vgui@@@vgui@@QAEXH@Z 10009780 f i ev_hldm.obj
 0001:00008780       ?ensureCapacity@?$Dar@PAVInputSignal@vgui@@@vgui@@QAEXH@Z 10009780 f i ev_hldm.obj
 0001:00008780       ?ensureCapacity@?$Dar@PAVFocusChangeSignal@vgui@@@vgui@@QAEXH@Z 10009780 f i ev_hldm.obj
 0001:00008780       ?ensureCapacity@?$Dar@PAVActionSignal@vgui@@@vgui@@QAEXH@Z 10009780 f i ev_hldm.obj
 0001:00008780       ?ensureCapacity@?$Dar@H@vgui@@QAEXH@Z 10009780 f i ev_hldm.obj
 0001:00008780       ?ensureCapacity@?$Dar@PAVTickSignal@vgui@@@vgui@@QAEXH@Z 10009780 f i ev_hldm.obj
 0001:00008780       ?ensureCapacity@?$Dar@PAVIntChangeSignal@vgui@@@vgui@@QAEXH@Z 10009780 f i ev_hldm.obj
 0001:00008780       ?ensureCapacity@?$Dar@PAVDesktopIcon@vgui@@@vgui@@QAEXH@Z 10009780 f i ev_hldm.obj
 0001:00008780       ?ensureCapacity@?$Dar@PAVSurfaceBase@vgui@@@vgui@@QAEXH@Z 10009780 f i ev_hldm.obj
 0001:00008780       ?ensureCapacity@?$Dar@PAVFrameSignal@vgui@@@vgui@@QAEXH@Z 10009780 f i ev_hldm.obj
 0001:00008780       ?ensureCapacity@?$Dar@PAVChangeSignal@vgui@@@vgui@@QAEXH@Z 10009780 f i ev_hldm.obj
 0001:00008780       ?ensureCapacity@?$Dar@PAD@vgui@@QAEXH@Z 10009780 f i ev_hldm.obj
 0001:00008780       ?ensureCapacity@?$Dar@PAVRepaintSignal@vgui@@@vgui@@QAEXH@Z 10009780 f i ev_hldm.obj
 0001:00008780       ?ensureCapacity@?$Dar@PAVPanel@vgui@@@vgui@@QAEXH@Z 10009780 f i ev_hldm.obj
 0001:00008780       ?ensureCapacity@?$Dar@PAVLabel@vgui@@@vgui@@QAEXH@Z 10009780 f i ev_hldm.obj
 0001:00008780       ?ensureCapacity@?$Dar@PAVButton@vgui@@@vgui@@QAEXH@Z 10009780 f i ev_hldm.obj
 0001:00008860       ?putElement@?$Dar@PAVDesktopIcon@vgui@@@vgui@@QAEXPAVDesktopIcon@2@@Z 10009860 f i ev_hldm.obj
 0001:00008890       ??A?$Dar@PAVFrame@vgui@@@vgui@@QAEPAVFrame@1@H@Z 10009890 f i ev_hldm.obj
 0001:00008890       ??A?$Dar@PAVLabel@vgui@@@vgui@@QAEPAVLabel@1@H@Z 10009890 f i ev_hldm.obj
 0001:00008890       ??A?$Dar@PAVTickSignal@vgui@@@vgui@@QAEPAVTickSignal@1@H@Z 10009890 f i ev_hldm.obj
 0001:00008890       ??A?$Dar@PAVChangeSignal@vgui@@@vgui@@QAEPAVChangeSignal@1@H@Z 10009890 f i ev_hldm.obj
 0001:00008890       ??A?$Dar@PAVInputSignal@vgui@@@vgui@@QAEPAVInputSignal@1@H@Z 10009890 f i ev_hldm.obj
 0001:00008890       ??A?$Dar@H@vgui@@QAEHH@Z   10009890 f i ev_hldm.obj
 0001:00008890       ??A?$Dar@PAVSurfaceBase@vgui@@@vgui@@QAEPAVSurfaceBase@1@H@Z 10009890 f i ev_hldm.obj
 0001:00008890       ??A?$Dar@PAVButton@vgui@@@vgui@@QAEPAVButton@1@H@Z 10009890 f i ev_hldm.obj
 0001:00008890       ??A?$Dar@PAVIntChangeSignal@vgui@@@vgui@@QAEPAVIntChangeSignal@1@H@Z 10009890 f i ev_hldm.obj
 0001:00008890       ??A?$Dar@PAVDesktopIcon@vgui@@@vgui@@QAEPAVDesktopIcon@1@H@Z 10009890 f i ev_hldm.obj
 0001:00008890       ??A?$Dar@PAVRepaintSignal@vgui@@@vgui@@QAEPAVRepaintSignal@1@H@Z 10009890 f i ev_hldm.obj
 0001:00008890       ??A?$Dar@PAVFocusChangeSignal@vgui@@@vgui@@QAEPAVFocusChangeSignal@1@H@Z 10009890 f i ev_hldm.obj
 0001:00008890       ??A?$Dar@PAV?$Dar@D@vgui@@@vgui@@QAEPAV?$Dar@D@1@H@Z 10009890 f i ev_hldm.obj
 0001:00008890       ??A?$Dar@PAVFrameSignal@vgui@@@vgui@@QAEPAVFrameSignal@1@H@Z 10009890 f i ev_hldm.obj
 0001:00008890       ??A?$Dar@PAVPanel@vgui@@@vgui@@QAEPAVPanel@1@H@Z 10009890 f i ev_hldm.obj
 0001:00008890       ??A?$Dar@PAVActionSignal@vgui@@@vgui@@QAEPAVActionSignal@1@H@Z 10009890 f i ev_hldm.obj
 0001:00008890       ??A?$Dar@PAD@vgui@@QAEPADH@Z 10009890 f i ev_hldm.obj
 0001:000088c0       ?putElement@?$Dar@PAVChangeSignal@vgui@@@vgui@@QAEXPAVChangeSignal@2@@Z 100098c0 f i ev_hldm.obj
 0001:000088f0       ?insertElementAt@?$Dar@PAVFrame@vgui@@@vgui@@QAEXPAVFrame@2@H@Z 100098f0 f i ev_hldm.obj
 0001:000088f0       ?insertElementAt@?$Dar@PAVIntChangeSignal@vgui@@@vgui@@QAEXPAVIntChangeSignal@2@H@Z 100098f0 f i ev_hldm.obj
 0001:000088f0       ?insertElementAt@?$Dar@PAD@vgui@@QAEXPADH@Z 100098f0 f i ev_hldm.obj
 0001:000088f0       ?insertElementAt@?$Dar@PAVFocusChangeSignal@vgui@@@vgui@@QAEXPAVFocusChangeSignal@2@H@Z 100098f0 f i ev_hldm.obj
 0001:000088f0       ?insertElementAt@?$Dar@PAVFrameSignal@vgui@@@vgui@@QAEXPAVFrameSignal@2@H@Z 100098f0 f i ev_hldm.obj
 0001:000088f0       ?insertElementAt@?$Dar@PAVInputSignal@vgui@@@vgui@@QAEXPAVInputSignal@2@H@Z 100098f0 f i ev_hldm.obj
 0001:000088f0       ?insertElementAt@?$Dar@PAVActionSignal@vgui@@@vgui@@QAEXPAVActionSignal@2@H@Z 100098f0 f i ev_hldm.obj
 0001:000088f0       ?insertElementAt@?$Dar@PAVDesktopIcon@vgui@@@vgui@@QAEXPAVDesktopIcon@2@H@Z 100098f0 f i ev_hldm.obj
 0001:000088f0       ?insertElementAt@?$Dar@H@vgui@@QAEXHH@Z 100098f0 f i ev_hldm.obj
 0001:000088f0       ?insertElementAt@?$Dar@PAVChangeSignal@vgui@@@vgui@@QAEXPAVChangeSignal@2@H@Z 100098f0 f i ev_hldm.obj
 0001:000088f0       ?insertElementAt@?$Dar@PAVSurfaceBase@vgui@@@vgui@@QAEXPAVSurfaceBase@2@H@Z 100098f0 f i ev_hldm.obj
 0001:000088f0       ?insertElementAt@?$Dar@PAVButton@vgui@@@vgui@@QAEXPAVButton@2@H@Z 100098f0 f i ev_hldm.obj
 0001:000088f0       ?insertElementAt@?$Dar@PAVRepaintSignal@vgui@@@vgui@@QAEXPAVRepaintSignal@2@H@Z 100098f0 f i ev_hldm.obj
 0001:000088f0       ?insertElementAt@?$Dar@PAV?$Dar@D@vgui@@@vgui@@QAEXPAV?$Dar@D@2@H@Z 100098f0 f i ev_hldm.obj
 0001:000088f0       ?insertElementAt@?$Dar@PAVTickSignal@vgui@@@vgui@@QAEXPAVTickSignal@2@H@Z 100098f0 f i ev_hldm.obj
 0001:000088f0       ?insertElementAt@?$Dar@PAVLabel@vgui@@@vgui@@QAEXPAVLabel@2@H@Z 100098f0 f i ev_hldm.obj
 0001:000088f0       ?insertElementAt@?$Dar@PAVPanel@vgui@@@vgui@@QAEXPAVPanel@2@H@Z 100098f0 f i ev_hldm.obj
 0001:00008990       ?setCount@?$Dar@PAVPanel@vgui@@@vgui@@QAEXH@Z 10009990 f i ev_hldm.obj
 0001:00008990       ?setCount@?$Dar@PAVIntChangeSignal@vgui@@@vgui@@QAEXH@Z 10009990 f i ev_hldm.obj
 0001:00008990       ?setCount@?$Dar@H@vgui@@QAEXH@Z 10009990 f i ev_hldm.obj
 0001:00008990       ?setCount@?$Dar@PAVFocusChangeSignal@vgui@@@vgui@@QAEXH@Z 10009990 f i ev_hldm.obj
 0001:00008990       ?setCount@?$Dar@PAVRepaintSignal@vgui@@@vgui@@QAEXH@Z 10009990 f i ev_hldm.obj
 0001:00008990       ?setCount@?$Dar@D@vgui@@QAEXH@Z 10009990 f i ev_hldm.obj
 0001:00008990       ?setCount@?$Dar@PAVFrameSignal@vgui@@@vgui@@QAEXH@Z 10009990 f i ev_hldm.obj
 0001:00008990       ?setCount@?$Dar@PAD@vgui@@QAEXH@Z 10009990 f i ev_hldm.obj
 0001:00008990       ?setCount@?$Dar@PAVSurfaceBase@vgui@@@vgui@@QAEXH@Z 10009990 f i ev_hldm.obj
 0001:00008990       ?setCount@?$Dar@PAVDesktopIcon@vgui@@@vgui@@QAEXH@Z 10009990 f i ev_hldm.obj
 0001:00008990       ?setCount@?$Dar@PAVLabel@vgui@@@vgui@@QAEXH@Z 10009990 f i ev_hldm.obj
 0001:00008990       ?setCount@?$Dar@PAVButton@vgui@@@vgui@@QAEXH@Z 10009990 f i ev_hldm.obj
 0001:00008990       ?setCount@?$Dar@PAVInputSignal@vgui@@@vgui@@QAEXH@Z 10009990 f i ev_hldm.obj
 0001:00008990       ?setCount@?$Dar@PAVFrame@vgui@@@vgui@@QAEXH@Z 10009990 f i ev_hldm.obj
 0001:00008990       ?setCount@?$Dar@PAV?$Dar@D@vgui@@@vgui@@QAEXH@Z 10009990 f i ev_hldm.obj
 0001:00008990       ?setCount@?$Dar@PAVActionSignal@vgui@@@vgui@@QAEXH@Z 10009990 f i ev_hldm.obj
 0001:00008990       ?setCount@?$Dar@PAVTickSignal@vgui@@@vgui@@QAEXH@Z 10009990 f i ev_hldm.obj
 0001:00008990       ?setCount@?$Dar@PAVChangeSignal@vgui@@@vgui@@QAEXH@Z 10009990 f i ev_hldm.obj
 0001:000089c0       ?putElement@?$Dar@PAVPanel@vgui@@@vgui@@QAEXPAVPanel@2@@Z 100099c0 f i ev_hldm.obj
 0001:000089f0       ?removeElementAt@?$Dar@PAVChangeSignal@vgui@@@vgui@@QAEXH@Z 100099f0 f i ev_hldm.obj
 0001:000089f0       ?removeElementAt@?$Dar@PAVLabel@vgui@@@vgui@@QAEXH@Z 100099f0 f i ev_hldm.obj
 0001:000089f0       ?removeElementAt@?$Dar@PAVPanel@vgui@@@vgui@@QAEXH@Z 100099f0 f i ev_hldm.obj
 0001:000089f0       ?removeElementAt@?$Dar@PAVInputSignal@vgui@@@vgui@@QAEXH@Z 100099f0 f i ev_hldm.obj
 0001:000089f0       ?removeElementAt@?$Dar@PAVSurfaceBase@vgui@@@vgui@@QAEXH@Z 100099f0 f i ev_hldm.obj
 0001:000089f0       ?removeElementAt@?$Dar@PAVButton@vgui@@@vgui@@QAEXH@Z 100099f0 f i ev_hldm.obj
 0001:000089f0       ?removeElementAt@?$Dar@PAVRepaintSignal@vgui@@@vgui@@QAEXH@Z 100099f0 f i ev_hldm.obj
 0001:000089f0       ?removeElementAt@?$Dar@PAV?$Dar@D@vgui@@@vgui@@QAEXH@Z 100099f0 f i ev_hldm.obj
 0001:000089f0       ?removeElementAt@?$Dar@PAVIntChangeSignal@vgui@@@vgui@@QAEXH@Z 100099f0 f i ev_hldm.obj
 0001:000089f0       ?removeElementAt@?$Dar@PAVFocusChangeSignal@vgui@@@vgui@@QAEXH@Z 100099f0 f i ev_hldm.obj
 0001:000089f0       ?removeElementAt@?$Dar@PAVFrameSignal@vgui@@@vgui@@QAEXH@Z 100099f0 f i ev_hldm.obj
 0001:000089f0       ?removeElementAt@?$Dar@PAVActionSignal@vgui@@@vgui@@QAEXH@Z 100099f0 f i ev_hldm.obj
 0001:000089f0       ?removeElementAt@?$Dar@PAVFrame@vgui@@@vgui@@QAEXH@Z 100099f0 f i ev_hldm.obj
 0001:000089f0       ?removeElementAt@?$Dar@PAD@vgui@@QAEXH@Z 100099f0 f i ev_hldm.obj
 0001:000089f0       ?removeElementAt@?$Dar@PAVDesktopIcon@vgui@@@vgui@@QAEXH@Z 100099f0 f i ev_hldm.obj
 0001:000089f0       ?removeElementAt@?$Dar@PAVTickSignal@vgui@@@vgui@@QAEXH@Z 100099f0 f i ev_hldm.obj
 0001:000089f0       ?removeElementAt@?$Dar@H@vgui@@QAEXH@Z 100099f0 f i ev_hldm.obj
 0001:00008a60       ?putElement@?$Dar@PAVLabel@vgui@@@vgui@@QAEXPAVLabel@2@@Z 10009a60 f i ev_hldm.obj
 0001:00008a90       ?putElement@?$Dar@PAVRepaintSignal@vgui@@@vgui@@QAEXPAVRepaintSignal@2@@Z 10009a90 f i ev_hldm.obj
 0001:00008ac0       _weapon_gauss              10009ac0 f   gauss.obj
 0001:00008ad1       ?GetFullChargeTime@CGauss@@QAEMXZ 10009ad1 f   gauss.obj
 0001:00008af8       ?Spawn@CGauss@@UAEXXZ      10009af8 f   gauss.obj
 0001:00008b4b       ?Precache@CGauss@@UAEXXZ   10009b4b f   gauss.obj
 0001:00008c4d       ?AddToPlayer@CGauss@@UAEHPAVCBasePlayer@@@Z 10009c4d f   gauss.obj
 0001:00008ca2       ?GetItemInfo@CGauss@@UAEHPAUItemInfo@@@Z 10009ca2 f   gauss.obj
 0001:00008d3b       ?Deploy@CGauss@@UAEHXZ     10009d3b f   gauss.obj
 0001:00008d73       ?Holster@CGauss@@UAEXH@Z   10009d73 f   gauss.obj
 0001:00008e07       ?PrimaryAttack@CGauss@@UAEXXZ 10009e07 f   gauss.obj
 0001:00008f31       ?SecondaryAttack@CGauss@@UAEXXZ 10009f31 f   gauss.obj
 0001:000094d6       ?StartFire@CGauss@@QAEXXZ  1000a4d6 f   gauss.obj
 0001:0000961f       ?Fire@CGauss@@QAEXVVector@@0M@Z 1000a61f f   gauss.obj
 0001:000097a9       ?WeaponIdle@CGauss@@UAEXXZ 1000a7a9 f   gauss.obj
 0001:00009a0a       _ammo_gaussclip            1000aa0a f   gauss.obj
 0001:00009a20       ?GetClassPtr@@YAPAVCGauss@@PAV1@@Z 1000aa20 f i gauss.obj
 0001:00009ae0       ?GetClassPtr@@YAPAVCGaussAmmo@@PAV1@@Z 1000aae0 f i gauss.obj
 0001:00009ba0       ??0CGauss@@QAE@XZ          1000aba0 f i gauss.obj
 0001:00009bc0       ?iItemSlot@CRpg@@UAEHXZ    1000abc0 f i gauss.obj
 0001:00009bc0       ?iItemSlot@CEgon@@UAEHXZ   1000abc0 f i gauss.obj
 0001:00009bc0       ?iItemSlot@CGauss@@UAEHXZ  1000abc0 f i gauss.obj
 0001:00009bc0       ?iItemSlot@CHgun@@UAEHXZ   1000abc0 f i gauss.obj
 0001:00009bd0       ??0CGaussAmmo@@QAE@XZ      1000abd0 f i gauss.obj
 0001:00009bf0       ?Spawn@CGaussAmmo@@EAEXXZ  1000abf0 f i gauss.obj
 0001:00009c30       ?Precache@CGaussAmmo@@EAEXXZ 1000ac30 f i gauss.obj
 0001:00009c60       ?AddAmmo@CEgonAmmo@@EAEHPAVCBaseEntity@@@Z 1000ac60 f i gauss.obj
 0001:00009c60       ?AddAmmo@CGaussAmmo@@EAEHPAVCBaseEntity@@@Z 1000ac60 f i gauss.obj
 0001:00009cc0       _weapon_handgrenade        1000acc0 f   handgrenade.obj
 0001:00009cd1       ?Spawn@CHandGrenade@@UAEXXZ 1000acd1 f   handgrenade.obj
 0001:00009d24       ?Precache@CHandGrenade@@UAEXXZ 1000ad24 f   handgrenade.obj
 0001:00009d73       ?GetItemInfo@CHandGrenade@@UAEHPAUItemInfo@@@Z 1000ad73 f   handgrenade.obj
 0001:00009e0c       ?Deploy@CHandGrenade@@UAEHXZ 1000ae0c f   handgrenade.obj
 0001:00009e3e       ?CanHolster@CHandGrenade@@UAEHXZ 1000ae3e f   handgrenade.obj
 0001:00009e71       ?Holster@CHandGrenade@@UAEXH@Z 1000ae71 f   handgrenade.obj
 0001:00009f3c       ?PrimaryAttack@CHandGrenade@@UAEXXZ 1000af3c f   handgrenade.obj
 0001:00009fff       ?WeaponIdle@CHandGrenade@@UAEXXZ 1000afff f   handgrenade.obj
 0001:0000a530       ?GetClassPtr@@YAPAVCHandGrenade@@PAV1@@Z 1000b530 f i handgrenade.obj
 0001:0000a5f0       ??0CHandGrenade@@QAE@XZ    1000b5f0 f i handgrenade.obj
 0001:0000a63d       ?EMIT_SOUND_DYN@@YAXPAUedict_s@@HPBDMMHH@Z 1000b63d f   hl_baseentity.obj
 0001:0000a642       ?TakeHealth@CBaseEntity@@UAEHMH@Z 1000b642 f   hl_baseentity.obj
 0001:0000a654       ?TakeDamage@CBaseEntity@@UAEHPAUentvars_s@@0MH@Z 1000b654 f   hl_baseentity.obj
 0001:0000a666       ?GetNextTarget@CBaseEntity@@UAEPAV1@XZ 1000b666 f   hl_baseentity.obj
 0001:0000a673       ?Save@CBaseEntity@@UAEHAAVCSave@@@Z 1000b673 f   hl_baseentity.obj
 0001:0000a685       ?Restore@CBaseEntity@@UAEHAAVCRestore@@@Z 1000b685 f   hl_baseentity.obj
 0001:0000a697       ?SetObjectCollisionBox@CBaseEntity@@UAEXXZ 1000b697 f   hl_baseentity.obj
 0001:0000a6a2       ?Intersects@CBaseEntity@@QAEHPAV1@@Z 1000b6a2 f   hl_baseentity.obj
 0001:0000a6b1       ?MakeDormant@CBaseEntity@@QAEXXZ 1000b6b1 f   hl_baseentity.obj
 0001:0000a6bc       ?IsDormant@CBaseEntity@@QAEHXZ 1000b6bc f   hl_baseentity.obj
 0001:0000a6c9       ?IsInWorld@CBaseEntity@@UAEHXZ 1000b6c9 f   hl_baseentity.obj
 0001:0000a6d9       ?ShouldToggle@CBaseEntity@@QAEHW4USE_TYPE@@H@Z 1000b6d9 f   hl_baseentity.obj
 0001:0000a6e8       ?DamageDecal@CBaseEntity@@UAEHH@Z 1000b6e8 f   hl_baseentity.obj
 0001:0000a6f8       ?Create@CBaseEntity@@SAPAV1@PADABVVector@@1PAUedict_s@@@Z 1000b6f8 f   hl_baseentity.obj
 0001:0000a6ff       ?SUB_Remove@CBaseEntity@@QAEXXZ 1000b6ff f   hl_baseentity.obj
 0001:0000a70a       ?KeyValue@CBaseDelay@@UAEXPAUKeyValueData_s@@@Z 1000b70a f   hl_baseentity.obj
 0001:0000a717       ?Restore@CBaseDelay@@UAEHAAVCRestore@@@Z 1000b717 f   hl_baseentity.obj
 0001:0000a729       ?Save@CBaseDelay@@UAEHAAVCSave@@@Z 1000b729 f   hl_baseentity.obj
 0001:0000a73b       ?Restore@CBaseAnimating@@UAEHAAVCRestore@@@Z 1000b73b f   hl_baseentity.obj
 0001:0000a74d       ?Save@CBaseAnimating@@UAEHAAVCSave@@@Z 1000b74d f   hl_baseentity.obj
 0001:0000a75f       ?DBG_EntOfVars@@YAPAUedict_s@@PBUentvars_s@@@Z 1000b75f f   hl_baseentity.obj
 0001:0000a766       ?DBG_AssertFunction@@YAXHPBD0H0@Z 1000b766 f   hl_baseentity.obj
 0001:0000a76b       ?UTIL_PrecacheOther@@YAXPBD@Z 1000b76b f   hl_baseentity.obj
 0001:0000a770       ?UTIL_BloodDrips@@YAXABVVector@@0HH@Z 1000b770 f   hl_baseentity.obj
 0001:0000a775       ?UTIL_DecalTrace@@YAXPAUTraceResult@@H@Z 1000b775 f   hl_baseentity.obj
 0001:0000a77a       ?UTIL_GunshotDecalTrace@@YAXPAUTraceResult@@H@Z 1000b77a f   hl_baseentity.obj
 0001:0000a77f       ?UTIL_MakeVectors@@YAXABVVector@@@Z 1000b77f f   hl_baseentity.obj
 0001:0000a784       ?UTIL_IsValidEntity@@YAHPAUedict_s@@@Z 1000b784 f   hl_baseentity.obj
 0001:0000a78e       ?UTIL_SetOrigin@@YAXPAUentvars_s@@ABVVector@@@Z 1000b78e f   hl_baseentity.obj
 0001:0000a793       ?UTIL_GetNextBestWeapon@@YAHPAVCBasePlayer@@PAVCBasePlayerItem@@@Z 1000b793 f   hl_baseentity.obj
 0001:0000a79d       ?UTIL_LogPrintf@@YAXPADZZ  1000b79d f   hl_baseentity.obj
 0001:0000a7a2       ?UTIL_ClientPrintAll@@YAXHPBD0000@Z 1000b7a2 f   hl_baseentity.obj
 0001:0000a7a7       ?ClientPrint@@YAXPAUentvars_s@@HPBD1111@Z 1000b7a7 f   hl_baseentity.obj
 0001:0000a7ac       ?Restore@CBaseToggle@@UAEHAAVCRestore@@@Z 1000b7ac f   hl_baseentity.obj
 0001:0000a7be       ?Save@CBaseToggle@@UAEHAAVCSave@@@Z 1000b7be f   hl_baseentity.obj
 0001:0000a7d0       ?KeyValue@CBaseToggle@@UAEXPAUKeyValueData_s@@@Z 1000b7d0 f   hl_baseentity.obj
 0001:0000a7dd       ?BounceSound@CGrenade@@UAEXXZ 1000b7dd f   hl_baseentity.obj
 0001:0000a7e8       ?Explode@CGrenade@@QAEXVVector@@0@Z 1000b7e8 f   hl_baseentity.obj
 0001:0000a7f5       ?Explode@CGrenade@@QAEXPAUTraceResult@@H@Z 1000b7f5 f   hl_baseentity.obj
 0001:0000a802       ?Killed@CGrenade@@UAEXPAUentvars_s@@H@Z 1000b802 f   hl_baseentity.obj
 0001:0000a80f       ?Spawn@CGrenade@@UAEXXZ    1000b80f f   hl_baseentity.obj
 0001:0000a81a       ?ShootTimed@CGrenade@@SAPAV1@PAUentvars_s@@VVector@@1M@Z 1000b81a f   hl_baseentity.obj
 0001:0000a821       ?ShootContact@CGrenade@@SAPAV1@PAUentvars_s@@VVector@@1@Z 1000b821 f   hl_baseentity.obj
 0001:0000a828       ?DetonateUse@CGrenade@@QAEXPAVCBaseEntity@@0W4USE_TYPE@@M@Z 1000b828 f   hl_baseentity.obj
 0001:0000a835       ?UTIL_Remove@@YAXPAVCBaseEntity@@@Z 1000b835 f   hl_baseentity.obj
 0001:0000a83a       ?UTIL_SetSize@@YAXPAUentvars_s@@ABVVector@@1@Z 1000b83a f   hl_baseentity.obj
 0001:0000a83f       ?UTIL_FindEntityInSphere@@YAPAVCBaseEntity@@PAV1@ABVVector@@M@Z 1000b83f f   hl_baseentity.obj
 0001:0000a846       ?UTIL_VecToAngles@@YA?AVVector@@ABV1@@Z 1000b846 f   hl_baseentity.obj
 0001:0000a858       ?SpriteCreate@CSprite@@SAPAV1@PBDABVVector@@H@Z 1000b858 f   hl_baseentity.obj
 0001:0000a85f       ?PointEntInit@CBeam@@QAEXABVVector@@H@Z 1000b85f f   hl_baseentity.obj
 0001:0000a86c       ?BeamCreate@CBeam@@SAPAV1@PBDH@Z 1000b86c f   hl_baseentity.obj
 0001:0000a873       ?Expand@CSprite@@QAEXMM@Z  1000b873 f   hl_baseentity.obj
 0001:0000a880       ?CheckTraceHullAttack@CBaseMonster@@QAEPAVCBaseEntity@@MHH@Z 1000b880 f   hl_baseentity.obj
 0001:0000a88f       ?Eat@CBaseMonster@@QAEXM@Z 1000b88f f   hl_baseentity.obj
 0001:0000a89c       ?FShouldEat@CBaseMonster@@QAEHXZ 1000b89c f   hl_baseentity.obj
 0001:0000a8ac       ?BarnacleVictimBitten@CBaseMonster@@UAEXPAUentvars_s@@@Z 1000b8ac f   hl_baseentity.obj
 0001:0000a8b9       ?BarnacleVictimReleased@CBaseMonster@@UAEXXZ 1000b8b9 f   hl_baseentity.obj
 0001:0000a8c4       ?Listen@CBaseMonster@@QAEXXZ 1000b8c4 f   hl_baseentity.obj
 0001:0000a8cf       ?FLSoundVolume@CBaseMonster@@QAEMPAVCSound@@@Z 1000b8cf f   hl_baseentity.obj
 0001:0000a8e2       ?FValidateHintType@CBaseMonster@@UAEHF@Z 1000b8e2 f   hl_baseentity.obj
 0001:0000a8f1       ?Look@CBaseMonster@@UAEXH@Z 1000b8f1 f   hl_baseentity.obj
 0001:0000a8fe       ?ISoundMask@CBaseMonster@@UAEHXZ 1000b8fe f   hl_baseentity.obj
 0001:0000a90b       ?PBestSound@CBaseMonster@@UAEPAVCSound@@XZ 1000b90b f   hl_baseentity.obj
 0001:0000a918       ?PBestScent@CBaseMonster@@UAEPAVCSound@@XZ 1000b918 f   hl_baseentity.obj
 0001:0000a925       ?StudioFrameAdvance@CBaseAnimating@@QAEMM@Z 1000b925 f   hl_baseentity.obj
 0001:0000a938       ?MonsterThink@CBaseMonster@@UAEXXZ 1000b938 f   hl_baseentity.obj
 0001:0000a943       ?MonsterUse@CBaseMonster@@QAEXPAVCBaseEntity@@0W4USE_TYPE@@M@Z 1000b943 f   hl_baseentity.obj
 0001:0000a950       ?IgnoreConditions@CBaseMonster@@UAEHXZ 1000b950 f   hl_baseentity.obj
 0001:0000a95d       ?RouteClear@CBaseMonster@@QAEXXZ 1000b95d f   hl_baseentity.obj
 0001:0000a968       ?RouteNew@CBaseMonster@@QAEXXZ 1000b968 f   hl_baseentity.obj
 0001:0000a973       ?FRouteClear@CBaseMonster@@QAEHXZ 1000b973 f   hl_baseentity.obj
 0001:0000a980       ?FRefreshRoute@CBaseMonster@@QAEHXZ 1000b980 f   hl_baseentity.obj
 0001:0000a98d       ?MoveToEnemy@CBaseMonster@@QAEHW4Activity@@M@Z 1000b98d f   hl_baseentity.obj
 0001:0000a99c       ?MoveToLocation@CBaseMonster@@QAEHW4Activity@@MABVVector@@@Z 1000b99c f   hl_baseentity.obj
 0001:0000a9ab       ?MoveToTarget@CBaseMonster@@QAEHW4Activity@@M@Z 1000b9ab f   hl_baseentity.obj
 0001:0000a9ba       ?MoveToNode@CBaseMonster@@QAEHW4Activity@@MABVVector@@@Z 1000b9ba f   hl_baseentity.obj
 0001:0000a9c9       ?ShouldSimplify@@YAHH@Z    1000b9c9 f   hl_baseentity.obj
 0001:0000a9d3       ?RouteSimplify@CBaseMonster@@QAEXPAVCBaseEntity@@@Z 1000b9d3 f   hl_baseentity.obj
 0001:0000a9e0       ?FBecomeProne@CBaseMonster@@UAEHXZ 1000b9e0 f   hl_baseentity.obj
 0001:0000a9f0       ?CheckRangeAttack1@CBaseMonster@@UAEHMM@Z 1000b9f0 f   hl_baseentity.obj
 0001:0000a9ff       ?CheckRangeAttack2@CBaseMonster@@UAEHMM@Z 1000b9ff f   hl_baseentity.obj
 0001:0000aa0e       ?CheckMeleeAttack1@CBaseMonster@@UAEHMM@Z 1000ba0e f   hl_baseentity.obj
 0001:0000aa1d       ?CheckMeleeAttack2@CBaseMonster@@UAEHMM@Z 1000ba1d f   hl_baseentity.obj
 0001:0000aa2c       ?CheckAttacks@CBaseMonster@@QAEXPAVCBaseEntity@@M@Z 1000ba2c f   hl_baseentity.obj
 0001:0000aa39       ?FCanCheckAttacks@CBaseMonster@@UAEHXZ 1000ba39 f   hl_baseentity.obj
 0001:0000aa46       ?CheckEnemy@CBaseMonster@@UAEHPAVCBaseEntity@@@Z 1000ba46 f   hl_baseentity.obj
 0001:0000aa55       ?PushEnemy@CBaseMonster@@QAEXPAVCBaseEntity@@AAVVector@@@Z 1000ba55 f   hl_baseentity.obj
 0001:0000aa62       ?PopEnemy@CBaseMonster@@QAEHXZ 1000ba62 f   hl_baseentity.obj
 0001:0000aa6f       ?SetActivity@CBaseMonster@@UAEXW4Activity@@@Z 1000ba6f f   hl_baseentity.obj
 0001:0000aa7c       ?SetSequenceByName@CBaseMonster@@QAEXPAD@Z 1000ba7c f   hl_baseentity.obj
 0001:0000aa89       ?CheckLocalMove@CBaseMonster@@UAEHABVVector@@0PAVCBaseEntity@@PAM@Z 1000ba89 f   hl_baseentity.obj
 0001:0000aa98       ?OpenDoorAndWait@CBaseMonster@@QAEMPAUentvars_s@@@Z 1000ba98 f   hl_baseentity.obj
 0001:0000aaab       ?AdvanceRoute@CBaseMonster@@QAEXM@Z 1000baab f   hl_baseentity.obj
 0001:0000aab8       ?RouteClassify@CBaseMonster@@QAEHH@Z 1000bab8 f   hl_baseentity.obj
 0001:0000aac7       ?BuildRoute@CBaseMonster@@QAEHABVVector@@HPAVCBaseEntity@@@Z 1000bac7 f   hl_baseentity.obj
 0001:0000aad6       ?InsertWaypoint@CBaseMonster@@QAEXVVector@@H@Z 1000bad6 f   hl_baseentity.obj
 0001:0000aae3       ?FTriangulate@CBaseMonster@@UAEHABVVector@@0MPAVCBaseEntity@@PAV2@@Z 1000bae3 f   hl_baseentity.obj
 0001:0000aaf2       ?Move@CBaseMonster@@UAEXM@Z 1000baf2 f   hl_baseentity.obj
 0001:0000aaff       ?ShouldAdvanceRoute@CBaseMonster@@UAEHM@Z 1000baff f   hl_baseentity.obj
 0001:0000ab0e       ?MoveExecute@CBaseMonster@@UAEXPAVCBaseEntity@@ABVVector@@M@Z 1000bb0e f   hl_baseentity.obj
 0001:0000ab1b       ?MonsterInit@CBaseMonster@@UAEXXZ 1000bb1b f   hl_baseentity.obj
 0001:0000ab26       ?MonsterInitThink@CBaseMonster@@QAEXXZ 1000bb26 f   hl_baseentity.obj
 0001:0000ab31       ?StartMonster@CBaseMonster@@UAEXXZ 1000bb31 f   hl_baseentity.obj
 0001:0000ab3c       ?MovementComplete@CBaseMonster@@QAEXXZ 1000bb3c f   hl_baseentity.obj
 0001:0000ab47       ?TaskIsRunning@CBaseMonster@@QAEHXZ 1000bb47 f   hl_baseentity.obj
 0001:0000ab54       ?IRelationship@CBaseMonster@@UAEHPAVCBaseEntity@@@Z 1000bb54 f   hl_baseentity.obj
 0001:0000ab63       ?FindCover@CBaseMonster@@UAEHVVector@@0MM@Z 1000bb63 f   hl_baseentity.obj
 0001:0000ab72       ?BuildNearestRoute@CBaseMonster@@UAEHVVector@@0MM@Z 1000bb72 f   hl_baseentity.obj
 0001:0000ab81       ?BestVisibleEnemy@CBaseMonster@@UAEPAVCBaseEntity@@XZ 1000bb81 f   hl_baseentity.obj
 0001:0000ab8e       ?FInViewCone@CBaseMonster@@UAEHPAVCBaseEntity@@@Z 1000bb8e f   hl_baseentity.obj
 0001:0000ab9d       ?FInViewCone@CBaseMonster@@UAEHPAVVector@@@Z 1000bb9d f   hl_baseentity.obj
 0001:0000abac       ?FVisible@CBaseEntity@@UAEHPAV1@@Z 1000bbac f   hl_baseentity.obj
 0001:0000abbb       ?FVisible@CBaseEntity@@UAEHABVVector@@@Z 1000bbbb f   hl_baseentity.obj
 0001:0000abca       ?MakeIdealYaw@CBaseMonster@@QAEXVVector@@@Z 1000bbca f   hl_baseentity.obj
 0001:0000abd7       ?FlYawDiff@CBaseMonster@@QAEMXZ 1000bbd7 f   hl_baseentity.obj
 0001:0000abe8       ?ChangeYaw@CBaseMonster@@UAEMH@Z 1000bbe8 f   hl_baseentity.obj
 0001:0000abfb       ?VecToYaw@CBaseMonster@@QAEMVVector@@@Z 1000bbfb f   hl_baseentity.obj
 0001:0000ac0e       ?LookupActivity@CBaseAnimating@@QAEHH@Z 1000bc0e f   hl_baseentity.obj
 0001:0000ac1d       ?LookupActivityHeaviest@CBaseAnimating@@QAEHH@Z 1000bc1d f   hl_baseentity.obj
 0001:0000ac2c       ?SetEyePosition@CBaseMonster@@QAEXXZ 1000bc2c f   hl_baseentity.obj
 0001:0000ac37       ?LookupSequence@CBaseAnimating@@QAEHPBD@Z 1000bc37 f   hl_baseentity.obj
 0001:0000ac46       ?ResetSequenceInfo@CBaseAnimating@@QAEXXZ 1000bc46 f   hl_baseentity.obj
 0001:0000ac51       ?GetSequenceFlags@CBaseAnimating@@QAEHXZ 1000bc51 f   hl_baseentity.obj
 0001:0000ac5e       ?DispatchAnimEvents@CBaseAnimating@@QAEXM@Z 1000bc5e f   hl_baseentity.obj
 0001:0000ac6b       ?HandleAnimEvent@CBaseMonster@@UAEXPAUMonsterEvent_t@@@Z 1000bc6b f   hl_baseentity.obj
 0001:0000ac78       ?SetBoneController@CBaseAnimating@@QAEMHM@Z 1000bc78 f   hl_baseentity.obj
 0001:0000ac8b       ?InitBoneControllers@CBaseAnimating@@QAEXXZ 1000bc8b f   hl_baseentity.obj
 0001:0000ac96       ?SetBlending@CBaseAnimating@@QAEMHM@Z 1000bc96 f   hl_baseentity.obj
 0001:0000aca9       ?GetBonePosition@CBaseAnimating@@QAEXHAAVVector@@0@Z 1000bca9 f   hl_baseentity.obj
 0001:0000acb6       ?GetAttachment@CBaseAnimating@@QAEXHAAVVector@@0@Z 1000bcb6 f   hl_baseentity.obj
 0001:0000acc3       ?FindTransition@CBaseAnimating@@QAEHHHPAH@Z 1000bcc3 f   hl_baseentity.obj
 0001:0000acd3       ?GetAutomovement@CBaseAnimating@@QAEXAAVVector@@0M@Z 1000bcd3 f   hl_baseentity.obj
 0001:0000ace0       ?SetBodygroup@CBaseAnimating@@QAEXHH@Z 1000bce0 f   hl_baseentity.obj
 0001:0000aced       ?GetBodygroup@CBaseAnimating@@QAEHH@Z 1000bced f   hl_baseentity.obj
 0001:0000acfc       ?GetGunPosition@CBaseMonster@@UAE?AVVector@@XZ 1000bcfc f   hl_baseentity.obj
 0001:0000ad19       ?TraceAttack@CBaseEntity@@UAEXPAUentvars_s@@MVVector@@PAUTraceResult@@H@Z 1000bd19 f   hl_baseentity.obj
 0001:0000ad26       ?FireBullets@CBaseEntity@@QAEXKVVector@@00MHHHPAUentvars_s@@@Z 1000bd26 f   hl_baseentity.obj
 0001:0000ad33       ?TraceBleed@CBaseEntity@@UAEXMVVector@@PAUTraceResult@@H@Z 1000bd33 f   hl_baseentity.obj
 0001:0000ad40       ?MakeDamageBloodDecal@CBaseMonster@@QAEXHMPAUTraceResult@@ABVVector@@@Z 1000bd40 f   hl_baseentity.obj
 0001:0000ad4d       ?FGetNodeRoute@CBaseMonster@@QAEHVVector@@@Z 1000bd4d f   hl_baseentity.obj
 0001:0000ad5f       ?FindHintNode@CBaseMonster@@QAEHXZ 1000bd5f f   hl_baseentity.obj
 0001:0000ad6d       ?ReportAIState@CBaseMonster@@UAEXXZ 1000bd6d f   hl_baseentity.obj
 0001:0000ad78       ?KeyValue@CBaseMonster@@UAEXPAUKeyValueData_s@@@Z 1000bd78 f   hl_baseentity.obj
 0001:0000ad85       ?FCheckAITrigger@CBaseMonster@@QAEHXZ 1000bd85 f   hl_baseentity.obj
 0001:0000ad92       ?CanPlaySequence@CBaseMonster@@UAEHHH@Z 1000bd92 f   hl_baseentity.obj
 0001:0000ada1       ?FindLateralCover@CBaseMonster@@QAEHABVVector@@0@Z 1000bda1 f   hl_baseentity.obj
 0001:0000adb0       ?ShootAtEnemy@CBaseMonster@@QAE?AVVector@@ABV2@@Z 1000bdb0 f   hl_baseentity.obj
 0001:0000adcd       ?FacingIdeal@CBaseMonster@@QAEHXZ 1000bdcd f   hl_baseentity.obj
 0001:0000adda       ?FCanActiveIdle@CBaseMonster@@UAEHXZ 1000bdda f   hl_baseentity.obj
 0001:0000ade7       ?PlaySentence@CBaseMonster@@UAEXPBDMMM@Z 1000bde7 f   hl_baseentity.obj
 0001:0000adf4       ?PlayScriptedSentence@CBaseMonster@@UAEXPBDMMMHPAVCBaseEntity@@@Z 1000bdf4 f   hl_baseentity.obj
 0001:0000ae01       ?SentenceStop@CBaseMonster@@UAEXXZ 1000be01 f   hl_baseentity.obj
 0001:0000ae0c       ?CorpseFallThink@CBaseMonster@@QAEXXZ 1000be0c f   hl_baseentity.obj
 0001:0000ae17       ?MonsterInitDead@CBaseMonster@@UAEXXZ 1000be17 f   hl_baseentity.obj
 0001:0000ae22       ?BBoxFlat@CBaseMonster@@QAEHXZ 1000be22 f   hl_baseentity.obj
 0001:0000ae32       ?GetEnemy@CBaseMonster@@QAEHXZ 1000be32 f   hl_baseentity.obj
 0001:0000ae3f       ?TraceAttack@CBaseMonster@@UAEXPAUentvars_s@@MVVector@@PAUTraceResult@@H@Z 1000be3f f   hl_baseentity.obj
 0001:0000ae4c       ?DropItem@CBaseMonster@@QAEPAVCBaseEntity@@PADABVVector@@1@Z 1000be4c f   hl_baseentity.obj
 0001:0000ae5b       ?ShouldFadeOnDeath@CBaseMonster@@UAEHXZ 1000be5b f   hl_baseentity.obj
 0001:0000ae68       ?RadiusDamage@CBaseMonster@@QAEXPAUentvars_s@@0MHH@Z 1000be68 f   hl_baseentity.obj
 0001:0000ae75       ?RadiusDamage@CBaseMonster@@QAEXVVector@@PAUentvars_s@@1MHH@Z 1000be75 f   hl_baseentity.obj
 0001:0000ae82       ?FadeMonster@CBaseMonster@@UAEXXZ 1000be82 f   hl_baseentity.obj
 0001:0000ae8d       ?GibMonster@CBaseMonster@@UAEXXZ 1000be8d f   hl_baseentity.obj
 0001:0000ae98       ?HasHumanGibs@CBaseMonster@@UAEHXZ 1000be98 f   hl_baseentity.obj
 0001:0000aea5       ?HasAlienGibs@CBaseMonster@@UAEHXZ 1000bea5 f   hl_baseentity.obj
 0001:0000aeb2       ?GetDeathActivity@CBaseMonster@@UAE?AW4Activity@@XZ 1000beb2 f   hl_baseentity.obj
 0001:0000aec2       ?GetIdealState@CBaseMonster@@UAE?AW4MONSTERSTATE@@XZ 1000bec2 f   hl_baseentity.obj
 0001:0000aed2       ?GetScheduleOfType@CBaseMonster@@UAEPAUSchedule_t@@H@Z 1000bed2 f   hl_baseentity.obj
 0001:0000aee1       ?GetSchedule@CBaseMonster@@UAEPAUSchedule_t@@XZ 1000bee1 f   hl_baseentity.obj
 0001:0000aeee       ?RunTask@CBaseMonster@@UAEXPAUTask_t@@@Z 1000beee f   hl_baseentity.obj
 0001:0000aefb       ?StartTask@CBaseMonster@@UAEXPAUTask_t@@@Z 1000befb f   hl_baseentity.obj
 0001:0000af08       ?ScheduleFromName@CBaseMonster@@UAEPAUSchedule_t@@PBD@Z 1000bf08 f   hl_baseentity.obj
 0001:0000af17       ?BecomeDead@CBaseMonster@@UAEXXZ 1000bf17 f   hl_baseentity.obj
 0001:0000af22       ?RunAI@CBaseMonster@@UAEXXZ 1000bf22 f   hl_baseentity.obj
 0001:0000af2d       ?Killed@CBaseMonster@@UAEXPAUentvars_s@@H@Z 1000bf2d f   hl_baseentity.obj
 0001:0000af3a       ?TakeHealth@CBaseMonster@@UAEHMH@Z 1000bf3a f   hl_baseentity.obj
 0001:0000af49       ?TakeDamage@CBaseMonster@@UAEHPAUentvars_s@@0MH@Z 1000bf49 f   hl_baseentity.obj
 0001:0000af58       ?Restore@CBaseMonster@@UAEHAAVCRestore@@@Z 1000bf58 f   hl_baseentity.obj
 0001:0000af6a       ?Save@CBaseMonster@@UAEHAAVCSave@@@Z 1000bf6a f   hl_baseentity.obj
 0001:0000af7c       ?TrainSpeed@@YAHHH@Z       1000bf7c f   hl_baseentity.obj
 0001:0000af83       ?DeathSound@CBasePlayer@@UAEXXZ 1000bf83 f   hl_baseentity.obj
 0001:0000af8e       ?TakeHealth@CBasePlayer@@UAEHMH@Z 1000bf8e f   hl_baseentity.obj
 0001:0000af9d       ?TraceAttack@CBasePlayer@@UAEXPAUentvars_s@@MVVector@@PAUTraceResult@@H@Z 1000bf9d f   hl_baseentity.obj
 0001:0000afaa       ?TakeDamage@CBasePlayer@@UAEHPAUentvars_s@@0MH@Z 1000bfaa f   hl_baseentity.obj
 0001:0000afb9       ?PackDeadPlayerItems@CBasePlayer@@QAEXXZ 1000bfb9 f   hl_baseentity.obj
 0001:0000afc4       ?RemoveAllItems@CBasePlayer@@QAEXH@Z 1000bfc4 f   hl_baseentity.obj
 0001:0000afd1       ?SetAnimation@CBasePlayer@@QAEXW4PLAYER_ANIM@@@Z 1000bfd1 f   hl_baseentity.obj
 0001:0000afde       ?WaterMove@CBasePlayer@@QAEXXZ 1000bfde f   hl_baseentity.obj
 0001:0000afe9       ?IsOnLadder@CBasePlayer@@QAEHXZ 1000bfe9 f   hl_baseentity.obj
 0001:0000aff6       ?PlayerDeathThink@CBasePlayer@@QAEXXZ 1000bff6 f   hl_baseentity.obj
 0001:0000b001       ?StartDeathCam@CBasePlayer@@QAEXXZ 1000c001 f   hl_baseentity.obj
 0001:0000b00c       ?StartObserver@CBasePlayer@@QAEXVVector@@0@Z 1000c00c f   hl_baseentity.obj
 0001:0000b019       ?PlayerUse@CBasePlayer@@QAEXXZ 1000c019 f   hl_baseentity.obj
 0001:0000b024       ?Jump@CBasePlayer@@UAEXXZ  1000c024 f   hl_baseentity.obj
 0001:0000b02f       ?Duck@CBasePlayer@@UAEXXZ  1000c02f f   hl_baseentity.obj
 0001:0000b03a       ?Classify@CBasePlayer@@UAEHXZ 1000c03a f   hl_baseentity.obj
 0001:0000b047       ?PreThink@CBasePlayer@@UAEXXZ 1000c047 f   hl_baseentity.obj
 0001:0000b052       ?CheckTimeBasedDamage@CBasePlayer@@QAEXXZ 1000c052 f   hl_baseentity.obj
 0001:0000b05d       ?UpdateGeigerCounter@CBasePlayer@@QAEXXZ 1000c05d f   hl_baseentity.obj
 0001:0000b068       ?CheckSuitUpdate@CBasePlayer@@QAEXXZ 1000c068 f   hl_baseentity.obj
 0001:0000b073       ?SetSuitUpdate@CBasePlayer@@QAEXPADHH@Z 1000c073 f   hl_baseentity.obj
 0001:0000b080       ?UpdatePlayerSound@CBasePlayer@@QAEXXZ 1000c080 f   hl_baseentity.obj
 0001:0000b08b       ?PostThink@CBasePlayer@@UAEXXZ 1000c08b f   hl_baseentity.obj
 0001:0000b096       ?Precache@CBasePlayer@@UAEXXZ 1000c096 f   hl_baseentity.obj
 0001:0000b0a1       ?Save@CBasePlayer@@UAEHAAVCSave@@@Z 1000c0a1 f   hl_baseentity.obj
 0001:0000b0b0       ?RenewItems@CBasePlayer@@QAEXXZ 1000c0b0 f   hl_baseentity.obj
 0001:0000b0bb       ?Restore@CBasePlayer@@UAEHAAVCRestore@@@Z 1000c0bb f   hl_baseentity.obj
 0001:0000b0ca       ?SelectNextItem@CBasePlayer@@QAEXH@Z 1000c0ca f   hl_baseentity.obj
 0001:0000b0d7       ?HasWeapons@CBasePlayer@@QAEHXZ 1000c0d7 f   hl_baseentity.obj
 0001:0000b0e4       ?SelectPrevItem@CBasePlayer@@QAEXH@Z 1000c0e4 f   hl_baseentity.obj
 0001:0000b0f1       ?FindEntityForward@@YAPAVCBaseEntity@@PAV1@@Z 1000c0f1 f   hl_baseentity.obj
 0001:0000b0f8       ?FlashlightIsOn@CBasePlayer@@QAEHXZ 1000c0f8 f   hl_baseentity.obj
 0001:0000b105       ?FlashlightTurnOn@CBasePlayer@@QAEXXZ 1000c105 f   hl_baseentity.obj
 0001:0000b110       ?FlashlightTurnOff@CBasePlayer@@QAEXXZ 1000c110 f   hl_baseentity.obj
 0001:0000b11b       ?ForceClientDllUpdate@CBasePlayer@@QAEXXZ 1000c11b f   hl_baseentity.obj
 0001:0000b126       ?ImpulseCommands@CBasePlayer@@UAEXXZ 1000c126 f   hl_baseentity.obj
 0001:0000b131       ?CheatImpulseCommands@CBasePlayer@@QAEXH@Z 1000c131 f   hl_baseentity.obj
 0001:0000b13e       ?AddPlayerItem@CBasePlayer@@UAEHPAVCBasePlayerItem@@@Z 1000c13e f   hl_baseentity.obj
 0001:0000b14d       ?RemovePlayerItem@CBasePlayer@@UAEHPAVCBasePlayerItem@@@Z 1000c14d f   hl_baseentity.obj
 0001:0000b15c       ?ItemPreFrame@CBasePlayer@@QAEXXZ 1000c15c f   hl_baseentity.obj
 0001:0000b167       ?ItemPostFrame@CBasePlayer@@QAEXXZ 1000c167 f   hl_baseentity.obj
 0001:0000b172       ?AmmoInventory@CBasePlayer@@QAEHH@Z 1000c172 f   hl_baseentity.obj
 0001:0000b182       ?GetAmmoIndex@CBasePlayer@@SAHPBD@Z 1000c182 f   hl_baseentity.obj
 0001:0000b18a       ?SendAmmoUpdate@CBasePlayer@@QAEXXZ 1000c18a f   hl_baseentity.obj
 0001:0000b195       ?UpdateClientData@CBasePlayer@@UAEXXZ 1000c195 f   hl_baseentity.obj
 0001:0000b1a0       ?FBecomeProne@CBasePlayer@@UAEHXZ 1000c1a0 f   hl_baseentity.obj
 0001:0000b1b0       ?BarnacleVictimBitten@CBasePlayer@@UAEXPAUentvars_s@@@Z 1000c1b0 f   hl_baseentity.obj
 0001:0000b1bd       ?BarnacleVictimReleased@CBasePlayer@@UAEXXZ 1000c1bd f   hl_baseentity.obj
 0001:0000b1c8       ?Illumination@CBasePlayer@@UAEHXZ 1000c1c8 f   hl_baseentity.obj
 0001:0000b1d5       ?EnableControl@CBasePlayer@@QAEXH@Z 1000c1d5 f   hl_baseentity.obj
 0001:0000b1e2       ?GetAutoaimVector@CBasePlayer@@QAE?AVVector@@M@Z 1000c1e2 f   hl_baseentity.obj
 0001:0000b1ff       ?AutoaimDeflection@CBasePlayer@@QAE?AVVector@@AAV2@MM@Z 1000c1ff f   hl_baseentity.obj
 0001:0000b21c       ?ResetAutoaim@CBasePlayer@@QAEXXZ 1000c21c f   hl_baseentity.obj
 0001:0000b227       ?SetCustomDecalFrames@CBasePlayer@@QAEXH@Z 1000c227 f   hl_baseentity.obj
 0001:0000b234       ?GetCustomDecalFrames@CBasePlayer@@QAEHXZ 1000c234 f   hl_baseentity.obj
 0001:0000b242       ?DropPlayerItem@CBasePlayer@@QAEXPAD@Z 1000c242 f   hl_baseentity.obj
 0001:0000b24f       ?HasPlayerItem@CBasePlayer@@QAEHPAVCBasePlayerItem@@@Z 1000c24f f   hl_baseentity.obj
 0001:0000b25e       ?SwitchWeapon@CBasePlayer@@QAEHPAVCBasePlayerItem@@@Z 1000c25e f   hl_baseentity.obj
 0001:0000b26d       ?GetGunPosition@CBasePlayer@@UAE?AVVector@@XZ 1000c26d f   hl_baseentity.obj
 0001:0000b28a       ?TeamID@CBasePlayer@@UAEPBDXZ 1000c28a f   hl_baseentity.obj
 0001:0000b29a       ?GiveAmmo@CBasePlayer@@UAEHHPADH@Z 1000c29a f   hl_baseentity.obj
 0001:0000b2a9       ?AddPoints@CBasePlayer@@UAEXHH@Z 1000c2a9 f   hl_baseentity.obj
 0001:0000b2b6       ?AddPointsToTeam@CBasePlayer@@UAEXHH@Z 1000c2b6 f   hl_baseentity.obj
 0001:0000b2c3       ?ClearMultiDamage@@YAXXZ   1000c2c3 f   hl_baseentity.obj
 0001:0000b2c8       ?ApplyMultiDamage@@YAXPAUentvars_s@@0@Z 1000c2c8 f   hl_baseentity.obj
 0001:0000b2cd       ?AddMultiDamage@@YAXPAUentvars_s@@PAVCBaseEntity@@MH@Z 1000c2cd f   hl_baseentity.obj
 0001:0000b2d2       ?SpawnBlood@@YAXVVector@@HM@Z 1000c2d2 f   hl_baseentity.obj
 0001:0000b2d7       ?DamageDecal@@YAHPAVCBaseEntity@@H@Z 1000c2d7 f   hl_baseentity.obj
 0001:0000b2de       ?DecalGunshot@@YAXPAUTraceResult@@H@Z 1000c2de f   hl_baseentity.obj
 0001:0000b2e3       ?EjectBrass@@YAXABVVector@@0MHH@Z 1000c2e3 f   hl_baseentity.obj
 0001:0000b2e8       ?AddAmmoNameToAmmoRegistry@@YAXPBD@Z 1000c2e8 f   hl_baseentity.obj
 0001:0000b2ed       ?Restore@CBasePlayerItem@@UAEHAAVCRestore@@@Z 1000c2ed f   hl_baseentity.obj
 0001:0000b2ff       ?Save@CBasePlayerItem@@UAEHAAVCSave@@@Z 1000c2ff f   hl_baseentity.obj
 0001:0000b311       ?Restore@CBasePlayerWeapon@@UAEHAAVCRestore@@@Z 1000c311 f   hl_baseentity.obj
 0001:0000b323       ?Save@CBasePlayerWeapon@@UAEHAAVCSave@@@Z 1000c323 f   hl_baseentity.obj
 0001:0000b335       ?SetObjectCollisionBox@CBasePlayerItem@@UAEXXZ 1000c335 f   hl_baseentity.obj
 0001:0000b340       ?FallInit@CBasePlayerItem@@QAEXXZ 1000c340 f   hl_baseentity.obj
 0001:0000b34b       ?FallThink@CBasePlayerItem@@QAEXXZ 1000c34b f   hl_baseentity.obj
 0001:0000b356       ?Materialize@CBasePlayerItem@@QAEXXZ 1000c356 f   hl_baseentity.obj
 0001:0000b361       ?AttemptToMaterialize@CBasePlayerItem@@QAEXXZ 1000c361 f   hl_baseentity.obj
 0001:0000b36c       ?CheckRespawn@CBasePlayerItem@@QAEXXZ 1000c36c f   hl_baseentity.obj
 0001:0000b377       ?Respawn@CBasePlayerItem@@UAEPAVCBaseEntity@@XZ 1000c377 f   hl_baseentity.obj
 0001:0000b384       ?DefaultTouch@CBasePlayerItem@@QAEXPAVCBaseEntity@@@Z 1000c384 f   hl_baseentity.obj
 0001:0000b391       ?DestroyItem@CBasePlayerItem@@QAEXXZ 1000c391 f   hl_baseentity.obj
 0001:0000b39c       ?AddToPlayer@CBasePlayerItem@@UAEHPAVCBasePlayer@@@Z 1000c39c f   hl_baseentity.obj
 0001:0000b3ae       ?Drop@CBasePlayerItem@@UAEXXZ 1000c3ae f   hl_baseentity.obj
 0001:0000b3b9       ?Kill@CBasePlayerItem@@UAEXXZ 1000c3b9 f   hl_baseentity.obj
 0001:0000b3c4       ?Holster@CBasePlayerItem@@UAEXH@Z 1000c3c4 f   hl_baseentity.obj
 0001:0000b3d1       ?AttachToPlayer@CBasePlayerItem@@UAEXPAVCBasePlayer@@@Z 1000c3d1 f   hl_baseentity.obj
 0001:0000b3de       ?AddDuplicate@CBasePlayerWeapon@@UAEHPAVCBasePlayerItem@@@Z 1000c3de f   hl_baseentity.obj
 0001:0000b3ed       ?AddToPlayer@CBasePlayerWeapon@@UAEHPAVCBasePlayer@@@Z 1000c3ed f   hl_baseentity.obj
 0001:0000b3fc       ?UpdateClientData@CBasePlayerWeapon@@UAEHPAVCBasePlayer@@@Z 1000c3fc f   hl_baseentity.obj
 0001:0000b40b       ?AddPrimaryAmmo@CBasePlayerWeapon@@QAEHHPADHH@Z 1000c40b f   hl_baseentity.obj
 0001:0000b41d       ?AddSecondaryAmmo@CBasePlayerWeapon@@QAEHHPADH@Z 1000c41d f   hl_baseentity.obj
 0001:0000b42f       ?IsUseable@CBasePlayerWeapon@@UAEHXZ 1000c42f f   hl_baseentity.obj
 0001:0000b43f       ?PrimaryAmmoIndex@CBasePlayerWeapon@@UAEHXZ 1000c43f f   hl_baseentity.obj
 0001:0000b44d       ?SecondaryAmmoIndex@CBasePlayerWeapon@@UAEHXZ 1000c44d f   hl_baseentity.obj
 0001:0000b45b       ?Spawn@CBasePlayerAmmo@@UAEXXZ 1000c45b f   hl_baseentity.obj
 0001:0000b466       ?Respawn@CBasePlayerAmmo@@UAEPAVCBaseEntity@@XZ 1000c466 f   hl_baseentity.obj
 0001:0000b474       ?Materialize@CBasePlayerAmmo@@QAEXXZ 1000c474 f   hl_baseentity.obj
 0001:0000b47f       ?DefaultTouch@CBasePlayerAmmo@@QAEXPAVCBaseEntity@@@Z 1000c47f f   hl_baseentity.obj
 0001:0000b48c       ?ExtractAmmo@CBasePlayerWeapon@@UAEHPAV1@@Z 1000c48c f   hl_baseentity.obj
 0001:0000b49b       ?ExtractClipAmmo@CBasePlayerWeapon@@UAEHPAV1@@Z 1000c49b f   hl_baseentity.obj
 0001:0000b4aa       ?RetireWeapon@CBasePlayerWeapon@@UAEXXZ 1000c4aa f   hl_baseentity.obj
 0001:0000b4b5       ?InsertSound@CSoundEnt@@SAXHABVVector@@HM@Z 1000c4b5 f   hl_baseentity.obj
 0001:0000b4ba       ?RadiusDamage@@YAXVVector@@PAUentvars_s@@1MMHH@Z 1000c4ba f   hl_baseentity.obj
 0001:0000b4c0       ?Game_HookEvents@@YAXXZ    1000c4c0 f   hl_events.obj
 0001:0000b650       ?UpdateBeams@@YAXXZ        1000c650 f   hl_objects.obj
 0001:0000b869       ?Game_AddObjects@@YAXXZ    1000c869 f   hl_objects.obj
 0001:0000ba5e       ?AlertMessage@@YAXW4ALERT_TYPE@@PADZZ 1000ca5e f   hl_weapons.obj
 0001:0000baa4       ?bIsMultiplayer@@YA_NXZ    1000caa4 f   hl_weapons.obj
 0001:0000bab8       ?LoadVModel@@YAXPADPAVCBasePlayer@@@Z 1000cab8 f   hl_weapons.obj
 0001:0000bad7       ?HUD_PrepEntity@@YAXPAVCBaseEntity@@PAVCBasePlayer@@@Z 1000cad7 f   hl_weapons.obj
 0001:0000bb69       ?Killed@CBaseEntity@@UAEXPAUentvars_s@@H@Z 1000cb69 f   hl_weapons.obj
 0001:0000bb91       ?DefaultReload@CBasePlayerWeapon@@QAEHHHMH@Z 1000cb91 f   hl_weapons.obj
 0001:0000bc7d       ?CanDeploy@CBasePlayerWeapon@@UAEHXZ 1000cc7d f   hl_weapons.obj
 0001:0000bd2a       ?DefaultDeploy@CBasePlayerWeapon@@QAEHPAD0H0HH@Z 1000cd2a f   hl_weapons.obj
 0001:0000bdb0       ?PlayEmptySound@CBasePlayerWeapon@@UAEHXZ 1000cdb0 f   hl_weapons.obj
 0001:0000bde6       ?ResetEmptySound@CBasePlayerWeapon@@UAEXXZ 1000cde6 f   hl_weapons.obj
 0001:0000bdfb       ?Holster@CBasePlayerWeapon@@UAEXH@Z 1000cdfb f   hl_weapons.obj
 0001:0000be32       ?SendWeaponAnim@CBasePlayerWeapon@@UAEXHHH@Z 1000ce32 f   hl_weapons.obj
 0001:0000be63       ?FireBulletsPlayer@CBaseEntity@@QAE?AVVector@@KV2@00MHHHPAUentvars_s@@H@Z 1000ce63 f   hl_weapons.obj
 0001:0000bfe0       ?ItemPostFrame@CBasePlayerWeapon@@UAEXXZ 1000cfe0 f   hl_weapons.obj
 0001:0000c239       ?SelectItem@CBasePlayer@@QAEXPBD@Z 1000d239 f   hl_weapons.obj
 0001:0000c2de       ?SelectLastItem@CBasePlayer@@QAEXXZ 1000d2de f   hl_weapons.obj
 0001:0000c394       ?Killed@CBasePlayer@@UAEXPAUentvars_s@@H@Z 1000d394 f   hl_weapons.obj
 0001:0000c3d3       ?Spawn@CBasePlayer@@UAEXXZ 1000d3d3 f   hl_weapons.obj
 0001:0000c40e       ?UTIL_TraceLine@@YAXABVVector@@0W4IGNORE_MONSTERS@@PAUedict_s@@PAUTraceResult@@@Z 1000d40e f   hl_weapons.obj
 0001:0000c42d       ?UTIL_ParticleBox@@YAXPAVCBasePlayer@@PAM1MEEE@Z 1000d42d f   hl_weapons.obj
 0001:0000c4e4       ?UTIL_ParticleBoxes@@YAXXZ 1000d4e4 f   hl_weapons.obj
 0001:0000c602       ?UTIL_ParticleLine@@YAXPAVCBasePlayer@@PAM1MEEE@Z 1000d602 f   hl_weapons.obj
 0001:0000c62a       ?PrintState@CBasePlayerWeapon@@QAEXXZ 1000d62a f   hl_weapons.obj
 0001:0000c6de       ?HUD_InitClientWeapons@@YAXXZ 1000d6de f   hl_weapons.obj
 0001:0000c88f       ?HUD_GetLastOrg@@YAXPAM@Z  1000d88f f   hl_weapons.obj
 0001:0000c8cc       ?HUD_SetLastOrg@@YAXXZ     1000d8cc f   hl_weapons.obj
 0001:0000c935       ?HUD_WeaponsPostThink@@YAXPAUlocal_state_s@@0PAUusercmd_s@@NI@Z 1000d935 f   hl_weapons.obj
 0001:0000d61c       _HUD_PostRunCmd            1000e61c f   hl_weapons.obj
 0001:0000d720       ??0entvars_s@@QAE@XZ       1000e720 f i hl_weapons.obj
 0001:0000d860       ??0CBasePlayer@@QAE@XZ     1000e860 f i hl_weapons.obj
 0001:0000d890       ?GetToggleState@CBaseToggle@@UAEHXZ 1000e890 f i hl_weapons.obj
 0001:0000d8b0       ?GetDelay@CBaseToggle@@UAEMXZ 1000e8b0 f i hl_weapons.obj
 0001:0000d8d0       ?BloodColor@CBaseMonster@@UAEHXZ 1000e8d0 f i hl_weapons.obj
 0001:0000d8f0       ?Stop@CBaseMonster@@UAEXXZ 1000e8f0 f i hl_weapons.obj
 0001:0000d920       ?CanPlaySentence@CBaseMonster@@UAEHH@Z 1000e920 f i hl_weapons.obj
 0001:0000d940       ?CoverRadius@CBaseMonster@@UAEMXZ 1000e940 f i hl_weapons.obj
 0001:0000d960       ?HearingSensitivity@CBaseMonster@@UAEMXZ 1000e960 f i hl_weapons.obj
 0001:0000d980       ?IsMoving@CBaseMonster@@UAEHXZ 1000e980 f i hl_weapons.obj
 0001:0000d9a0       ?BodyTarget@CBasePlayer@@UAE?AVVector@@ABV2@@Z 1000e9a0 f i hl_weapons.obj
 0001:0000da10       ?StartSneaking@CBasePlayer@@UAEXXZ 1000ea10 f i hl_weapons.obj
 0001:0000da40       ?StopSneaking@CBasePlayer@@UAEXXZ 1000ea40 f i hl_weapons.obj
 0001:0000da70       ?IsSneaking@CBasePlayer@@UAEHXZ 1000ea70 f i hl_weapons.obj
 0001:0000dab0       ?IsAlive@CBasePlayer@@UAEHXZ 1000eab0 f i hl_weapons.obj
 0001:0000dab0       ?IsAlive@CBaseEntity@@UAEHXZ 1000eab0 f i hl_weapons.obj
 0001:0000db00       ?ObjectCaps@CBasePlayer@@UAEHXZ 1000eb00 f i hl_weapons.obj
 0001:0000db20       ??0CBaseMonster@@QAE@XZ    1000eb20 f i hl_weapons.obj
 0001:0000dbb0       ?IsAlive@CBaseMonster@@UAEHXZ 1000ebb0 f i hl_weapons.obj
 0001:0000dbd0       ?BodyTarget@CBaseMonster@@UAE?AVVector@@ABV2@@Z 1000ebd0 f i hl_weapons.obj
 0001:0000dc40       ??0CBaseToggle@@QAE@XZ     1000ec40 f i hl_weapons.obj
 0001:0000dcc0       ??0globalvars_t@@QAE@XZ    1000ecc0 f i hl_weapons.obj
 0001:0000dd20       ??0CGlock@@QAE@XZ          1000ed20 f i hl_weapons.obj
 0001:0000dd40       ??0CPython@@QAE@XZ         1000ed40 f i hl_weapons.obj
 0001:0000dd60       ?ObjectCaps@CBaseEntity@@UAEHXZ 1000ed60 f i hl_weapons.obj
 0001:0000dd60       ?iItemSlot@CPython@@UAEHXZ 1000ed60 f i hl_weapons.obj
 0001:0000dd60       ?iItemSlot@CGlock@@UAEHXZ  1000ed60 f i hl_weapons.obj
 0001:0000dd70       ??0CMP5@@QAE@XZ            1000ed70 f i hl_weapons.obj
 0001:0000dd90       ??0CShotgun@@QAE@XZ        1000ed90 f i hl_weapons.obj
 0001:0000ddb0       ?iItemSlot@CCrossbow@@UAEHXZ 1000edb0 f i hl_weapons.obj
 0001:0000ddb0       ?iItemSlot@CMP5@@UAEHXZ    1000edb0 f i hl_weapons.obj
 0001:0000ddb0       ?iItemSlot@CShotgun@@UAEHXZ 1000edb0 f i hl_weapons.obj
 0001:0000ddc0       ??0CRpg@@QAE@XZ            1000edc0 f i hl_weapons.obj
 0001:0000dde0       ?UseDecrement@CEgon@@UAEHXZ 1000ede0 f i hl_weapons.obj
 0001:0000dde0       ?IsPlayer@CBasePlayer@@UAEHXZ 1000ede0 f i hl_weapons.obj
 0001:0000dde0       ?GetStoppedActivity@CBaseMonster@@UAE?AW4Activity@@XZ 1000ede0 f i hl_weapons.obj
 0001:0000dde0       ?UseDecrement@CSatchel@@UAEHXZ 1000ede0 f i hl_weapons.obj
 0001:0000dde0       ?UseDecrement@CPython@@UAEHXZ 1000ede0 f i hl_weapons.obj
 0001:0000dde0       ?UseDecrement@CTripmine@@UAEHXZ 1000ede0 f i hl_weapons.obj
 0001:0000dde0       ?UseDecrement@CRpg@@UAEHXZ 1000ede0 f i hl_weapons.obj
 0001:0000dde0       ?UseDecrement@CMP5@@UAEHXZ 1000ede0 f i hl_weapons.obj
 0001:0000dde0       ?UseDecrement@CShotgun@@UAEHXZ 1000ede0 f i hl_weapons.obj
 0001:0000dde0       ?iItemSlot@CCrowbar@@UAEHXZ 1000ede0 f i hl_weapons.obj
 0001:0000dde0       ?UseDecrement@CCrossbow@@UAEHXZ 1000ede0 f i hl_weapons.obj
 0001:0000dde0       ?CanHolster@CBasePlayerItem@@UAEHXZ 1000ede0 f i hl_weapons.obj
 0001:0000dde0       ?IsNetClient@CBasePlayer@@UAEHXZ 1000ede0 f i hl_weapons.obj
 0001:0000dde0       ?ShouldWeaponIdle@CRpg@@UAEHXZ 1000ede0 f i hl_weapons.obj
 0001:0000dde0       ?UseDecrement@CGlock@@UAEHXZ 1000ede0 f i hl_weapons.obj
 0001:0000dde0       ?UseDecrement@CCrowbar@@UAEHXZ 1000ede0 f i hl_weapons.obj
 0001:0000dde0       ?UseDecrement@CSqueak@@UAEHXZ 1000ede0 f i hl_weapons.obj
 0001:0000dde0       ?Deploy@CBasePlayerItem@@UAEHXZ 1000ede0 f i hl_weapons.obj
 0001:0000dde0       ?CanDeploy@CBasePlayerItem@@UAEHXZ 1000ede0 f i hl_weapons.obj
 0001:0000dde0       ?UseDecrement@CGauss@@UAEHXZ 1000ede0 f i hl_weapons.obj
 0001:0000dde0       ?UseDecrement@CHgun@@UAEHXZ 1000ede0 f i hl_weapons.obj
 0001:0000dde0       ?UseDecrement@CHandGrenade@@UAEHXZ 1000ede0 f i hl_weapons.obj
 0001:0000ddf0       ??0CHgun@@QAE@XZ           1000edf0 f i hl_weapons.obj
 0001:0000de10       ??0CSatchel@@QAE@XZ        1000ee10 f i hl_weapons.obj
 0001:0000de30       ??0CTripmine@@QAE@XZ       1000ee30 f i hl_weapons.obj
 0001:0000de50       ?iItemSlot@CSqueak@@UAEHXZ 1000ee50 f i hl_weapons.obj
 0001:0000de50       ?iItemSlot@CHandGrenade@@UAEHXZ 1000ee50 f i hl_weapons.obj
 0001:0000de50       ?iItemSlot@CSatchel@@UAEHXZ 1000ee50 f i hl_weapons.obj
 0001:0000de50       ?iItemSlot@CTripmine@@UAEHXZ 1000ee50 f i hl_weapons.obj
 0001:0000de60       ?SetObjectCollisionBox@CTripmine@@UAEXXZ 1000ee60 f i hl_weapons.obj
 0001:0000df00       ??0CSqueak@@QAE@XZ         1000ef00 f i hl_weapons.obj
 0001:0000df20       ?pszAmmo1@CBasePlayerItem@@QAEPBDXZ 1000ef20 f i hl_weapons.obj
 0001:0000df40       ?pszAmmo2@CBasePlayerItem@@QAEPBDXZ 1000ef40 f i hl_weapons.obj
 0001:0000df60       ?iMaxClip@CBasePlayerItem@@QAEHXZ 1000ef60 f i hl_weapons.obj
 0001:0000df80       ?iFlags@CBasePlayerItem@@QAEHXZ 1000ef80 f i hl_weapons.obj
 0001:0000dfa0       _weapon_glock              1000efa0 f   hl_wpn_glock.obj
 0001:0000dfb1       _weapon_9mmhandgun         1000efb1 f   hl_wpn_glock.obj
 0001:0000dfc2       ?Spawn@CGlock@@UAEXXZ      1000efc2 f   hl_wpn_glock.obj
 0001:0000e02d       ?Precache@CGlock@@UAEXXZ   1000f02d f   hl_wpn_glock.obj
 0001:0000e0f3       ?GetItemInfo@CGlock@@UAEHPAUItemInfo@@@Z 1000f0f3 f   hl_wpn_glock.obj
 0001:0000e18c       ?Deploy@CGlock@@UAEHXZ     1000f18c f   hl_wpn_glock.obj
 0001:0000e1b4       ?SecondaryAttack@CGlock@@UAEXXZ 1000f1b4 f   hl_wpn_glock.obj
 0001:0000e1d3       ?PrimaryAttack@CGlock@@UAEXXZ 1000f1d3 f   hl_wpn_glock.obj
 0001:0000e1f2       ?GlockFire@CGlock@@QAEXMMH@Z 1000f1f2 f   hl_wpn_glock.obj
 0001:0000e4cc       ?Reload@CGlock@@UAEXXZ     1000f4cc f   hl_wpn_glock.obj
 0001:0000e55a       ?WeaponIdle@CGlock@@UAEXXZ 1000f55a f   hl_wpn_glock.obj
 0001:0000e65d       _ammo_glockclip            1000f65d f   hl_wpn_glock.obj
 0001:0000e66e       _ammo_9mmclip              1000f66e f   hl_wpn_glock.obj
 0001:0000e680       ?GetClassPtr@@YAPAVCGlock@@PAV1@@Z 1000f680 f i hl_wpn_glock.obj
 0001:0000e740       ?GetClassPtr@@YAPAVCGlockAmmo@@PAV1@@Z 1000f740 f i hl_wpn_glock.obj
 0001:0000e800       ??0CGlockAmmo@@QAE@XZ      1000f800 f i hl_wpn_glock.obj
 0001:0000e820       ?Spawn@CGlockAmmo@@EAEXXZ  1000f820 f i hl_wpn_glock.obj
 0001:0000e860       ?Precache@CGlockAmmo@@EAEXXZ 1000f860 f i hl_wpn_glock.obj
 0001:0000e890       ?AddAmmo@CGlockAmmo@@EAEHPAVCBaseEntity@@@Z 1000f890 f i hl_wpn_glock.obj
 0001:0000e8f0       _weapon_hornetgun          1000f8f0 f   hornetgun.obj
 0001:0000e901       ?IsUseable@CHgun@@UAEHXZ   1000f901 f   hornetgun.obj
 0001:0000e911       ?Spawn@CHgun@@UAEXXZ       1000f911 f   hornetgun.obj
 0001:0000e971       ?Precache@CHgun@@UAEXXZ    1000f971 f   hornetgun.obj
 0001:0000e9cd       ?AddToPlayer@CHgun@@UAEHPAVCBasePlayer@@@Z 1000f9cd f   hornetgun.obj
 0001:0000ea22       ?GetItemInfo@CHgun@@UAEHPAUItemInfo@@@Z 1000fa22 f   hornetgun.obj
 0001:0000eabb       ?Deploy@CHgun@@UAEHXZ      1000fabb f   hornetgun.obj
 0001:0000eae3       ?Holster@CHgun@@UAEXH@Z    1000fae3 f   hornetgun.obj
 0001:0000eb5f       ?PrimaryAttack@CHgun@@UAEXXZ 1000fb5f f   hornetgun.obj
 0001:0000ecab       ?SecondaryAttack@CHgun@@UAEXXZ 1000fcab f   hornetgun.obj
 0001:0000eddc       ?Reload@CHgun@@UAEXXZ      1000fddc f   hornetgun.obj
 0001:0000ee7b       ?WeaponIdle@CHgun@@UAEXXZ  1000fe7b f   hornetgun.obj
 0001:0000ef60       ?GetClassPtr@@YAPAVCHgun@@PAV1@@Z 1000ff60 f i hornetgun.obj
 0001:0000f020       ??0InterfaceReg@@QAE@P6APAVIBaseInterface@@XZPBD@Z 10010020 f   interface.obj
 0001:0000f055       _CreateInterface           10010055 f   interface.obj
 0001:0000f0b6       ?Sys_LoadModule@@YAPAUHInterfaceModule_t@@PBD@Z 100100b6 f   interface.obj
 0001:0000f0c5       ?Sys_FreeModule@@YAXPAUHInterfaceModule_t@@@Z 100100c5 f   interface.obj
 0001:0000f0dc       ?Sys_GetFactoryThis@@YAP6APAVIBaseInterface@@PBDPAH@ZXZ 100100dc f   interface.obj
 0001:0000f0e6       ?Sys_GetFactory@@YAP6APAVIBaseInterface@@PBDPAH@ZPAUHInterfaceModule_t@@@Z 100100e6 f   interface.obj
 0001:0000f110       _weapon_mp5                10010110 f   mp5.obj
 0001:0000f121       _weapon_9mmAR              10010121 f   mp5.obj
 0001:0000f132       ?SecondaryAmmoIndex@CMP5@@UAEHXZ 10010132 f   mp5.obj
 0001:0000f146       ?Spawn@CMP5@@UAEXXZ        10010146 f   mp5.obj
 0001:0000f1b1       ?Precache@CMP5@@UAEXXZ     100101b1 f   mp5.obj
 0001:0000f2cb       ?GetItemInfo@CMP5@@UAEHPAUItemInfo@@@Z 100102cb f   mp5.obj
 0001:0000f364       ?AddToPlayer@CMP5@@UAEHPAVCBasePlayer@@@Z 10010364 f   mp5.obj
 0001:0000f3b9       ?Deploy@CMP5@@UAEHXZ       100103b9 f   mp5.obj
 0001:0000f3e1       ?PrimaryAttack@CMP5@@UAEXXZ 100103e1 f   mp5.obj
 0001:0000f777       ?SecondaryAttack@CMP5@@UAEXXZ 10010777 f   mp5.obj
 0001:0000f9c5       ?Reload@CMP5@@UAEXXZ       100109c5 f   mp5.obj
 0001:0000f9f1       ?WeaponIdle@CMP5@@UAEXXZ   100109f1 f   mp5.obj
 0001:0000fa9d       _ammo_mp5clip              10010a9d f   mp5.obj
 0001:0000faae       _ammo_9mmAR                10010aae f   mp5.obj
 0001:0000fabf       _ammo_9mmbox               10010abf f   mp5.obj
 0001:0000fad0       _ammo_mp5grenades          10010ad0 f   mp5.obj
 0001:0000fae1       _ammo_ARgrenades           10010ae1 f   mp5.obj
 0001:0000fb00       ?GetClassPtr@@YAPAVCMP5@@PAV1@@Z 10010b00 f i mp5.obj
 0001:0000fbc0       ?GetClassPtr@@YAPAVCMP5AmmoClip@@PAV1@@Z 10010bc0 f i mp5.obj
 0001:0000fc80       ?GetClassPtr@@YAPAVCMP5Chainammo@@PAV1@@Z 10010c80 f i mp5.obj
 0001:0000fd40       ?GetClassPtr@@YAPAVCMP5AmmoGrenade@@PAV1@@Z 10010d40 f i mp5.obj
 0001:0000fe00       ??0CMP5AmmoClip@@QAE@XZ    10010e00 f i mp5.obj
 0001:0000fe20       ?Spawn@CMP5AmmoClip@@EAEXXZ 10010e20 f i mp5.obj
 0001:0000fe60       ?Precache@CMP5AmmoClip@@EAEXXZ 10010e60 f i mp5.obj
 0001:0000fe90       ?AddAmmo@CMP5AmmoClip@@EAEHPAVCBaseEntity@@@Z 10010e90 f i mp5.obj
 0001:0000ff00       ??0CMP5Chainammo@@QAE@XZ   10010f00 f i mp5.obj
 0001:0000ff20       ?Spawn@CEgonAmmo@@EAEXXZ   10010f20 f i mp5.obj
 0001:0000ff20       ?Spawn@CMP5Chainammo@@EAEXXZ 10010f20 f i mp5.obj
 0001:0000ff60       ?AddAmmo@CMP5Chainammo@@EAEHPAVCBaseEntity@@@Z 10010f60 f i mp5.obj
 0001:0000ffd0       ??0CMP5AmmoGrenade@@QAE@XZ 10010fd0 f i mp5.obj
 0001:0000fff0       ?Spawn@CMP5AmmoGrenade@@EAEXXZ 10010ff0 f i mp5.obj
 0001:00010030       ?Precache@CMP5AmmoGrenade@@EAEXXZ 10011030 f i mp5.obj
 0001:00010060       ?AddAmmo@CMP5AmmoGrenade@@EAEHPAVCBaseEntity@@@Z 10011060 f i mp5.obj
 0001:000100c0       _weapon_python             100110c0 f   python.obj
 0001:000100d1       _weapon_357                100110d1 f   python.obj
 0001:000100e2       ?GetItemInfo@CPython@@UAEHPAUItemInfo@@@Z 100110e2 f   python.obj
 0001:0001017b       ?AddToPlayer@CPython@@UAEHPAVCBasePlayer@@@Z 1001117b f   python.obj
 0001:000101d0       ?Spawn@CPython@@UAEXXZ     100111d0 f   python.obj
 0001:0001023b       ?Precache@CPython@@UAEXXZ  1001123b f   python.obj
 0001:000102de       ?Deploy@CPython@@UAEHXZ    100112de f   python.obj
 0001:0001034e       ?Holster@CPython@@UAEXH@Z  1001134e f   python.obj
 0001:000103da       ?SecondaryAttack@CPython@@UAEXXZ 100113da f   python.obj
 0001:0001049f       ?PrimaryAttack@CPython@@UAEXXZ 1001149f f   python.obj
 0001:0001074f       ?Reload@CPython@@UAEXXZ    1001174f f   python.obj
 0001:000107f3       ?WeaponIdle@CPython@@UAEXXZ 100117f3 f   python.obj
 0001:00010998       _ammo_357                  10011998 f   python.obj
 0001:000109b0       ?GetClassPtr@@YAPAVCPython@@PAV1@@Z 100119b0 f i python.obj
 0001:00010a70       ?GetClassPtr@@YAPAVCPythonAmmo@@PAV1@@Z 10011a70 f i python.obj
 0001:00010b30       ??0CPythonAmmo@@QAE@XZ     10011b30 f i python.obj
 0001:00010b50       ?Spawn@CPythonAmmo@@EAEXXZ 10011b50 f i python.obj
 0001:00010b90       ?Precache@CPythonAmmo@@EAEXXZ 10011b90 f i python.obj
 0001:00010bc0       ?AddAmmo@CPythonAmmo@@EAEHPAVCBaseEntity@@@Z 10011bc0 f i python.obj
 0001:00010c20       _weapon_rpg                10011c20 f   rpg.obj
 0001:00010c31       ?Reload@CRpg@@UAEXXZ       10011c31 f   rpg.obj
 0001:00010ce9       ?Spawn@CRpg@@UAEXXZ        10011ce9 f   rpg.obj
 0001:00010d66       ?Precache@CRpg@@UAEXXZ     10011d66 f   rpg.obj
 0001:00010df9       ?GetItemInfo@CRpg@@UAEHPAUItemInfo@@@Z 10011df9 f   rpg.obj
 0001:00010e92       ?AddToPlayer@CRpg@@UAEHPAVCBasePlayer@@@Z 10011e92 f   rpg.obj
 0001:00010ee7       ?Deploy@CRpg@@UAEHXZ       10011ee7 f   rpg.obj
 0001:00010f3a       ?CanHolster@CRpg@@UAEHXZ   10011f3a f   rpg.obj
 0001:00010f66       ?Holster@CRpg@@UAEXH@Z     10011f66 f   rpg.obj
 0001:00010fb0       ?PrimaryAttack@CRpg@@UAEXXZ 10011fb0 f   rpg.obj
 0001:00011085       ?SecondaryAttack@CRpg@@UAEXXZ 10012085 f   rpg.obj
 0001:000110bc       ?WeaponIdle@CRpg@@UAEXXZ   100120bc f   rpg.obj
 0001:000111df       ?UpdateSpot@CRpg@@QAEXXZ   100121df f   rpg.obj
 0001:000111ea       _ammo_rpgclip              100121ea f   rpg.obj
 0001:00011200       ?GetClassPtr@@YAPAVCRpg@@PAV1@@Z 10012200 f i rpg.obj
 0001:000112c0       ?GetClassPtr@@YAPAVCRpgAmmo@@PAV1@@Z 100122c0 f i rpg.obj
 0001:00011380       ??0CRpgAmmo@@QAE@XZ        10012380 f i rpg.obj
 0001:000113a0       ?Spawn@CRpgAmmo@@EAEXXZ    100123a0 f i rpg.obj
 0001:000113e0       ?Precache@CRpgAmmo@@EAEXXZ 100123e0 f i rpg.obj
 0001:00011410       ?AddAmmo@CRpgAmmo@@EAEHPAVCBaseEntity@@@Z 10012410 f i rpg.obj
 0001:00011490       _monster_satchel           10012490 f   satchel.obj
 0001:000114a1       ?Deactivate@CSatchelCharge@@QAEXXZ 100124a1 f   satchel.obj
 0001:000114c8       ?Spawn@CSatchelCharge@@EAEXXZ 100124c8 f   satchel.obj
 0001:000115f1       ?SatchelSlide@CSatchelCharge@@AAEXPAVCBaseEntity@@@Z 100125f1 f   satchel.obj
 0001:0001173c       ?SatchelThink@CSatchelCharge@@AAEXXZ 1001273c f   satchel.obj
 0001:0001186a       ?Precache@CSatchelCharge@@EAEXXZ 1001286a f   satchel.obj
 0001:000118ad       ?BounceSound@CSatchelCharge@@EAEXXZ 100128ad f   satchel.obj
 0001:0001195d       _weapon_satchel            1001295d f   satchel.obj
 0001:0001196e       ?AddDuplicate@CSatchel@@UAEHPAVCBasePlayerItem@@@Z 1001296e f   satchel.obj
 0001:000119aa       ?AddToPlayer@CSatchel@@UAEHPAVCBasePlayer@@@Z 100129aa f   satchel.obj
 0001:00011a13       ?Spawn@CSatchel@@UAEXXZ    10012a13 f   satchel.obj
 0001:00011a66       ?Precache@CSatchel@@UAEXXZ 10012a66 f   satchel.obj
 0001:00011ac4       ?GetItemInfo@CSatchel@@UAEHPAUItemInfo@@@Z 10012ac4 f   satchel.obj
 0001:00011b5d       ?IsUseable@CSatchel@@UAEHXZ 10012b5d f   satchel.obj
 0001:00011ba1       ?CanDeploy@CSatchel@@UAEHXZ 10012ba1 f   satchel.obj
 0001:00011be5       ?Deploy@CSatchel@@UAEHXZ   10012be5 f   satchel.obj
 0001:00011c84       ?Holster@CSatchel@@UAEXH@Z 10012c84 f   satchel.obj
 0001:00011d76       ?PrimaryAttack@CSatchel@@UAEXXZ 10012d76 f   satchel.obj
 0001:00011e95       ?SecondaryAttack@CSatchel@@UAEXXZ 10012e95 f   satchel.obj
 0001:00011eb1       ?Throw@CSatchel@@QAEXXZ    10012eb1 f   satchel.obj
 0001:00011fbe       ?WeaponIdle@CSatchel@@UAEXXZ 10012fbe f   satchel.obj
 0001:00012148       ?DeactivateSatchels@@YAXPAVCBasePlayer@@@Z 10013148 f   satchel.obj
 0001:000121d0       ?Length2D@Vector@@QBEMXZ   100131d0 f i satchel.obj
 0001:00012210       ?FClassnameIs@@YAHPAUentvars_s@@PBD@Z 10013210 f i satchel.obj
 0001:00012240       ?FIND_ENTITY_BY_CLASSNAME@@YAPAUedict_s@@PAU1@PBD@Z 10013240 f i satchel.obj
 0001:00012260       ?FNullEnt@@YAHPBUedict_s@@@Z 10013260 f i satchel.obj
 0001:000122a0       ?OFFSET@@YAHPBUedict_s@@@Z 100132a0 f i satchel.obj
 0001:000122c0       ?FNullEnt@@YAHH@Z          100132c0 f i satchel.obj
 0001:000122d0       ?Instance@CBaseEntity@@SAPAV1@PAUedict_s@@@Z 100132d0 f i satchel.obj
 0001:00012300       ?ENT@@YAPAUedict_s@@H@Z    10013300 f i satchel.obj
 0001:00012320       ?GetClassPtr@@YAPAVCSatchelCharge@@PAV1@@Z 10013320 f i satchel.obj
 0001:000123e0       ?GetClassPtr@@YAPAVCSatchel@@PAV1@@Z 100133e0 f i satchel.obj
 0001:000124a0       ??0CSatchelCharge@@QAE@XZ  100134a0 f i satchel.obj
 0001:000124c0       ??0CGrenade@@QAE@XZ        100134c0 f i satchel.obj
 0001:000124e0       _weapon_shotgun            100134e0 f   shotgun.obj
 0001:000124f1       ?Spawn@CShotgun@@UAEXXZ    100134f1 f   shotgun.obj
 0001:00012544       ?Precache@CShotgun@@UAEXXZ 10013544 f   shotgun.obj
 0001:00012626       ?AddToPlayer@CShotgun@@UAEHPAVCBasePlayer@@@Z 10013626 f   shotgun.obj
 0001:0001267b       ?GetItemInfo@CShotgun@@UAEHPAUItemInfo@@@Z 1001367b f   shotgun.obj
 0001:00012714       ?Deploy@CShotgun@@UAEHXZ   10013714 f   shotgun.obj
 0001:0001273c       ?PrimaryAttack@CShotgun@@UAEXXZ 1001373c f   shotgun.obj
 0001:00012afb       ?SecondaryAttack@CShotgun@@UAEXXZ 10013afb f   shotgun.obj
 0001:00012eb4       ?Reload@CShotgun@@UAEXXZ   10013eb4 f   shotgun.obj
 0001:000130e4       ?WeaponIdle@CShotgun@@UAEXXZ 100140e4 f   shotgun.obj
 0001:00013352       _ammo_buckshot             10014352 f   shotgun.obj
 0001:00013370       ?GetClassPtr@@YAPAVCShotgun@@PAV1@@Z 10014370 f i shotgun.obj
 0001:00013430       ?GetClassPtr@@YAPAVCShotgunAmmo@@PAV1@@Z 10014430 f i shotgun.obj
 0001:000134f0       ??0CShotgunAmmo@@QAE@XZ    100144f0 f i shotgun.obj
 0001:00013510       ?Spawn@CShotgunAmmo@@EAEXXZ 10014510 f i shotgun.obj
 0001:00013550       ?Precache@CShotgunAmmo@@EAEXXZ 10014550 f i shotgun.obj
 0001:00013580       ?AddAmmo@CShotgunAmmo@@EAEHPAVCBaseEntity@@@Z 10014580 f i shotgun.obj
 0001:000135e0       _weapon_snark              100145e0 f   squeakgrenade.obj
 0001:000135f1       ?Spawn@CSqueak@@UAEXXZ     100145f1 f   squeakgrenade.obj
 0001:00013678       ?Precache@CSqueak@@UAEXXZ  10014678 f   squeakgrenade.obj
 0001:000136f0       ?GetItemInfo@CSqueak@@UAEHPAUItemInfo@@@Z 100146f0 f   squeakgrenade.obj
 0001:00013789       ?Deploy@CSqueak@@UAEHXZ    10014789 f   squeakgrenade.obj
 0001:00013842       ?Holster@CSqueak@@UAEXH@Z  10014842 f   squeakgrenade.obj
 0001:0001390d       ?PrimaryAttack@CSqueak@@UAEXXZ 1001490d f   squeakgrenade.obj
 0001:00013bf7       ?SecondaryAttack@CSqueak@@UAEXXZ 10014bf7 f   squeakgrenade.obj
 0001:00013c02       ?WeaponIdle@CSqueak@@UAEXXZ 10014c02 f   squeakgrenade.obj
 0001:00013d70       ?GetClassPtr@@YAPAVCSqueak@@PAV1@@Z 10014d70 f i squeakgrenade.obj
 0001:00013e30       _weapon_tripmine           10014e30 f   tripmine.obj
 0001:00013e41       ?Spawn@CTripmine@@UAEXXZ   10014e41 f   tripmine.obj
 0001:00013f20       ?Precache@CTripmine@@UAEXXZ 10014f20 f   tripmine.obj
 0001:00013f6e       ?GetItemInfo@CTripmine@@UAEHPAUItemInfo@@@Z 10014f6e f   tripmine.obj
 0001:00014007       ?Deploy@CTripmine@@UAEHXZ  10015007 f   tripmine.obj
 0001:0001402f       ?Holster@CTripmine@@UAEXH@Z 1001502f f   tripmine.obj
 0001:000140f8       ?PrimaryAttack@CTripmine@@UAEXXZ 100150f8 f   tripmine.obj
 0001:000143b5       ?WeaponIdle@CTripmine@@UAEXXZ 100153b5 f   tripmine.obj
 0001:000144d0       ?GetClassPtr@@YAPAVCTripmine@@PAV1@@Z 100154d0 f i tripmine.obj
 0001:00014590       ??0ScrollBar2@vgui@@QAE@ABV01@@Z 10015590 f i vgui_scrollbar2.obj
 0001:00014620       ??0Slider2@vgui@@QAE@ABV01@@Z 10015620 f i vgui_scrollbar2.obj
 0001:00014750       ??4Slider2@vgui@@QAEAAV01@ABV01@@Z 10015750 f i vgui_scrollbar2.obj
 0001:000148d0       ??0IntChangeSignal@vgui@@QAE@XZ 100158d0 f i vgui_scrollbar2.obj
 0001:000148f0       ??0IntChangeSignal@vgui@@QAE@ABV01@@Z 100158f0 f i vgui_scrollbar2.obj
 0001:00014910       ??4IntChangeSignal@vgui@@QAEAAV01@ABV01@@Z 10015910 f i vgui_scrollbar2.obj
 0001:00014910       ??4InputStream@vgui@@QAEAAV01@ABV01@@Z 10015910 f i vgui_scrollbar2.obj
 0001:00014910       ??4Layout@vgui@@QAEAAV01@ABV01@@Z 10015910 f i vgui_scrollbar2.obj
 0001:00014910       ??4ActionSignal@vgui@@QAEAAV01@ABV01@@Z 10015910 f i vgui_scrollbar2.obj
 0001:00014910       ??4InputSignal@vgui@@QAEAAV01@ABV01@@Z 10015910 f i vgui_scrollbar2.obj
 0001:00014920       ??0ActionSignal@vgui@@QAE@XZ 10015920 f i vgui_scrollbar2.obj
 0001:00014940       ??0ActionSignal@vgui@@QAE@ABV01@@Z 10015940 f i vgui_scrollbar2.obj
 0001:00014960       ??0ScrollBar2@vgui@@QAE@HHHH_N@Z 10015960 f   vgui_scrollbar2.obj
 0001:00014c7f       ?setSize@ScrollBar2@vgui@@UAEXHH@Z 10015c7f f   vgui_scrollbar2.obj
 0001:00014df8       ?performLayout@ScrollBar2@vgui@@MAEXXZ 10015df8 f   vgui_scrollbar2.obj
 0001:00014e03       ?setValue@ScrollBar2@vgui@@UAEXH@Z 10015e03 f   vgui_scrollbar2.obj
 0001:00014e2e       ?getValue@ScrollBar2@vgui@@UAEHXZ 10015e2e f   vgui_scrollbar2.obj
 0001:00014e53       ?addIntChangeSignal@ScrollBar2@vgui@@UAEXPAVIntChangeSignal@2@@Z 10015e53 f   vgui_scrollbar2.obj
 0001:00014ef0       ?setRange@ScrollBar2@vgui@@UAEXHH@Z 10015ef0 f   vgui_scrollbar2.obj
 0001:00014f1f       ?fireIntChangeSignal@ScrollBar2@vgui@@UAEXXZ 10015f1f f   vgui_scrollbar2.obj
 0001:00014f91       ?isVertical@ScrollBar2@vgui@@UAE_NXZ 10015f91 f   vgui_scrollbar2.obj
 0001:00014fb6       ?hasFullRange@ScrollBar2@vgui@@UAE_NXZ 10015fb6 f   vgui_scrollbar2.obj
 0001:00014fdb       ?setButton@ScrollBar2@vgui@@UAEXPAVButton@2@H@Z 10015fdb f   vgui_scrollbar2.obj
 0001:000150d2       ?getButton@ScrollBar2@vgui@@UAEPAVButton@2@H@Z 100160d2 f   vgui_scrollbar2.obj
 0001:000150ec       ?setSlider@ScrollBar2@vgui@@UAEXPAVSlider2@2@@Z 100160ec f   vgui_scrollbar2.obj
 0001:000151c7       ?getSlider@ScrollBar2@vgui@@UAEPAVSlider2@2@XZ 100161c7 f   vgui_scrollbar2.obj
 0001:000151db       ?doButtonPressed@ScrollBar2@vgui@@UAEXH@Z 100161db f   vgui_scrollbar2.obj
 0001:0001526c       ?setButtonPressedScrollValue@ScrollBar2@vgui@@UAEXH@Z 1001626c f   vgui_scrollbar2.obj
 0001:00015285       ?setRangeWindow@ScrollBar2@vgui@@UAEXH@Z 10016285 f   vgui_scrollbar2.obj
 0001:000152b0       ?setRangeWindowEnabled@ScrollBar2@vgui@@UAEX_N@Z 100162b0 f   vgui_scrollbar2.obj
 0001:000152db       ?validate@ScrollBar2@vgui@@UAEXXZ 100162db f   vgui_scrollbar2.obj
 0001:00015420       ??0ScrollBarButton@@QAE@PBDHHHH@Z 10016420 f i vgui_scrollbar2.obj
 0001:000154f0       ?paintBackground@ScrollBarButton@@UAEXXZ 100164f0 f i vgui_scrollbar2.obj
 0001:00015550       ??0FooDefaultScrollBarIntChangeSignal@?%C:\Users\YaLTeR\Documents\BunnyMod Pro\game_shared\vgui_scrollbar2.cpp17164584@@QAE@PAVScrollBar2@vgui@@@Z 10016550 f i vgui_scrollbar2.obj
 0001:00015580       ?intChanged@FooDefaultScrollBarIntChangeSignal@?%C:\Users\YaLTeR\Documents\BunnyMod Pro\game_shared\vgui_scrollbar2.cpp17164584@@UAEXHPAVPanel@vgui@@@Z 10016580 f i vgui_scrollbar2.obj
 0001:000155b0       ??0FooDefaultButtonSignal@?%C:\Users\YaLTeR\Documents\BunnyMod Pro\game_shared\vgui_scrollbar2.cpp17164584@@QAE@PAVScrollBar2@vgui@@H@Z 100165b0 f i vgui_scrollbar2.obj
 0001:000155f0       ?actionPerformed@FooDefaultButtonSignal@?%C:\Users\YaLTeR\Documents\BunnyMod Pro\game_shared\vgui_scrollbar2.cpp17164584@@UAEXPAVPanel@vgui@@@Z 100165f0 f i vgui_scrollbar2.obj
 0001:00015620       ??0Cursor@vgui@@QAE@ABV01@@Z 10016620 f i vgui_slider2.obj
 0001:00015670       ??4Cursor@vgui@@QAEAAV01@ABV01@@Z 10016670 f i vgui_slider2.obj
 0001:000156d0       ??0App@vgui@@QAE@ABV01@@Z  100166d0 f i vgui_slider2.obj
 0001:000158e0       ??4App@vgui@@QAEAAV01@ABV01@@Z 100168e0 f i vgui_slider2.obj
 0001:00015bb0       ??0Slider2@vgui@@QAE@HHHH_N@Z 10016bb0 f   vgui_slider2.obj
 0001:00015cc4       ?setSize@Slider2@vgui@@UAEXHH@Z 10016cc4 f   vgui_slider2.obj
 0001:00015cef       ?isVertical@Slider2@vgui@@UAE_NXZ 10016cef f   vgui_slider2.obj
 0001:00015d03       ?setValue@Slider2@vgui@@UAEXH@Z 10016d03 f   vgui_slider2.obj
 0001:00015d88       ?getValue@Slider2@vgui@@UAEHXZ 10016d88 f   vgui_slider2.obj
 0001:00015d9c       ?recomputeNobPosFromValue@Slider2@vgui@@EAEXXZ 10016d9c f   vgui_slider2.obj
 0001:00015f3d       ?recomputeValueFromNobPos@Slider2@vgui@@EAEXXZ 10016f3d f   vgui_slider2.obj
 0001:0001608b       ?hasFullRange@Slider2@vgui@@UAE_NXZ 1001708b f   vgui_slider2.obj
 0001:00016164       ?addIntChangeSignal@Slider2@vgui@@UAEXPAVIntChangeSignal@2@@Z 10017164 f   vgui_slider2.obj
 0001:00016183       ?fireIntChangeSignal@Slider2@vgui@@MAEXXZ 10017183 f   vgui_slider2.obj
 0001:000161e9       ?paintBackground@Slider2@vgui@@MAEXXZ 100171e9 f   vgui_slider2.obj
 0001:0001641b       ?setRange@Slider2@vgui@@UAEXHH@Z 1001741b f   vgui_slider2.obj
 0001:0001645c       ?getRange@Slider2@vgui@@UAEXAAH0@Z 1001745c f   vgui_slider2.obj
 0001:00016485       ?privateCursorMoved@Slider2@vgui@@UAEXHHPAVPanel@2@@Z 10017485 f   vgui_slider2.obj
 0001:00016693       ?privateMousePressed@Slider2@vgui@@UAEXW4MouseCode@2@PAVPanel@2@@Z 10017693 f   vgui_slider2.obj
 0001:000167f8       ?privateMouseReleased@Slider2@vgui@@UAEXW4MouseCode@2@PAVPanel@2@@Z 100177f8 f   vgui_slider2.obj
 0001:0001682f       ?getNobPos@Slider2@vgui@@UAEXAAH0@Z 1001782f f   vgui_slider2.obj
 0001:00016858       ?setRangeWindow@Slider2@vgui@@UAEXH@Z 10017858 f   vgui_slider2.obj
 0001:00016871       ?setRangeWindowEnabled@Slider2@vgui@@UAEX_N@Z 10017871 f   vgui_slider2.obj
 0001:0001688a       ?setButtonOffset@Slider2@vgui@@UAEXH@Z 1001788a f   vgui_slider2.obj
 0001:000168b0       ??0FooDefaultSliderSignal@?%C:\Users\YaLTeR\Documents\BunnyMod Pro\game_shared\vgui_slider2.cpp770010870@@QAE@PAVSlider2@vgui@@@Z 100178b0 f i vgui_slider2.obj
 0001:000168e0       ?cursorMoved@FooDefaultSliderSignal@?%C:\Users\YaLTeR\Documents\BunnyMod Pro\game_shared\vgui_slider2.cpp770010870@@UAEXHHPAVPanel@vgui@@@Z 100178e0 f i vgui_slider2.obj
 0001:00016910       ?mousePressed@FooDefaultSliderSignal@?%C:\Users\YaLTeR\Documents\BunnyMod Pro\game_shared\vgui_slider2.cpp770010870@@UAEXW4MouseCode@vgui@@PAVPanel@4@@Z 10017910 f i vgui_slider2.obj
 0001:00016940       ?mouseReleased@FooDefaultSliderSignal@?%C:\Users\YaLTeR\Documents\BunnyMod Pro\game_shared\vgui_slider2.cpp770010870@@UAEXW4MouseCode@vgui@@PAVPanel@4@@Z 10017940 f i vgui_slider2.obj
 0001:00016970       ?HashPlayerID@@YAEQBD@Z    10017970 f   voice_banmgr.obj
 0001:000169a9       ??0CVoiceBanMgr@@QAE@XZ    100179a9 f   voice_banmgr.obj
 0001:000169bf       ??1CVoiceBanMgr@@QAE@XZ    100179bf f   voice_banmgr.obj
 0001:000169d2       ?Init@CVoiceBanMgr@@QAE_NPBD@Z 100179d2 f   voice_banmgr.obj
 0001:00016b0c       ?Term@CVoiceBanMgr@@QAEXXZ 10017b0c f   voice_banmgr.obj
 0001:00016b82       ?SaveState@CVoiceBanMgr@@QAEXPBD@Z 10017b82 f   voice_banmgr.obj
 0001:00016c9e       ?GetPlayerBan@CVoiceBanMgr@@QAE_NQBD@Z 10017c9e f   voice_banmgr.obj
 0001:00016cbd       ?SetPlayerBan@CVoiceBanMgr@@QAEXQBD_N@Z 10017cbd f   voice_banmgr.obj
 0001:00016d42       ?ForEachBannedPlayer@CVoiceBanMgr@@QAEXP6AXQAD@Z@Z 10017d42 f   voice_banmgr.obj
 0001:00016da5       ?Clear@CVoiceBanMgr@@IAEXXZ 10017da5 f   voice_banmgr.obj
 0001:00016e03       ?InternalFindPlayerSquelch@CVoiceBanMgr@@IAEPAVBannedPlayer@1@QBD@Z 10017e03 f   voice_banmgr.obj
 0001:00016e6f       ?AddBannedPlayer@CVoiceBanMgr@@IAEPAVBannedPlayer@1@QBD@Z 10017e6f f   voice_banmgr.obj
 0001:00016f00       ??0TextImage@vgui@@QAE@ABV01@@Z 10017f00 f i voice_status.obj
 0001:00016f90       ??4TextImage@vgui@@QAEAAV01@ABV01@@Z 10017f90 f i voice_status.obj
 0001:0001705f       ?GetClientVoiceMgr@@YAPAVCVoiceStatus@@XZ 1001805f f   voice_status.obj
 0001:00017069       ?__MsgFunc_VoiceMask@@YAHPBDHPAX@Z 10018069 f   voice_status.obj
 0001:0001708f       ?__MsgFunc_ReqState@@YAHPBDHPAX@Z 1001808f f   voice_status.obj
 0001:000170b5       ?ForEachBannedPlayer@@YAXQAD@Z 100180b5 f   voice_status.obj
 0001:00017196       ?ShowBannedCallback@@YAXXZ 10018196 f   voice_status.obj
 0001:000171e0       ??0CVoiceStatus@@QAE@XZ    100181e0 f   voice_status.obj
 0001:00017360       ??1CVoiceStatus@@UAE@XZ    10018360 f   voice_status.obj
 0001:000174fd       ?Init@CVoiceStatus@@UAEHPAVIVoiceStatusHelper@@PAPAVPanel@vgui@@@Z 100184fd f   voice_status.obj
 0001:0001787a       ?VidInit@CVoiceStatus@@UAEHXZ 1001887a f   voice_status.obj
 0001:00017d58       ?Frame@CVoiceStatus@@QAEXN@Z 10018d58 f   voice_status.obj
 0001:00017e7e       ?CreateEntities@CVoiceStatus@@QAEXXZ 10018e7e f   voice_status.obj
 0001:00018124       ?UpdateSpeakerStatus@CVoiceStatus@@QAEXHH@Z 10019124 f   voice_status.obj
 0001:000184a6       ?UpdateServerState@CVoiceStatus@@QAEX_N@Z 100194a6 f   voice_status.obj
 0001:0001880a       ?UpdateSpeakerImage@CVoiceStatus@@QAEXPAVLabel@vgui@@H@Z 1001980a f   voice_status.obj
 0001:00018836       ?UpdateBanButton@CVoiceStatus@@QAEXH@Z 10019836 f   voice_status.obj
 0001:00018a09       ?HandleVoiceMaskMsg@CVoiceStatus@@QAEXHPAX@Z 10019a09 f   voice_status.obj
 0001:00018b30       ?HandleReqStateMsg@CVoiceStatus@@QAEXHPAX@Z 10019b30 f   voice_status.obj
 0001:00018b70       ?StartSquelchMode@CVoiceStatus@@QAEXXZ 10019b70 f   voice_status.obj
 0001:00018bad       ?StopSquelchMode@CVoiceStatus@@QAEXXZ 10019bad f   voice_status.obj
 0001:00018bd9       ?IsInSquelchMode@CVoiceStatus@@QAE_NXZ 10019bd9 f   voice_status.obj
 0001:00018bed       ?FindVoiceLabel@CVoiceStatus@@QAEPAVCVoiceLabel@@H@Z 10019bed f   voice_status.obj
 0001:00018c3f       ?GetFreeVoiceLabel@CVoiceStatus@@QAEPAVCVoiceLabel@@XZ 10019c3f f   voice_status.obj
 0001:00018c54       ?RepositionLabels@CVoiceStatus@@QAEXXZ 10019c54 f   voice_status.obj
 0001:00018fc6       ?FreeBitmaps@CVoiceStatus@@QAEXXZ 10019fc6 f   voice_status.obj
 0001:00019196       ?IsPlayerBlocked@CVoiceStatus@@QAE_NH@Z 1001a196 f   voice_status.obj
 0001:000191d0       ?IsPlayerAudible@CVoiceStatus@@QAE_NH@Z 1001a1d0 f   voice_status.obj
 0001:00019202       ?SetPlayerBlockedState@CVoiceStatus@@QAEXH_N@Z 1001a202 f   voice_status.obj
 0001:00019310       ??1CHudBase@@UAE@XZ        1001a310 f i voice_status.obj
 0001:00019330       ?SecondaryAttack@CBasePlayerWeapon@@UAEXXZ 1001a330 f i voice_status.obj
 0001:00019330       ?SetYawSpeed@CBaseMonster@@UAEXXZ 1001a330 f i voice_status.obj
 0001:00019330       ?ItemPreFrame@CBasePlayerItem@@UAEXXZ 1001a330 f i voice_status.obj
 0001:00019330       ?ScheduleChange@CBaseMonster@@UAEXXZ 1001a330 f i voice_status.obj
 0001:00019330       ?StopSneaking@CBaseEntity@@UAEXXZ 1001a330 f i voice_status.obj
 0001:00019330       ?ItemPostFrame@CBasePlayerItem@@UAEXXZ 1001a330 f i voice_status.obj
 0001:00019330       ?Think@CHudBase@@UAEXXZ    1001a330 f i voice_status.obj
 0001:00019330       ?InitHUDData@CHudBase@@UAEXXZ 1001a330 f i voice_status.obj
 0001:00019330       ?PrimaryAttack@CBasePlayerWeapon@@UAEXXZ 1001a330 f i voice_status.obj
 0001:00019330       ?paintBackground@CImageLabel@@UAEXXZ 1001a330 f i voice_status.obj
 0001:00019330       ?DeathSound@CBaseMonster@@UAEXXZ 1001a330 f i voice_status.obj
 0001:00019330       ?AlertSound@CBaseMonster@@UAEXXZ 1001a330 f i voice_status.obj
 0001:00019330       ?PainSound@CBaseMonster@@UAEXXZ 1001a330 f i voice_status.obj
 0001:00019330       ?UpdateOwner@CBaseEntity@@UAEXXZ 1001a330 f i voice_status.obj
 0001:00019330       ?WeaponIdle@CBasePlayerWeapon@@UAEXXZ 1001a330 f i voice_status.obj
 0001:00019330       ?UpdateItemInfo@CBasePlayerItem@@UAEXXZ 1001a330 f i voice_status.obj
 0001:00019330       ?Reset@CHudBase@@UAEXXZ    1001a330 f i voice_status.obj
 0001:00019330       ?CheckAmmo@CBaseMonster@@UAEXXZ 1001a330 f i voice_status.obj
 0001:00019330       ?Spawn@CBaseEntity@@UAEXXZ 1001a330 f i voice_status.obj
 0001:00019330       ?Precache@CBaseEntity@@UAEXXZ 1001a330 f i voice_status.obj
 0001:00019330       ?PrescheduleThink@CBaseMonster@@UAEXXZ 1001a330 f i voice_status.obj
 0001:00019330       ?Reload@CBasePlayerWeapon@@UAEXXZ 1001a330 f i voice_status.obj
 0001:00019330       ?OverrideReset@CBaseEntity@@UAEXXZ 1001a330 f i voice_status.obj
 0001:00019330       ?Activate@CBaseEntity@@UAEXXZ 1001a330 f i voice_status.obj
 0001:00019330       ?StartSneaking@CBaseEntity@@UAEXXZ 1001a330 f i voice_status.obj
 0001:00019330       ?UpdateItemInfo@CBasePlayerWeapon@@UAEXXZ 1001a330 f i voice_status.obj
 0001:00019330       ?IdleSound@CBaseMonster@@UAEXXZ 1001a330 f i voice_status.obj
 0001:00019340       ??_GCHudBase@@UAEPAXI@Z    1001a340 f i voice_status.obj
 0001:00019340       ??_ECHudBase@@UAEPAXI@Z    1001a340 f i voice_status.obj
 0001:00019370       ??0CHudBase@@QAE@XZ        1001a370 f i voice_status.obj
 0001:00019390       ??_GCVoiceStatus@@UAEPAXI@Z 1001a390 f i voice_status.obj
 0001:00019390       ??_ECVoiceStatus@@UAEPAXI@Z 1001a390 f i voice_status.obj
 0001:000193c0       ??0CDefaultInputSignal@vgui@@QAE@XZ 1001a3c0 f i voice_status.obj
 0001:000193e0       ??0cl_entity_s@@QAE@XZ     1001a3e0 f i voice_status.obj
 0001:00019470       ??0entity_state_s@@QAE@XZ  1001a470 f i voice_status.obj
 0001:00019520       ??0position_history_t@@QAE@XZ 1001a520 f i voice_status.obj
 0001:00019550       ??0latchedvars_t@@QAE@XZ   1001a550 f i voice_status.obj
 0001:00019580       ??BCBitVecAccessor@@QAEKXZ 1001a580 f i voice_status.obj
 0001:000195b0       ??4CBitVecAccessor@@QAEXH@Z 1001a5b0 f i voice_status.obj
 0001:00019640       ??0?$CBitVec@$0CA@@@QAE@XZ 1001a640 f i voice_status.obj
 0001:00019680       ??A?$CBitVec@$0CA@@@QAE?AVCBitVecAccessor@@H@Z 1001a680 f i voice_status.obj
 0001:000196b0       ??0CBitVecAccessor@@QAE@PAKH@Z 1001a6b0 f i voice_status.obj
 0001:000196e0       ?GetDWord@?$CBitVec@$0CA@@@QAEKH@Z 1001a6e0 f i voice_status.obj
 0001:00019700       ?SetDWord@?$CBitVec@$0CA@@@QAEXHK@Z 1001a700 f i voice_status.obj
 0001:00019720       ??0Frame@vgui@@QAE@ABV01@@Z 1001a720 f i ammo.obj
 0001:000198d0       ??4Frame@vgui@@QAEAAV01@ABV01@@Z 1001a8d0 f i ammo.obj
 0001:00019a80       ??0TextPanel@vgui@@QAE@ABV01@@Z 1001aa80 f i ammo.obj
 0001:00019ac0       ??4ImagePanel@vgui@@QAEAAV01@ABV01@@Z 1001aac0 f i ammo.obj
 0001:00019ac0       ??4TextPanel@vgui@@QAEAAV01@ABV01@@Z 1001aac0 f i ammo.obj
 0001:00019af0       ??0InputStream@vgui@@QAE@XZ 1001aaf0 f i ammo.obj
 0001:00019b10       ??0InputStream@vgui@@QAE@ABV01@@Z 1001ab10 f i ammo.obj
 0001:00019b30       ??0FileInputStream@vgui@@QAE@ABV01@@Z 1001ab30 f i ammo.obj
 0001:00019b70       ??4BorderLayout@vgui@@QAEAAV01@ABV01@@Z 1001ab70 f i ammo.obj
 0001:00019b70       ??4FileInputStream@vgui@@QAEAAV01@ABV01@@Z 1001ab70 f i ammo.obj
 0001:00019ba0       ??0DesktopIcon@vgui@@QAE@ABV01@@Z 1001aba0 f i ammo.obj
 0001:00019c00       ??4DesktopIcon@vgui@@QAEAAV01@ABV01@@Z 1001ac00 f i ammo.obj
 0001:00019c60       ??0MiniApp@vgui@@QAE@ABV01@@Z 1001ac60 f i ammo.obj
 0001:00019c90       ??4MiniApp@vgui@@QAEAAV01@ABV01@@Z 1001ac90 f i ammo.obj
 0001:00019cb0       ??4String@vgui@@QAEAAV01@ABV01@@Z 1001acb0 f i ammo.obj
 0001:00019cd0       ??0ScrollPanel@vgui@@QAE@ABV01@@Z 1001acd0 f i ammo.obj
 0001:00019d60       ??4ScrollPanel@vgui@@QAEAAV01@ABV01@@Z 1001ad60 f i ammo.obj
 0001:00019e00       ??0ScrollBar@vgui@@QAE@ABV01@@Z 1001ae00 f i ammo.obj
 0001:00019e90       ??4ScrollBar2@vgui@@QAEAAV01@ABV01@@Z 1001ae90 f i ammo.obj
 0001:00019e90       ??4ScrollBar@vgui@@QAEAAV01@ABV01@@Z 1001ae90 f i ammo.obj
 0001:00019f30       ??0Slider@vgui@@QAE@ABV01@@Z 1001af30 f i ammo.obj
 0001:0001a060       ??4Slider@vgui@@QAEAAV01@ABV01@@Z 1001b060 f i ammo.obj
 0001:0001a1e0       ??0Font@vgui@@QAE@ABV01@@Z 1001b1e0 f i ammo.obj
 0001:0001a220       ??4Font@vgui@@QAEAAV01@ABV01@@Z 1001b220 f i ammo.obj
 0001:0001a260       ?LoadAllWeaponSprites@WeaponsResource@@QAEXXZ 1001b260 f   ammo.obj
 0001:0001a2b4       ?CountAmmo@WeaponsResource@@QAEHH@Z 1001b2b4 f   ammo.obj
 0001:0001a2d8       ?HasAmmo@WeaponsResource@@QAEHPAUWEAPON@@@Z 1001b2d8 f   ammo.obj
 0001:0001a36b       ?LoadWeaponSprites@WeaponsResource@@QAEXPAUWEAPON@@@Z 1001b36b f   ammo.obj
 0001:0001aa10       ?GetFirstPos@WeaponsResource@@QAEPAUWEAPON@@H@Z 1001ba10 f   ammo.obj
 0001:0001aa9a       ?GetNextActivePos@WeaponsResource@@QAEPAUWEAPON@@HH@Z 1001ba9a f   ammo.obj
 0001:0001aafc       ?__MsgFunc_CurWeapon@@YAHPBDHPAX@Z 1001bafc f   ammo.obj
 0001:0001ab17       ?__MsgFunc_WeaponList@@YAHPBDHPAX@Z 1001bb17 f   ammo.obj
 0001:0001ab32       ?__MsgFunc_AmmoX@@YAHPBDHPAX@Z 1001bb32 f   ammo.obj
 0001:0001ab4d       ?__MsgFunc_AmmoPickup@@YAHPBDHPAX@Z 1001bb4d f   ammo.obj
 0001:0001ab68       ?__MsgFunc_WeapPickup@@YAHPBDHPAX@Z 1001bb68 f   ammo.obj
 0001:0001ab83       ?__MsgFunc_HideWeapon@@YAHPBDHPAX@Z 1001bb83 f   ammo.obj
 0001:0001ab9e       ?__MsgFunc_ItemPickup@@YAHPBDHPAX@Z 1001bb9e f   ammo.obj
 0001:0001abb9       ?__CmdFunc_Slot1@@YAXXZ    1001bbb9 f   ammo.obj
 0001:0001abcb       ?__CmdFunc_Slot2@@YAXXZ    1001bbcb f   ammo.obj
 0001:0001abdd       ?__CmdFunc_Slot3@@YAXXZ    1001bbdd f   ammo.obj
 0001:0001abef       ?__CmdFunc_Slot4@@YAXXZ    1001bbef f   ammo.obj
 0001:0001ac01       ?__CmdFunc_Slot5@@YAXXZ    1001bc01 f   ammo.obj
 0001:0001ac13       ?__CmdFunc_Slot6@@YAXXZ    1001bc13 f   ammo.obj
 0001:0001ac25       ?__CmdFunc_Slot7@@YAXXZ    1001bc25 f   ammo.obj
 0001:0001ac37       ?__CmdFunc_Slot8@@YAXXZ    1001bc37 f   ammo.obj
 0001:0001ac49       ?__CmdFunc_Slot9@@YAXXZ    1001bc49 f   ammo.obj
 0001:0001ac5b       ?__CmdFunc_Slot10@@YAXXZ   1001bc5b f   ammo.obj
 0001:0001ac6d       ?__CmdFunc_Close@@YAXXZ    1001bc6d f   ammo.obj
 0001:0001ac7f       ?__CmdFunc_NextWeapon@@YAXXZ 1001bc7f f   ammo.obj
 0001:0001ac91       ?__CmdFunc_PrevWeapon@@YAXXZ 1001bc91 f   ammo.obj
 0001:0001aca3       ?Init@CHudAmmo@@UAEHXZ     1001bca3 f   ammo.obj
 0001:0001ae93       ?Reset@CHudAmmo@@UAEXXZ    1001be93 f   ammo.obj
 0001:0001aedf       ?VidInit@CHudAmmo@@UAEHXZ  1001bedf f   ammo.obj
 0001:0001b045       ?Think@CHudAmmo@@UAEXXZ    1001c045 f   ammo.obj
 0001:0001b15b       ?GetAmmoPicFromWeapon@WeaponsResource@@QAEPAHHAAUrect_s@@@Z 1001c15b f   ammo.obj
 0001:0001b23f       ?SelectSlot@WeaponsResource@@QAEXHHH@Z 1001c23f f   ammo.obj
 0001:0001b423       ?MsgFunc_AmmoX@CHudAmmo@@QAEHPBDHPAX@Z 1001c423 f   ammo.obj
 0001:0001b472       ?MsgFunc_AmmoPickup@CHudAmmo@@QAEHPBDHPAX@Z 1001c472 f   ammo.obj
 0001:0001b4c3       ?MsgFunc_WeapPickup@CHudAmmo@@QAEHPBDHPAX@Z 1001c4c3 f   ammo.obj
 0001:0001b501       ?MsgFunc_ItemPickup@CHudAmmo@@QAEHPBDHPAX@Z 1001c501 f   ammo.obj
 0001:0001b53f       ?MsgFunc_HideWeapon@CHudAmmo@@QAEHPBDHPAX@Z 1001c53f f   ammo.obj
 0001:0001b626       ?MsgFunc_CurWeapon@CHudAmmo@@QAEHPBDHPAX@Z 1001c626 f   ammo.obj
 0001:0001b8de       ?MsgFunc_WeaponList@CHudAmmo@@QAEHPBDHPAX@Z 1001c8de f   ammo.obj
 0001:0001b9bc       ?SlotInput@CHudAmmo@@QAEXH@Z 1001c9bc f   ammo.obj
 0001:0001b9fe       ?UserCmd_Slot1@CHudAmmo@@QAAXXZ 1001c9fe f   ammo.obj
 0001:0001ba0d       ?UserCmd_Slot2@CHudAmmo@@QAAXXZ 1001ca0d f   ammo.obj
 0001:0001ba1c       ?UserCmd_Slot3@CHudAmmo@@QAAXXZ 1001ca1c f   ammo.obj
 0001:0001ba2b       ?UserCmd_Slot4@CHudAmmo@@QAAXXZ 1001ca2b f   ammo.obj
 0001:0001ba3a       ?UserCmd_Slot5@CHudAmmo@@QAAXXZ 1001ca3a f   ammo.obj
 0001:0001ba49       ?UserCmd_Slot6@CHudAmmo@@QAAXXZ 1001ca49 f   ammo.obj
 0001:0001ba58       ?UserCmd_Slot7@CHudAmmo@@QAAXXZ 1001ca58 f   ammo.obj
 0001:0001ba67       ?UserCmd_Slot8@CHudAmmo@@QAAXXZ 1001ca67 f   ammo.obj
 0001:0001ba76       ?UserCmd_Slot9@CHudAmmo@@QAAXXZ 1001ca76 f   ammo.obj
 0001:0001ba85       ?UserCmd_Slot10@CHudAmmo@@QAAXXZ 1001ca85 f   ammo.obj
 0001:0001ba94       ?UserCmd_Close@CHudAmmo@@QAAXXZ 1001ca94 f   ammo.obj
 0001:0001bad8       ?UserCmd_NextWeapon@CHudAmmo@@QAAXXZ 1001cad8 f   ammo.obj
 0001:0001bbe1       ?UserCmd_PrevWeapon@CHudAmmo@@QAAXXZ 1001cbe1 f   ammo.obj
 0001:0001bcea       ?Draw@CHudAmmo@@UAEHM@Z    1001ccea f   ammo.obj
 0001:0001c334       ?DrawBar@@YAHHHHHM@Z       1001d334 f   ammo.obj
 0001:0001c430       ?DrawAmmoBar@@YAXPAUWEAPON@@HHHH@Z 1001d430 f   ammo.obj
 0001:0001c50e       ?DrawWList@CHudAmmo@@QAEHM@Z 1001d50e f   ammo.obj
 0001:0001cb58       ?GetSpriteList@@YAPAUclient_sprite_s@@PAU1@PBDHH@Z 1001db58 f   ammo.obj
 0001:0001cbc0       ?CVAR_CREATE@@YAPAUcvar_s@@PBD0H@Z 1001dbc0 f i ammo.obj
 0001:0001cbe0       ?Init@WeaponsResource@@QAEXXZ 1001dbe0 f i ammo.obj
 0001:0001cc10       ?Reset@WeaponsResource@@QAEXXZ 1001dc10 f i ammo.obj
 0001:0001cc60       ?Init@HistoryResource@@QAEXXZ 1001dc60 f i ammo.obj
 0001:0001cc80       ?Reset@HistoryResource@@QAEXXZ 1001dc80 f i ammo.obj
 0001:0001cca0       ?GetSprite@CHud@@QAEHH@Z   1001dca0 f i ammo.obj
 0001:0001ccd0       ?GetSpriteRect@CHud@@QAEAAUrect_s@@H@Z 1001dcd0 f i ammo.obj
 0001:0001ccf0       ?PlaySound@@YAXPADM@Z      1001dcf0 f i ammo.obj
 0001:0001cd10       ?GetWeapon@WeaponsResource@@QAEPAUWEAPON@@H@Z 1001dd10 f i ammo.obj
 0001:0001cd30       ?PickupWeapon@WeaponsResource@@QAEXPAUWEAPON@@@Z 1001dd30 f i ammo.obj
 0001:0001cd70       ?DropWeapon@WeaponsResource@@QAEXPAUWEAPON@@@Z 1001dd70 f i ammo.obj
 0001:0001cdb0       ?SetAmmo@WeaponsResource@@QAEXHH@Z 1001ddb0 f i ammo.obj
 0001:0001cdd0       ?AddWeapon@WeaponsResource@@QAEXPAUWEAPON@@@Z 1001ddd0 f i ammo.obj
 0001:0001ce20       ?GetWeaponSlot@WeaponsResource@@QAEPAUWEAPON@@HH@Z 1001de20 f i ammo.obj
 0001:0001ce50       ?GetHudColor@@YAXAAH00@Z   1001de50 f i ammo.obj
 0001:0001ced0       ?UnpackRGB@@YAXAAH00K@Z    1001ded0 f i ammo.obj
 0001:0001cf10       ?__MsgFunc_SecAmmoVal@@YAHPBDHPAX@Z 1001df10 f   ammo_secondary.obj
 0001:0001cf2b       ?__MsgFunc_SecAmmoIcon@@YAHPBDHPAX@Z 1001df2b f   ammo_secondary.obj
 0001:0001cf46       ?Init@CHudAmmoSecondary@@UAEHXZ 1001df46 f   ammo_secondary.obj
 0001:0001cfc9       ?Reset@CHudAmmoSecondary@@UAEXXZ 1001dfc9 f   ammo_secondary.obj
 0001:0001cfde       ?VidInit@CHudAmmoSecondary@@UAEHXZ 1001dfde f   ammo_secondary.obj
 0001:0001cfee       ?Draw@CHudAmmoSecondary@@UAEHM@Z 1001dfee f   ammo_secondary.obj
 0001:0001d2bf       ?MsgFunc_SecAmmoIcon@CHudAmmoSecondary@@QAEHPBDHPAX@Z 1001e2bf f   ammo_secondary.obj
 0001:0001d2f7       ?MsgFunc_SecAmmoVal@CHudAmmoSecondary@@QAEHPBDHPAX@Z 1001e2f7 f   ammo_secondary.obj
 0001:0001d3d0       ?AddToHistory@HistoryResource@@QAEXHHH@Z 1001e3d0 f   ammohistory.obj
 0001:0001d49e       ?AddToHistory@HistoryResource@@QAEXHPBDH@Z 1001e49e f   ammohistory.obj
 0001:0001d57f       ?CheckClearHistory@HistoryResource@@QAEXXZ 1001e57f f   ammohistory.obj
 0001:0001d5c4       ?DrawAmmoHistory@HistoryResource@@QAEHM@Z 1001e5c4 f   ammohistory.obj
 0001:0001da80       ?__MsgFunc_Battery@@YAHPBDHPAX@Z 1001ea80 f   battery.obj
 0001:0001da9b       ?Init@CHudBattery@@UAEHXZ  1001ea9b f   battery.obj
 0001:0001daea       ?VidInit@CHudBattery@@UAEHXZ 1001eaea f   battery.obj
 0001:0001db7e       ?MsgFunc_Battery@CHudBattery@@QAEHPBDHPAX@Z 1001eb7e f   battery.obj
 0001:0001dbf7       ?Draw@CHudBattery@@UAEHM@Z 1001ebf7 f   battery.obj
 0001:0001e11f       _HUD_GetHullBounds         1001f11f f   cdll_int.obj
 0001:0001e1f9       _HUD_ConnectionlessPacket  1001f1f9 f   cdll_int.obj
 0001:0001e214       _HUD_PlayerMoveInit        1001f214 f   cdll_int.obj
 0001:0001e225       _HUD_PlayerMoveTexture     1001f225 f   cdll_int.obj
 0001:0001e236       _HUD_PlayerMove            1001f236 f   cdll_int.obj
 0001:0001e264       _Initialize                1001f264 f   cdll_int.obj
 0001:0001e2a6       _HUD_VidInit               1001f2a6 f   cdll_int.obj
 0001:0001e2bf       _HUD_Init                  1001f2bf f   cdll_int.obj
 0001:0001e2d8       _HUD_Redraw                1001f2d8 f   cdll_int.obj
 0001:0001e2f4       _HUD_UpdateClientData      1001f2f4 f   cdll_int.obj
 0001:0001e310       _HUD_Reset                 1001f310 f   cdll_int.obj
 0001:0001e31f       _HUD_Frame                 1001f31f f   cdll_int.obj
 0001:0001e348       _HUD_VoiceStatus           1001f348 f   cdll_int.obj
 0001:0001e361       _HUD_DirectorMessage       1001f361 f   cdll_int.obj
 0001:0001e380       ??0CHud@@QAE@XZ            1001f380 f i cdll_int.obj
 0001:0001e500       ??0CHudAmmo@@QAE@XZ        1001f500 f i cdll_int.obj
 0001:0001e520       ??0CHudHealth@@QAE@XZ      1001f520 f i cdll_int.obj
 0001:0001e540       ??0CHudSpectator@@QAE@XZ   1001f540 f i cdll_int.obj
 0001:0001e5e0       ??1CHudBattery@@UAE@XZ     1001f5e0 f i cdll_int.obj
 0001:0001e5e0       ??1CHudMessage@@UAE@XZ     1001f5e0 f i cdll_int.obj
 0001:0001e5e0       ??1CHudSayText@@UAE@XZ     1001f5e0 f i cdll_int.obj
 0001:0001e5e0       ??1CHudAmmo@@UAE@XZ        1001f5e0 f i cdll_int.obj
 0001:0001e5e0       ??1CHudDeathNotice@@UAE@XZ 1001f5e0 f i cdll_int.obj
 0001:0001e5e0       ??1CHudAmmoSecondary@@UAE@XZ 1001f5e0 f i cdll_int.obj
 0001:0001e5e0       ??1CHudStatusIcons@@UAE@XZ 1001f5e0 f i cdll_int.obj
 0001:0001e5e0       ??1CHudGeiger@@UAE@XZ      1001f5e0 f i cdll_int.obj
 0001:0001e5e0       ??1CHudTextMessage@@UAE@XZ 1001f5e0 f i cdll_int.obj
 0001:0001e5e0       ??1CHudHealth@@UAE@XZ      1001f5e0 f i cdll_int.obj
 0001:0001e5e0       ??1CHudFlashlight@@UAE@XZ  1001f5e0 f i cdll_int.obj
 0001:0001e5e0       ??1CHudStatusBar@@UAE@XZ   1001f5e0 f i cdll_int.obj
 0001:0001e5e0       ??1CHudMenu@@UAE@XZ        1001f5e0 f i cdll_int.obj
 0001:0001e5e0       ??1CHudSpectator@@UAE@XZ   1001f5e0 f i cdll_int.obj
 0001:0001e5e0       ??1CHudCustom@@UAE@XZ      1001f5e0 f i cdll_int.obj
 0001:0001e5e0       ??1CHudTrain@@UAE@XZ       1001f5e0 f i cdll_int.obj
 0001:0001e600       ??0CHudGeiger@@QAE@XZ      1001f600 f i cdll_int.obj
 0001:0001e620       ??0CHudBattery@@QAE@XZ     1001f620 f i cdll_int.obj
 0001:0001e640       ??0CHudTrain@@QAE@XZ       1001f640 f i cdll_int.obj
 0001:0001e660       ??0CHudFlashlight@@QAE@XZ  1001f660 f i cdll_int.obj
 0001:0001e680       ??0CHudMessage@@QAE@XZ     1001f680 f i cdll_int.obj
 0001:0001e6a0       ??0CHudStatusBar@@QAE@XZ   1001f6a0 f i cdll_int.obj
 0001:0001e6c0       ??0CHudDeathNotice@@QAE@XZ 1001f6c0 f i cdll_int.obj
 0001:0001e6e0       ??0CHudSayText@@QAE@XZ     1001f6e0 f i cdll_int.obj
 0001:0001e700       ??0CHudMenu@@QAE@XZ        1001f700 f i cdll_int.obj
 0001:0001e720       ??0CHudAmmoSecondary@@QAE@XZ 1001f720 f i cdll_int.obj
 0001:0001e740       ??0CHudTextMessage@@QAE@XZ 1001f740 f i cdll_int.obj
 0001:0001e760       ??0CHudStatusIcons@@QAE@XZ 1001f760 f i cdll_int.obj
 0001:0001e780       ??0CHudCustom@@QAE@XZ      1001f780 f i cdll_int.obj
 0001:0001e7a0       ??0overviewInfo_s@@QAE@XZ  1001f7a0 f i cdll_int.obj
 0001:0001e7c0       ??_GCHudAmmo@@UAEPAXI@Z    1001f7c0 f i cdll_int.obj
 0001:0001e7c0       ??_GCHudBattery@@UAEPAXI@Z 1001f7c0 f i cdll_int.obj
 0001:0001e7c0       ??_ECHudGeiger@@UAEPAXI@Z  1001f7c0 f i cdll_int.obj
 0001:0001e7c0       ??_ECHudBattery@@UAEPAXI@Z 1001f7c0 f i cdll_int.obj
 0001:0001e7c0       ??_GCHudStatusBar@@UAEPAXI@Z 1001f7c0 f i cdll_int.obj
 0001:0001e7c0       ??_ECHudFlashlight@@UAEPAXI@Z 1001f7c0 f i cdll_int.obj
 0001:0001e7c0       ??_GCHudSpectator@@UAEPAXI@Z 1001f7c0 f i cdll_int.obj
 0001:0001e7c0       ??_GCHudCustom@@UAEPAXI@Z  1001f7c0 f i cdll_int.obj
 0001:0001e7c0       ??_GCHudGeiger@@UAEPAXI@Z  1001f7c0 f i cdll_int.obj
 0001:0001e7c0       ??_ECHudCustom@@UAEPAXI@Z  1001f7c0 f i cdll_int.obj
 0001:0001e7c0       ??_ECHudSpectator@@UAEPAXI@Z 1001f7c0 f i cdll_int.obj
 0001:0001e7c0       ??_ECHudTrain@@UAEPAXI@Z   1001f7c0 f i cdll_int.obj
 0001:0001e7c0       ??_ECHudTextMessage@@UAEPAXI@Z 1001f7c0 f i cdll_int.obj
 0001:0001e7c0       ??_ECHudAmmo@@UAEPAXI@Z    1001f7c0 f i cdll_int.obj
 0001:0001e7c0       ??_GCHudMessage@@UAEPAXI@Z 1001f7c0 f i cdll_int.obj
 0001:0001e7c0       ??_ECHudAmmoSecondary@@UAEPAXI@Z 1001f7c0 f i cdll_int.obj
 0001:0001e7c0       ??_ECHudStatusIcons@@UAEPAXI@Z 1001f7c0 f i cdll_int.obj
 0001:0001e7c0       ??_ECHudDeathNotice@@UAEPAXI@Z 1001f7c0 f i cdll_int.obj
 0001:0001e7c0       ??_GCHudStatusIcons@@UAEPAXI@Z 1001f7c0 f i cdll_int.obj
 0001:0001e7c0       ??_GCHudHealth@@UAEPAXI@Z  1001f7c0 f i cdll_int.obj
 0001:0001e7c0       ??_GCHudSayText@@UAEPAXI@Z 1001f7c0 f i cdll_int.obj
 0001:0001e7c0       ??_ECHudMessage@@UAEPAXI@Z 1001f7c0 f i cdll_int.obj
 0001:0001e7c0       ??_GCHudAmmoSecondary@@UAEPAXI@Z 1001f7c0 f i cdll_int.obj
 0001:0001e7c0       ??_ECHudSayText@@UAEPAXI@Z 1001f7c0 f i cdll_int.obj
 0001:0001e7c0       ??_GCHudTrain@@UAEPAXI@Z   1001f7c0 f i cdll_int.obj
 0001:0001e7c0       ??_GCHudMenu@@UAEPAXI@Z    1001f7c0 f i cdll_int.obj
 0001:0001e7c0       ??_GCHudDeathNotice@@UAEPAXI@Z 1001f7c0 f i cdll_int.obj
 0001:0001e7c0       ??_ECHudMenu@@UAEPAXI@Z    1001f7c0 f i cdll_int.obj
 0001:0001e7c0       ??_GCHudTextMessage@@UAEPAXI@Z 1001f7c0 f i cdll_int.obj
 0001:0001e7c0       ??_ECHudHealth@@UAEPAXI@Z  1001f7c0 f i cdll_int.obj
 0001:0001e7c0       ??_ECHudStatusBar@@UAEPAXI@Z 1001f7c0 f i cdll_int.obj
 0001:0001e7c0       ??_GCHudFlashlight@@UAEPAXI@Z 1001f7c0 f i cdll_int.obj
 0001:0001e7f0       ?COM_Log@@YAXPAD0ZZ        1001f7f0 f   com_weapons.obj
 0001:0001e892       ?HUD_SendWeaponAnim@@YAXHHH@Z 1001f892 f   com_weapons.obj
 0001:0001e8c1       ?HUD_GetWeaponAnim@@YAHXZ  1001f8c1 f   com_weapons.obj
 0001:0001e8cb       ?HUD_PlaySound@@YAXPADM@Z  1001f8cb f   com_weapons.obj
 0001:0001e8fe       ?HUD_PlaybackEvent@@YAXHPBUedict_s@@GMPAM1MMHHHH@Z 1001f8fe f   com_weapons.obj
 0001:0001e999       ?HUD_SetMaxSpeed@@YAXPBUedict_s@@M@Z 1001f999 f   com_weapons.obj
 0001:0001e99e       ?UTIL_WeaponTimeBase@@YAMXZ 1001f99e f   com_weapons.obj
 0001:0001e9a9       ?U_Random@@YAIXZ           1001f9a9 f   com_weapons.obj
 0001:0001e9f4       ?U_Srand@@YAXI@Z           1001f9f4 f   com_weapons.obj
 0001:0001ea0e       ?UTIL_SharedRandomLong@@YAHIHH@Z 1001fa0e f   com_weapons.obj
 0001:0001ea5e       ?UTIL_SharedRandomFloat@@YAMIMM@Z 1001fa5e f   com_weapons.obj
 0001:0001eacc       ?stub_PrecacheModel@@YAHPAD@Z 1001facc f   com_weapons.obj
 0001:0001ead3       ?stub_PrecacheSound@@YAHPAD@Z 1001fad3 f   com_weapons.obj
 0001:0001eada       ?stub_PrecacheEvent@@YAGHPBD@Z 1001fada f   com_weapons.obj
 0001:0001eae2       ?stub_NameForFunction@@YAPBDK@Z 1001fae2 f   com_weapons.obj
 0001:0001eaec       ?stub_SetModel@@YAXPAUedict_s@@PBD@Z 1001faec f   com_weapons.obj
 0001:0001eb00       ?Init@CHudCustom@@UAEHXZ   1001fb00 f   custom_hud.obj
 0001:0001eb3c       ?VidInit@CHudCustom@@UAEHXZ 1001fb3c f   custom_hud.obj
 0001:0001eb97       ?Draw@CHudCustom@@UAEHM@Z  1001fb97 f   custom_hud.obj
 0001:000205ae       ?DrawNumber@CHudCustom@@SAHHHHHH_NHHH@Z 100215ae f   custom_hud.obj
 0001:0002072b       ?DrawNumber@CHudCustom@@SAHNHHHH@Z 1002172b f   custom_hud.obj
 0001:00020840       ?DrawString@CHudCustom@@SAHPADHHHH@Z 10021840 f   custom_hud.obj
 0001:000208e0       ??GVector@@QBE?AV0@XZ      100218e0 f i custom_hud.obj
 0001:00020930       ?__MsgFunc_DeathMsg@@YAHPBDHPAX@Z 10021930 f   death.obj
 0001:0002094b       ?GetClientColor@@YAPAMH@Z  1002194b f   death.obj
 0001:000209af       ?Init@CHudDeathNotice@@UAEHXZ 100219af f   death.obj
 0001:000209f4       ?InitHUDData@CHudDeathNotice@@UAEXXZ 100219f4 f   death.obj
 0001:00020a13       ?VidInit@CHudDeathNotice@@UAEHXZ 10021a13 f   death.obj
 0001:00020a38       ?Draw@CHudDeathNotice@@UAEHM@Z 10021a38 f   death.obj
 0001:00020df3       ?MsgFunc_DeathMsg@CHudDeathNotice@@QAEHPBDHPAX@Z 10021df3 f   death.obj
 0001:000212d0       ?DrawConsoleString@@YAHHHPBD@Z 100222d0 f i death.obj
 0001:000212f0       ?ConsoleStringLen@@YAHPBD@Z 100222f0 f i death.obj
 0001:00021320       ?GetConsoleStringSize@@YAXPBDPAH1@Z 10022320 f i death.obj
 0001:00021340       ?ConsolePrint@@YAXPBD@Z    10022340 f i death.obj
 0001:00021360       ?Demo_WriteBuffer@@YAXHHPAE@Z 10022360 f   demo.obj
 0001:000213d1       _Demo_ReadBuffer           100223d1 f   demo.obj
 0001:00021500       _HUD_AddEntity             10022500 f   entity.obj
 0001:00021562       _HUD_TxferLocalOverrides   10022562 f   entity.obj
 0001:00021600       _HUD_ProcessPlayerState    10022600 f   entity.obj
 0001:0002196b       _HUD_TxferPredictionData   1002296b f   entity.obj
 0001:00021ce9       _HUD_CreateEntities        10022ce9 f   entity.obj
 0001:00021cff       _HUD_StudioEvent           10022cff f   entity.obj
 0001:00021e62       _HUD_TempEntUpdate         10022e62 f   entity.obj
 0001:00022ed8       _HUD_GetUserEntity         10023ed8 f   entity.obj
 0001:00022ee0       ??BVector@@QAEPAMXZ        10023ee0 f i entity.obj
 0001:00022ee0       ??BVector@@QBEPBMXZ        10023ee0 f i entity.obj
 0001:00022ee0       ?GetWeaponPtr@CBasePlayerWeapon@@UAEPAVCBasePlayerItem@@XZ 10023ee0 f i entity.obj
 0001:00022ee0       ?MyMonsterPointer@CBaseMonster@@UAEPAV1@XZ 10023ee0 f i entity.obj
 0001:00022ee0       ??0Vector@@QAE@XZ          10023ee0 f i entity.obj
 0001:00022ef0       ?GetEntity@@YAPAUcl_entity_s@@H@Z 10023ef0 f   ev_common.obj
 0001:00022f02       ?GetViewEntity@@YAPAUcl_entity_s@@XZ 10023f02 f   ev_common.obj
 0001:00022f0d       ?EV_CreateTracer@@YAXPAM0@Z 10023f0d f   ev_common.obj
 0001:00022f29       ?EV_IsPlayer@@YAHH@Z       10023f29 f   ev_common.obj
 0001:00022f48       ?EV_IsLocal@@YAHH@Z        10023f48 f   ev_common.obj
 0001:00022fa0       ?EV_GetGunPosition@@YAXPAUevent_args_s@@PAM1@Z 10023fa0 f   ev_common.obj
 0001:00023094       ?EV_EjectBrass@@YAXPAM0MHH@Z 10024094 f   ev_common.obj
 0001:000230f1       ?EV_GetDefaultShellInfo@@YAXPAUevent_args_s@@PAM111111MMM@Z 100240f1 f   ev_common.obj
 0001:00023251       ?EV_MuzzleFlash@@YAXXZ     10024251 f   ev_common.obj
 0001:00023280       ?VectorClear@@YAXPAM@Z     10024280 f i ev_common.obj
 0001:000232b0       ?EV_HookEvents@@YAXXZ      100242b0 f   events.obj
 0001:000232c0       ?__MsgFunc_FlashBat@@YAHPBDHPAX@Z 100242c0 f   flashlight.obj
 0001:000232db       ?__MsgFunc_Flashlight@@YAHPBDHPAX@Z 100242db f   flashlight.obj
 0001:000232f6       ?Init@CHudFlashlight@@UAEHXZ 100242f6 f   flashlight.obj
 0001:0002335c       ?Reset@CHudFlashlight@@UAEXXZ 1002435c f   flashlight.obj
 0001:0002337b       ?VidInit@CHudFlashlight@@UAEHXZ 1002437b f   flashlight.obj
 0001:00023452       ?MsgFunc_FlashBat@CHudFlashlight@@QAEHPBDHPAX@Z 10024452 f   flashlight.obj
 0001:00023496       ?MsgFunc_Flashlight@CHudFlashlight@@QAEHPBDHPAX@Z 10024496 f   flashlight.obj
 0001:000234e5       ?Draw@CHudFlashlight@@UAEHM@Z 100244e5 f   flashlight.obj
 0001:0002373f       ??0CGameStudioModelRenderer@@QAE@XZ 1002473f f   GameStudioModelRenderer.obj
 0001:0002375e       ?R_StudioDrawPlayer@@YAHHPAUentity_state_s@@@Z 1002475e f   GameStudioModelRenderer.obj
 0001:00023775       ?R_StudioDrawModel@@YAHH@Z 10024775 f   GameStudioModelRenderer.obj
 0001:00023788       ?R_StudioInit@@YAXXZ       10024788 f   GameStudioModelRenderer.obj
 0001:00023797       _HUD_GetStudioModelInterface 10024797 f   GameStudioModelRenderer.obj
 0001:000237d0       ??1CGameStudioModelRenderer@@UAE@XZ 100247d0 f i GameStudioModelRenderer.obj
 0001:000237f0       ??_GCGameStudioModelRenderer@@UAEPAXI@Z 100247f0 f i GameStudioModelRenderer.obj
 0001:000237f0       ??_ECGameStudioModelRenderer@@UAEPAXI@Z 100247f0 f i GameStudioModelRenderer.obj
 0001:00023820       ?__MsgFunc_Geiger@@YAHPBDHPAX@Z 10024820 f   geiger.obj
 0001:0002383b       ?Init@CHudGeiger@@UAEHXZ   1002483b f   geiger.obj
 0001:00023893       ?VidInit@CHudGeiger@@UAEHXZ 10024893 f   geiger.obj
 0001:000238a3       ?MsgFunc_Geiger@CHudGeiger@@QAEHPBDHPAX@Z 100248a3 f   geiger.obj
 0001:000238ee       ?Draw@CHudGeiger@@UAEHM@Z  100248ee f   geiger.obj
 0001:00023c10       ?__MsgFunc_Health@@YAHPBDHPAX@Z 10024c10 f   health.obj
 0001:00023c2b       ?__MsgFunc_Damage@@YAHPBDHPAX@Z 10024c2b f   health.obj
 0001:00023c46       ?Init@CHudHealth@@UAEHXZ   10024c46 f   health.obj
 0001:00023d07       ?Reset@CHudHealth@@UAEXXZ  10024d07 f   health.obj
 0001:00023d74       ?VidInit@CHudHealth@@UAEHXZ 10024d74 f   health.obj
 0001:00023e1c       ?MsgFunc_Health@CHudHealth@@QAEHPBDHPAX@Z 10024e1c f   health.obj
 0001:00023e95       ?MsgFunc_Damage@CHudHealth@@QAEHPBDHPAX@Z 10024e95 f   health.obj
 0001:00023f41       ?GetPainColor@CHudHealth@@QAEXAAH00@Z 10024f41 f   health.obj
 0001:00023fb1       ?Draw@CHudHealth@@UAEHM@Z  10024fb1 f   health.obj
 0001:00024466       ?CalcDamageDirection@CHudHealth@@AAEXVVector@@@Z 10025466 f   health.obj
 0001:00024893       ?DrawPain@CHudHealth@@AAEHM@Z 10025893 f   health.obj
 0001:00024df5       ?DrawDamage@CHudHealth@@AAEHM@Z 10025df5 f   health.obj
 0001:00025087       ?UpdateTiles@CHudHealth@@AAEXMJ@Z 10026087 f   health.obj
 0001:000251e0       ?Normalize@Vector@@QBE?AV1@XZ 100261e0 f i health.obj
 0001:00025270       ?SPR_Height@@YAHHH@Z       10026270 f i health.obj
 0001:00025290       ?SPR_Width@@YAHHH@Z        10026290 f i health.obj
 0001:000252b0       ??0TablePanel@vgui@@QAE@ABV01@@Z 100262b0 f i hud.obj
 0001:00025420       ??4TablePanel@vgui@@QAEAAV01@ABV01@@Z 10026420 f i hud.obj
 0001:00025600       ??0HeaderPanel@vgui@@QAE@ABV01@@Z 10026600 f i hud.obj
 0001:00025700       ??4HeaderPanel@vgui@@QAEAAV01@ABV01@@Z 10026700 f i hud.obj
 0001:000257f0       ??0TextGrid@vgui@@QAE@ABV01@@Z 100267f0 f i hud.obj
 0001:000258b0       ??4TextGrid@vgui@@QAEAAV01@ABV01@@Z 100268b0 f i hud.obj
 0001:000259ff       ?__MsgFunc_Logo@@YAHPBDHPAX@Z 100269ff f   hud.obj
 0001:00025a1d       ?__MsgFunc_ResetHUD@@YAHPBDHPAX@Z 10026a1d f   hud.obj
 0001:00025a3b       ?__MsgFunc_InitHUD@@YAHPBDHPAX@Z 10026a3b f   hud.obj
 0001:00025a5e       ?__MsgFunc_ViewMode@@YAHPBDHPAX@Z 10026a5e f   hud.obj
 0001:00025a81       ?__MsgFunc_SetFOV@@YAHPBDHPAX@Z 10026a81 f   hud.obj
 0001:00025a9f       ?__MsgFunc_Concuss@@YAHPBDHPAX@Z 10026a9f f   hud.obj
 0001:00025abd       ?__MsgFunc_GameMode@@YAHPBDHPAX@Z 10026abd f   hud.obj
 0001:00025adb       ?__CmdFunc_OpenCommandMenu@@YAXXZ 10026adb f   hud.obj
 0001:00025b00       ?__CmdFunc_InputPlayerSpecial@@YAXXZ 10026b00 f   hud.obj
 0001:00025b19       ?__CmdFunc_CloseCommandMenu@@YAXXZ 10026b19 f   hud.obj
 0001:00025b32       ?__CmdFunc_ForceCloseCommandMenu@@YAXXZ 10026b32 f   hud.obj
 0001:00025b4b       ?__CmdFunc_ToggleServerBrowser@@YAXXZ 10026b4b f   hud.obj
 0001:00025b64       ?__MsgFunc_ValClass@@YAHPBDHPAX@Z 10026b64 f   hud.obj
 0001:00025b8d       ?__MsgFunc_TeamNames@@YAHPBDHPAX@Z 10026b8d f   hud.obj
 0001:00025bb6       ?__MsgFunc_Feign@@YAHPBDHPAX@Z 10026bb6 f   hud.obj
 0001:00025bdf       ?__MsgFunc_Detpack@@YAHPBDHPAX@Z 10026bdf f   hud.obj
 0001:00025c08       ?__MsgFunc_VGUIMenu@@YAHPBDHPAX@Z 10026c08 f   hud.obj
 0001:00025c31       ?__MsgFunc_MOTD@@YAHPBDHPAX@Z 10026c31 f   hud.obj
 0001:00025c5a       ?__MsgFunc_BuildSt@@YAHPBDHPAX@Z 10026c5a f   hud.obj
 0001:00025c83       ?__MsgFunc_RandomPC@@YAHPBDHPAX@Z 10026c83 f   hud.obj
 0001:00025cac       ?__MsgFunc_ServerName@@YAHPBDHPAX@Z 10026cac f   hud.obj
 0001:00025cd5       ?__MsgFunc_ScoreInfo@@YAHPBDHPAX@Z 10026cd5 f   hud.obj
 0001:00025cfe       ?__MsgFunc_TeamScore@@YAHPBDHPAX@Z 10026cfe f   hud.obj
 0001:00025d27       ?__MsgFunc_TeamInfo@@YAHPBDHPAX@Z 10026d27 f   hud.obj
 0001:00025d50       ?__MsgFunc_Spectator@@YAHPBDHPAX@Z 10026d50 f   hud.obj
 0001:00025d79       ?__MsgFunc_AllowSpec@@YAHPBDHPAX@Z 10026d79 f   hud.obj
 0001:00025da2       ?ResetDemorecCounter@@YAXXZ 10026da2 f   hud.obj
 0001:00025dae       ?ResetGrenadeTimer@@YAXXZ  10026dae f   hud.obj
 0001:00025dba       ?ChangelevelOccured@@YAXXZ 10026dba f   hud.obj
 0001:00025dc6       ?GaussboostDisable@@YAXXZ  10026dc6 f   hud.obj
 0001:00025dd2       ?GaussboostReset@@YAXXZ    10026dd2 f   hud.obj
 0001:00025dde       ?RulerReset@@YAXXZ         10026dde f   hud.obj
 0001:00025de8       ?RulerPrintDistance@@YAXXZ 10026de8 f   hud.obj
 0001:00025df2       ?RulerAimPos@@YAXXZ        10026df2 f   hud.obj
 0001:00025dfc       ?RulerPlayerPos@@YAXXZ     10026dfc f   hud.obj
 0001:00025e06       ?RulerViewPos@@YAXXZ       10026e06 f   hud.obj
 0001:00025e10       ?RulerDeleteLast@@YAXXZ    10026e10 f   hud.obj
 0001:00025e1a       ?RulerAutostopsaveAddPoint@@YAXXZ 10026e1a f   hud.obj
 0001:00025e24       ?RulerAutostopsaveDeletePoint@@YAXXZ 10026e24 f   hud.obj
 0001:00025e2e       ?RulerAutostopsavePrintOrigin@@YAXXZ 10026e2e f   hud.obj
 0001:00025e38       ?Init@CHud@@QAEXXZ         10026e38 f   hud.obj
 0001:00026922       ??1CHud@@QAE@XZ            10027922 f   hud.obj
 0001:00026b02       ?GetSpriteIndex@CHud@@QAEHPBD@Z 10027b02 f   hud.obj
 0001:00026b59       ?VidInit@CHud@@QAEXXZ      10027b59 f   hud.obj
 0001:000270e8       ?MsgFunc_Logo@CHud@@QAAHPBDHPAX@Z 100280e8 f   hud.obj
 0001:0002710d       ?COM_FileBase@@YAXPBDPAD@Z 1002810d f   hud.obj
 0001:0002721c       ?HUD_IsGame@@YAHPBD@Z      1002821c f   hud.obj
 0001:00027275       ?HUD_GetFOV@@YAMXZ         10028275 f   hud.obj
 0001:000272d7       ?MsgFunc_SetFOV@CHud@@QAAHPBDHPAX@Z 100282d7 f   hud.obj
 0001:0002739b       ?AddHudElem@CHud@@QAEXPAVCHudBase@@@Z 1002839b f   hud.obj
 0001:00027416       ?GetSensitivity@CHud@@QAEMXZ 10028416 f   hud.obj
 0001:00027430       ??1CHLVoiceStatusHelper@@UAE@XZ 10028430 f i hud.obj
 0001:00027450       ??1IVoiceStatusHelper@@UAE@XZ 10028450 f i hud.obj
 0001:00027470       ??_EIVoiceStatusHelper@@UAEPAXI@Z 10028470 f i hud.obj
 0001:00027470       ??_GIVoiceStatusHelper@@UAEPAXI@Z 10028470 f i hud.obj
 0001:000274a0       ??0CHLVoiceStatusHelper@@QAE@XZ 100284a0 f i hud.obj
 0001:000274c0       ?GetPlayerTextColor@CHLVoiceStatusHelper@@UAEXHQAH@Z 100284c0 f i hud.obj
 0001:00027560       ?UpdateCursorState@CHLVoiceStatusHelper@@UAEXXZ 10028560 f i hud.obj
 0001:00027580       ?GetAckIconHeight@CHLVoiceStatusHelper@@UAEHXZ 10028580 f i hud.obj
 0001:000275a0       ?CanShowSpeakerLabels@CHLVoiceStatusHelper@@UAE_NXZ 100285a0 f i hud.obj
 0001:000275f0       ??_ECHLVoiceStatusHelper@@UAEPAXI@Z 100285f0 f i hud.obj
 0001:000275f0       ??_GCHLVoiceStatusHelper@@UAEPAXI@Z 100285f0 f i hud.obj
 0001:00027620       ??0IVoiceStatusHelper@@QAE@XZ 10028620 f i hud.obj
 0001:00027640       ?MsgFunc_ResetHUD@CHud@@QAAHPBDHPAX@Z 10028640 f   hud_msg.obj
 0001:00027691       ?MsgFunc_ViewMode@CHud@@QAAXPBDHPAX@Z 10028691 f   hud_msg.obj
 0001:0002769b       ?MsgFunc_InitHUD@CHud@@QAAXPBDHPAX@Z 1002869b f   hud_msg.obj
 0001:000276e9       ?MsgFunc_GameMode@CHud@@QAAHPBDHPAX@Z 100286e9 f   hud_msg.obj
 0001:0002770e       ?MsgFunc_Damage@CHud@@QAAHPBDHPAX@Z 1002870e f   hud_msg.obj
 0001:000277a6       ?MsgFunc_Concuss@CHud@@QAAHPBDHPAX@Z 100287a6 f   hud_msg.obj
 0001:00027810       ?Think@CHud@@QAEXXZ        10028810 f   hud_redraw.obj
 0001:00027918       ?Redraw@CHud@@QAEHMH@Z     10028918 f   hud_redraw.obj
 0001:00027bd6       ?ScaleColors@@YAXAAH00H@Z  10028bd6 f   hud_redraw.obj
 0001:00027c20       ?DrawHudString@CHud@@QAEHHHHPADHHH@Z 10028c20 f   hud_redraw.obj
 0001:00027ca0       ?DrawHudNumberString@CHud@@QAEHHHHHHHH@Z 10028ca0 f   hud_redraw.obj
 0001:00027ce8       ?DrawHudStringReverse@CHud@@QAEHHHHPADHHH@Z 10028ce8 f   hud_redraw.obj
 0001:00027d84       ?DrawHudNumber@CHud@@QAEHHHHHHHH@Z 10028d84 f   hud_redraw.obj
 0001:000280d9       ?GetNumWidth@CHud@@QAEHHH@Z 100290d9 f   hud_redraw.obj
 0001:00028150       ?TextMessageDrawChar@@YAHHHHHHH@Z 10029150 f i hud_redraw.obj
 0001:00028180       ?ListResponse@@YAXPAUnet_response_s@@@Z 10029180 f   hud_servers.obj
 0001:0002819d       ?ServerResponse@@YAXPAUnet_response_s@@@Z 1002919d f   hud_servers.obj
 0001:000281ba       ?PingResponse@@YAXPAUnet_response_s@@@Z 100291ba f   hud_servers.obj
 0001:000281d7       ?RulesResponse@@YAXPAUnet_response_s@@@Z 100291d7 f   hud_servers.obj
 0001:000281f4       ?PlayersResponse@@YAXPAUnet_response_s@@@Z 100291f4 f   hud_servers.obj
 0001:00028211       ?ListResponse@CHudServers@@QAEXPAUnet_response_s@@@Z 10029211 f   hud_servers.obj
 0001:000282e3       ?ServerResponse@CHudServers@@QAEXPAUnet_response_s@@@Z 100292e3 f   hud_servers.obj
 0001:0002847c       ?PingResponse@CHudServers@@QAEXPAUnet_response_s@@@Z 1002947c f   hud_servers.obj
 0001:000284db       ?RulesResponse@CHudServers@@QAEXPAUnet_response_s@@@Z 100294db f   hud_servers.obj
 0001:00028529       ?PlayersResponse@CHudServers@@QAEXPAUnet_response_s@@@Z 10029529 f   hud_servers.obj
 0001:00028577       ?CompareServers@CHudServers@@QAEHPAUserver_s@1@0@Z 10029577 f   hud_servers.obj
 0001:0002861a       ?AddServer@CHudServers@@QAEXPAPAUserver_s@1@PAU21@@Z 1002961a f   hud_servers.obj
 0001:000286e7       ?Think@CHudServers@@QAEXN@Z 100296e7 f   hud_servers.obj
 0001:00028786       ?QueryThink@CHudServers@@QAEXXZ 10029786 f   hud_servers.obj
 0001:000288a6       ?ServerListSize@CHudServers@@QAEHXZ 100298a6 f   hud_servers.obj
 0001:00028907       ?FindRequest@CHudServers@@QAEPAUrequest_s@1@HPAU21@@Z 10029907 f   hud_servers.obj
 0001:0002893e       ?RemoveServerFromList@CHudServers@@QAEXPAPAUrequest_s@1@PAU21@@Z 1002993e f   hud_servers.obj
 0001:00028998       ?ClearRequestList@CHudServers@@QAEXPAPAUrequest_s@1@@Z 10029998 f   hud_servers.obj
 0001:000289e8       ?ClearServerList@CHudServers@@QAEXPAPAUserver_s@1@@Z 100299e8 f   hud_servers.obj
 0001:00028a4d       ?CompareField@@YAHPAUserver_s@CHudServers@@0PBDH@Z 10029a4d f   hud_servers.obj
 0001:00028b02       ?ServerListCompareFunc@@YGHPAUserver_s@CHudServers@@0PBD@Z 10029b02 f   hud_servers.obj
 0001:00028b4a       ?FnServerCompare@@YAHPBX0@Z 10029b4a f   hud_servers.obj
 0001:00028b76       ?SortServers@CHudServers@@QAEXPBD@Z 10029b76 f   hud_servers.obj
 0001:00028cc2       ?GetServer@CHudServers@@AAEPAUserver_s@1@H@Z 10029cc2 f   hud_servers.obj
 0001:00028d0c       ?GetServerInfo@CHudServers@@QAEPADH@Z 10029d0c f   hud_servers.obj
 0001:00028d3a       ?CancelRequest@CHudServers@@QAEXXZ 10029d3a f   hud_servers.obj
 0001:00028d74       ?LoadMasterAddresses@CHudServers@@QAEHHPAHPAUnetadr_s@@@Z 10029d74 f   hud_servers.obj
 0001:0002912b       ?RequestList@CHudServers@@QAEXXZ 1002a12b f   hud_servers.obj
 0001:0002922c       ?RequestBroadcastList@CHudServers@@QAEXH@Z 1002a22c f   hud_servers.obj
 0001:00029373       ?ServerPing@CHudServers@@QAEXH@Z 1002a373 f   hud_servers.obj
 0001:000293de       ?ServerRules@CHudServers@@QAEXH@Z 1002a3de f   hud_servers.obj
 0001:00029449       ?ServerPlayers@CHudServers@@QAEXH@Z 1002a449 f   hud_servers.obj
 0001:000294b4       ?isQuerying@CHudServers@@QAEHXZ 1002a4b4 f   hud_servers.obj
 0001:000294d0       ?GetServerCount@CHudServers@@QAEHXZ 1002a4d0 f   hud_servers.obj
 0001:000294e4       ??0CHudServers@@QAE@XZ     1002a4e4 f   hud_servers.obj
 0001:000295a2       ??1CHudServers@@QAE@XZ     1002a5a2 f   hud_servers.obj
 0001:00029684       ?ServersGetCount@@YAHXZ    1002a684 f   hud_servers.obj
 0001:000296a1       ?ServersIsQuerying@@YAHXZ  1002a6a1 f   hud_servers.obj
 0001:000296be       ?ServersGetInfo@@YAPBDH@Z  1002a6be f   hud_servers.obj
 0001:000296df       ?SortServers@@YAXPBD@Z     1002a6df f   hud_servers.obj
 0001:000296fc       ?ServersShutdown@@YAXXZ    1002a6fc f   hud_servers.obj
 0001:00029743       ?ServersInit@@YAXXZ        1002a743 f   hud_servers.obj
 0001:000297b8       ?ServersThink@@YAXN@Z      1002a7b8 f   hud_servers.obj
 0001:000297d9       ?ServersCancel@@YAXXZ      1002a7d9 f   hud_servers.obj
 0001:000297f2       ?ServersList@@YAXXZ        1002a7f2 f   hud_servers.obj
 0001:0002980b       ?BroadcastServersList@@YAXH@Z 1002a80b f   hud_servers.obj
 0001:00029828       ?ServerPing@@YAXH@Z        1002a828 f   hud_servers.obj
 0001:00029845       ?ServerRules@@YAXH@Z       1002a845 f   hud_servers.obj
 0001:00029862       ?ServerPlayers@@YAXH@Z     1002a862 f   hud_servers.obj
 0001:00029880       ??_GCHudServers@@QAEPAXI@Z 1002a880 f i hud_servers.obj
 0001:000298b0       ?SpectatorMode@@YAXXZ      1002a8b0 f   hud_spectator.obj
 0001:0002993d       ?SpectatorSpray@@YAXXZ     1002a93d f   hud_spectator.obj
 0001:00029ae4       ?SpectatorHelp@@YAXXZ      1002aae4 f   hud_spectator.obj
 0001:00029b4f       ?SpectatorMenu@@YAXXZ      1002ab4f f   hud_spectator.obj
 0001:00029b9a       ?ToggleScores@@YAXXZ       1002ab9a f   hud_spectator.obj
 0001:00029bd4       ?Init@CHudSpectator@@UAEHXZ 1002abd4 f   hud_spectator.obj
 0001:00029df5       ?UTIL_StringToVector@@YAXPAMPBD@Z 1002adf5 f   hud_spectator.obj
 0001:00029ec9       ?UTIL_FindEntityInMap@@YAHPADPAM1@Z 1002aec9 f   hud_spectator.obj
 0001:0002a1f6       ?SetSpectatorStartPosition@CHudSpectator@@QAEXXZ 1002b1f6 f   hud_spectator.obj
 0001:0002a447       ?VidInit@CHudSpectator@@UAEHXZ 1002b447 f   hud_spectator.obj
 0001:0002a50f       ?Draw@CHudSpectator@@UAEHM@Z 1002b50f f   hud_spectator.obj
 0001:0002aa6a       ?DirectorMessage@CHudSpectator@@QAEXHPAX@Z 1002ba6a f   hud_spectator.obj
 0001:0002ae75       ?FindNextPlayer@CHudSpectator@@QAEX_N@Z 1002be75 f   hud_spectator.obj
 0001:0002b0a4       ?HandleButtonsDown@CHudSpectator@@QAEXH@Z 1002c0a4 f   hud_spectator.obj
 0001:0002b2d9       ?HandleButtonsUp@CHudSpectator@@QAEXH@Z 1002c2d9 f   hud_spectator.obj
 0001:0002b349       ?SetModes@CHudSpectator@@QAEXHH@Z 1002c349 f   hud_spectator.obj
 0001:0002b6fa       ?IsActivePlayer@CHudSpectator@@QAE_NPAUcl_entity_s@@@Z 1002c6fa f   hud_spectator.obj
 0001:0002b755       ?ParseOverviewFile@CHudSpectator@@QAE_NXZ 1002c755 f   hud_spectator.obj
 0001:0002bee6       ?LoadMapSprites@CHudSpectator@@QAEXXZ 1002cee6 f   hud_spectator.obj
 0001:0002bf28       ?DrawOverviewLayer@CHudSpectator@@QAEXXZ 1002cf28 f   hud_spectator.obj
 0001:0002c3f8       ?DrawOverviewEntities@CHudSpectator@@QAEXXZ 1002d3f8 f   hud_spectator.obj
 0001:0002d3f8       ?DrawOverview@CHudSpectator@@QAEXXZ 1002e3f8 f   hud_spectator.obj
 0001:0002d467       ?CheckOverviewEntities@CHudSpectator@@QAEXXZ 1002e467 f   hud_spectator.obj
 0001:0002d4d1       ?AddOverviewEntity@CHudSpectator@@QAE_NHPAUcl_entity_s@@PBD@Z 1002e4d1 f   hud_spectator.obj
 0001:0002d593       ?DeathMessage@CHudSpectator@@QAEXH@Z 1002e593 f   hud_spectator.obj
 0001:0002d5e9       ?AddOverviewEntityToList@CHudSpectator@@QAE_NHPAUcl_entity_s@@N@Z 1002e5e9 f   hud_spectator.obj
 0001:0002d671       ?CheckSettings@CHudSpectator@@QAEXXZ 1002e671 f   hud_spectator.obj
 0001:0002d915       ?ToggleInset@CHudSpectator@@QAEH_N@Z 1002e915 f   hud_spectator.obj
 0001:0002d99b       ?Reset@CHudSpectator@@UAEXXZ 1002e99b f   hud_spectator.obj
 0001:0002d9f3       ?InitHUDData@CHudSpectator@@UAEXXZ 1002e9f3 f   hud_spectator.obj
 0001:0002db10       ?UpdateClientData@CHud@@QAEHPAUclient_data_s@@M@Z 1002eb10 f   hud_update.obj
 0001:0002dbd9       ?MoveToward@@YAMMMM@Z      1002ebd9 f   in_camera.obj
 0001:0002dcee       _CAM_Think                 1002ecee f   in_camera.obj
 0001:0002e752       ?CAM_PitchUpDown@@YAXXZ    1002f752 f   in_camera.obj
 0001:0002e764       ?CAM_PitchUpUp@@YAXXZ      1002f764 f   in_camera.obj
 0001:0002e776       ?CAM_PitchDownDown@@YAXXZ  1002f776 f   in_camera.obj
 0001:0002e788       ?CAM_PitchDownUp@@YAXXZ    1002f788 f   in_camera.obj
 0001:0002e79a       ?CAM_YawLeftDown@@YAXXZ    1002f79a f   in_camera.obj
 0001:0002e7ac       ?CAM_YawLeftUp@@YAXXZ      1002f7ac f   in_camera.obj
 0001:0002e7be       ?CAM_YawRightDown@@YAXXZ   1002f7be f   in_camera.obj
 0001:0002e7d0       ?CAM_YawRightUp@@YAXXZ     1002f7d0 f   in_camera.obj
 0001:0002e7e2       ?CAM_InDown@@YAXXZ         1002f7e2 f   in_camera.obj
 0001:0002e7f4       ?CAM_InUp@@YAXXZ           1002f7f4 f   in_camera.obj
 0001:0002e806       ?CAM_OutDown@@YAXXZ        1002f806 f   in_camera.obj
 0001:0002e818       ?CAM_OutUp@@YAXXZ          1002f818 f   in_camera.obj
 0001:0002e82a       ?CAM_ToThirdPerson@@YAXXZ  1002f82a f   in_camera.obj
 0001:0002e8c3       ?CAM_ToFirstPerson@@YAXXZ  1002f8c3 f   in_camera.obj
 0001:0002e8e2       ?CAM_ToggleSnapto@@YAXXZ   1002f8e2 f   in_camera.obj
 0001:0002e91b       ?CAM_Init@@YAXXZ           1002f91b f   in_camera.obj
 0001:0002ebc1       ?CAM_ClearStates@@YAXXZ    1002fbc1 f   in_camera.obj
 0001:0002ecbd       ?CAM_StartMouseMove@@YAXXZ 1002fcbd f   in_camera.obj
 0001:0002ed68       ?CAM_EndMouseMove@@YAXXZ   1002fd68 f   in_camera.obj
 0001:0002ed81       ?CAM_StartDistance@@YAXXZ  1002fd81 f   in_camera.obj
 0001:0002ee26       ?CAM_EndDistance@@YAXXZ    1002fe26 f   in_camera.obj
 0001:0002ee49       _CL_IsThirdPerson          1002fe49 f   in_camera.obj
 0001:0002ee8d       _CL_CameraOffset           1002fe8d f   in_camera.obj
 0001:0002eed0       ??0moveclip_t@@QAE@XZ      1002fed0 f i in_camera.obj
 0001:0002ef20       ??0trace_t@@QAE@XZ         1002ff20 f i in_camera.obj
 0001:0002ef50       ?KB_ConvertString@@YAHPADPAPAD@Z 1002ff50 f   input.obj
 0001:0002f0ef       _KB_Find                   100300ef f   input.obj
 0001:0002f130       ?KB_Add@@YAXPBDPAUkbutton_s@@@Z 10030130 f   input.obj
 0001:0002f19e       ?KB_Init@@YAXXZ            1003019e f   input.obj
 0001:0002f1e3       ?KB_Shutdown@@YAXXZ        100301e3 f   input.obj
 0001:0002f221       ?KeyDown@@YAXPAUkbutton_s@@@Z 10030221 f   input.obj
 0001:0002f2d6       ?KeyUp@@YAXPAUkbutton_s@@@Z 100302d6 f   input.obj
 0001:0002f396       _HUD_Key_Event             10030396 f   input.obj
 0001:0002f3c2       ?IN_BreakDown@@YAXXZ       100303c2 f   input.obj
 0001:0002f3d4       ?IN_BreakUp@@YAXXZ         100303d4 f   input.obj
 0001:0002f3e6       ?IN_KLookDown@@YAXXZ       100303e6 f   input.obj
 0001:0002f3f8       ?IN_KLookUp@@YAXXZ         100303f8 f   input.obj
 0001:0002f40a       ?IN_JLookDown@@YAXXZ       1003040a f   input.obj
 0001:0002f41c       ?IN_JLookUp@@YAXXZ         1003041c f   input.obj
 0001:0002f42e       ?IN_MLookDown@@YAXXZ       1003042e f   input.obj
 0001:0002f440       ?IN_UpDown@@YAXXZ          10030440 f   input.obj
 0001:0002f452       ?IN_UpUp@@YAXXZ            10030452 f   input.obj
 0001:0002f464       ?IN_DownDown@@YAXXZ        10030464 f   input.obj
 0001:0002f476       ?IN_DownUp@@YAXXZ          10030476 f   input.obj
 0001:0002f488       ?IN_LeftDown@@YAXXZ        10030488 f   input.obj
 0001:0002f49a       ?IN_LeftUp@@YAXXZ          1003049a f   input.obj
 0001:0002f4ac       ?IN_RightDown@@YAXXZ       100304ac f   input.obj
 0001:0002f4be       ?IN_RightUp@@YAXXZ         100304be f   input.obj
 0001:0002f4d0       ?IN_ForwardDown@@YAXXZ     100304d0 f   input.obj
 0001:0002f4ee       ?IN_ForwardUp@@YAXXZ       100304ee f   input.obj
 0001:0002f50c       ?IN_BackDown@@YAXXZ        1003050c f   input.obj
 0001:0002f52a       ?IN_BackUp@@YAXXZ          1003052a f   input.obj
 0001:0002f548       ?IN_LookupDown@@YAXXZ      10030548 f   input.obj
 0001:0002f55a       ?IN_LookupUp@@YAXXZ        1003055a f   input.obj
 0001:0002f56c       ?IN_LookdownDown@@YAXXZ    1003056c f   input.obj
 0001:0002f57e       ?IN_LookdownUp@@YAXXZ      1003057e f   input.obj
 0001:0002f590       ?IN_MoveleftDown@@YAXXZ    10030590 f   input.obj
 0001:0002f5b1       ?IN_MoveleftUp@@YAXXZ      100305b1 f   input.obj
 0001:0002f5d2       ?IN_MoverightDown@@YAXXZ   100305d2 f   input.obj
 0001:0002f5f3       ?IN_MoverightUp@@YAXXZ     100305f3 f   input.obj
 0001:0002f614       ?IN_SpeedDown@@YAXXZ       10030614 f   input.obj
 0001:0002f626       ?IN_SpeedUp@@YAXXZ         10030626 f   input.obj
 0001:0002f638       ?IN_StrafeDown@@YAXXZ      10030638 f   input.obj
 0001:0002f64a       ?IN_StrafeUp@@YAXXZ        1003064a f   input.obj
 0001:0002f65c       ?IN_Attack2Down@@YAXXZ     1003065c f   input.obj
 0001:0002f67d       ?IN_Attack2Up@@YAXXZ       1003067d f   input.obj
 0001:0002f68f       ?IN_UseDown@@YAXXZ         1003068f f   input.obj
 0001:0002f6ad       ?IN_UseUp@@YAXXZ           100306ad f   input.obj
 0001:0002f6bf       ?IN_JumpDown@@YAXXZ        100306bf f   input.obj
 0001:0002f6dd       ?IN_JumpUp@@YAXXZ          100306dd f   input.obj
 0001:0002f6ef       ?IN_DuckDown@@YAXXZ        100306ef f   input.obj
 0001:0002f70d       ?IN_DuckUp@@YAXXZ          1003070d f   input.obj
 0001:0002f71f       ?IN_ReloadDown@@YAXXZ      1003071f f   input.obj
 0001:0002f731       ?IN_ReloadUp@@YAXXZ        10030731 f   input.obj
 0001:0002f743       ?IN_Alt1Down@@YAXXZ        10030743 f   input.obj
 0001:0002f755       ?IN_Alt1Up@@YAXXZ          10030755 f   input.obj
 0001:0002f767       ?IN_GraphDown@@YAXXZ       10030767 f   input.obj
 0001:0002f779       ?IN_GraphUp@@YAXXZ         10030779 f   input.obj
 0001:0002f78b       ?IN_AttackDown@@YAXXZ      1003078b f   input.obj
 0001:0002f7a9       ?IN_AttackUp@@YAXXZ        100307a9 f   input.obj
 0001:0002f7c5       ?IN_Cancel@@YAXXZ          100307c5 f   input.obj
 0001:0002f7d4       ?IN_Impulse@@YAXXZ         100307d4 f   input.obj
 0001:0002f7f2       ?IN_ScoreDown@@YAXXZ       100307f2 f   input.obj
 0001:0002f818       ?IN_ScoreUp@@YAXXZ         10030818 f   input.obj
 0001:0002f83e       ?IN_MLookUp@@YAXXZ         1003083e f   input.obj
 0001:0002f877       ?CL_KeyState@@YAMPAUkbutton_s@@@Z 10030877 f   input.obj
 0001:0002f982       ?CL_AdjustAngles@@YAXMPAM@Z 10030982 f   input.obj
 0001:0002fb8c       _CL_CreateMove             10030b8c f   input.obj
 0001:00030017       ?CL_IsDead@@YAHXZ          10031017 f   input.obj
 0001:00030028       ?CL_ButtonBits@@YAHH@Z     10031028 f   input.obj
 0001:00030260       ?CL_ResetButtonBits@@YAXH@Z 10031260 f   input.obj
 0001:000302aa       ?InitInput@@YAXXZ          100312aa f   input.obj
 0001:0003086c       ?ShutdownInput@@YAXXZ      1003186c f   input.obj
 0001:0003087b       _HUD_Shutdown              1003187b f   input.obj
 0001:00030890       ?Force_CenterView_f@@YAXXZ 10031890 f   inputw32.obj
 0001:000308dd       _IN_ActivateMouse          100318dd f   inputw32.obj
 0001:00030914       _IN_DeactivateMouse        10031914 f   inputw32.obj
 0001:00030946       ?IN_StartupMouse@@YAXXZ    10031946 f   inputw32.obj
 0001:00030a1b       ?IN_Shutdown@@YAXXZ        10031a1b f   inputw32.obj
 0001:00030a25       ?IN_GetMousePos@@YAXPAH0@Z 10031a25 f   inputw32.obj
 0001:00030a3b       ?IN_ResetMouse@@YAXXZ      10031a3b f   inputw32.obj
 0001:00030a54       _IN_MouseEvent             10031a54 f   inputw32.obj
 0001:00030b18       ?IN_MouseMove@@YAXMPAUusercmd_s@@@Z 10031b18 f   inputw32.obj
 0001:00030e29       _IN_Accumulate             10031e29 f   inputw32.obj
 0001:00030e91       _IN_ClearStates            10031e91 f   inputw32.obj
 0001:00030ebf       ?IN_StartupJoystick@@YAXXZ 10031ebf f   inputw32.obj
 0001:00031040       ?RawValuePointer@@YAPAKH@Z 10032040 f   inputw32.obj
 0001:000310a5       ?Joy_AdvancedUpdate_f@@YAXXZ 100320a5 f   inputw32.obj
 0001:00031293       ?IN_Commands@@YAXXZ        10032293 f   inputw32.obj
 0001:00031491       ?IN_ReadJoystick@@YAHXZ    10032491 f   inputw32.obj
 0001:000314fd       ?IN_JoyMove@@YAXMPAUusercmd_s@@@Z 100324fd f   inputw32.obj
 0001:00031af4       ?IN_Move@@YAXMPAUusercmd_s@@@Z 10032af4 f   inputw32.obj
 0001:00031b2b       ?IN_Init@@YAXXZ            10032b2b f   inputw32.obj
 0001:00031d90       ?__MsgFunc_ShowMenu@@YAHPBDHPAX@Z 10032d90 f   menu.obj
 0001:00031dab       ?Init@CHudMenu@@UAEHXZ     10032dab f   menu.obj
 0001:00031de7       ?InitHUDData@CHudMenu@@UAEXXZ 10032de7 f   menu.obj
 0001:00031e11       ?Reset@CHudMenu@@UAEXXZ    10032e11 f   menu.obj
 0001:00031e2d       ?VidInit@CHudMenu@@UAEHXZ  10032e2d f   menu.obj
 0001:00031e3d       ?Draw@CHudMenu@@UAEHM@Z    10032e3d f   menu.obj
 0001:00031fde       ?SelectMenuItem@CHudMenu@@QAEXH@Z 10032fde f   menu.obj
 0001:00032047       ?MsgFunc_ShowMenu@CHudMenu@@QAEHPBDHPAX@Z 10033047 f   menu.obj
 0001:000321a0       ?__MsgFunc_HudText@@YAHPBDHPAX@Z 100331a0 f   message.obj
 0001:000321bb       ?__MsgFunc_GameTitle@@YAHPBDHPAX@Z 100331bb f   message.obj
 0001:000321d6       ?Init@CHudMessage@@UAEHXZ  100331d6 f   message.obj
 0001:00032225       ?VidInit@CHudMessage@@UAEHXZ 10033225 f   message.obj
 0001:00032265       ?Reset@CHudMessage@@UAEXXZ 10033265 f   message.obj
 0001:000322b0       ?FadeBlend@CHudMessage@@QAEMMMMM@Z 100332b0 f   message.obj
 0001:00032345       ?XPosition@CHudMessage@@QAEHMHH@Z 10033345 f   message.obj
 0001:000323d8       ?YPosition@CHudMessage@@QAEHMH@Z 100333d8 f   message.obj
 0001:00032477       ?MessageScanNextChar@CHudMessage@@QAEXXZ 10033477 f   message.obj
 0001:0003277d       ?MessageScanStart@CHudMessage@@QAEXXZ 1003377d f   message.obj
 0001:00032994       ?MessageDrawScan@CHudMessage@@QAEXPAUclient_textmessage_s@@M@Z 10033994 f   message.obj
 0001:00032cad       ?Draw@CHudMessage@@UAEHM@Z 10033cad f   message.obj
 0001:0003313e       ?MessageAdd@CHudMessage@@QAEXPBDM@Z 1003413e f   message.obj
 0001:000333ba       ?MsgFunc_HudText@CHudMessage@@QAEHPBDHPAX@Z 100343ba f   message.obj
 0001:00033423       ?MsgFunc_GameTitle@CHudMessage@@QAEHPBDHPAX@Z 10034423 f   message.obj
 0001:00033482       ?MessageAdd@CHudMessage@@QAEXPAUclient_textmessage_s@@@Z 10034482 f   message.obj
 0001:00033510       ?TextMessageGet@@YAPAUclient_textmessage_s@@PBD@Z 10034510 f i message.obj
 0001:00033530       ?BEGIN_READ@@YAXPAXH@Z     10034530 f   parsemsg.obj
 0001:0003355a       ?READ_CHAR@@YAHXZ          1003455a f   parsemsg.obj
 0001:000335a3       ?READ_BYTE@@YAHXZ          100345a3 f   parsemsg.obj
 0001:000335ed       ?READ_SHORT@@YAHXZ         100345ed f   parsemsg.obj
 0001:0003364f       ?READ_WORD@@YAHXZ          1003464f f   parsemsg.obj
 0001:00033659       ?READ_LONG@@YAHXZ          10034659 f   parsemsg.obj
 0001:000336e4       ?READ_FLOAT@@YAMXZ         100346e4 f   parsemsg.obj
 0001:00033743       ?READ_STRING@@YAPADXZ      10034743 f   parsemsg.obj
 0001:000337b0       ?READ_COORD@@YAMXZ         100347b0 f   parsemsg.obj
 0001:000337ce       ?READ_ANGLE@@YAMXZ         100347ce f   parsemsg.obj
 0001:000337ec       ?READ_HIRESANGLE@@YAMXZ    100347ec f   parsemsg.obj
 0001:00033810       _PM_ShowClipBox            10034810 f   pm_debug.obj
 0001:00033815       _PM_ParticleLine           10034815 f   pm_debug.obj
 0001:000338d8       _PM_DrawRectangle          100348d8 f   pm_debug.obj
 0001:00033945       _PM_DrawPhysEntBBox        10034945 f   pm_debug.obj
 0001:00033e73       _PM_DrawBBox               10034e73 f   pm_debug.obj
 0001:00033fe8       _PM_ViewEntity             10034fe8 f   pm_debug.obj
 0001:00034140       _anglemod                  10035140 f   pm_math.obj
 0001:0003416a       _AngleVectors              1003516a f   pm_math.obj
 0001:000342df       _AngleVectorsTranspose     100352df f   pm_math.obj
 0001:00034434       _AngleMatrix               10035434 f   pm_math.obj
 0001:00034597       _AngleIMatrix              10035597 f   pm_math.obj
 0001:000346fa       _NormalizeAngles           100356fa f   pm_math.obj
 0001:0003477a       _InterpolateAngles         1003577a f   pm_math.obj
 0001:0003482c       _AngleBetweenVectors       1003582c f   pm_math.obj
 0001:000348ca       _VectorTransform           100358ca f   pm_math.obj
 0001:00034966       _VectorCompare             10035966 f   pm_math.obj
 0001:000349ac       _VectorMA                  100359ac f   pm_math.obj
 0001:000349ed       __DotProduct               100359ed f   pm_math.obj
 0001:00034a18       __VectorSubtract           10035a18 f   pm_math.obj
 0001:00034a50       __VectorAdd                10035a50 f   pm_math.obj
 0001:00034a88       __VectorCopy               10035a88 f   pm_math.obj
 0001:00034aaf       _CrossProduct              10035aaf f   pm_math.obj
 0001:00034b0f       _Length                    10035b0f f   pm_math.obj
 0001:00034b68       _Distance                  10035b68 f   pm_math.obj
 0001:00034ba9       _VectorNormalize           10035ba9 f   pm_math.obj
 0001:00034c34       _VectorInverse             10035c34 f   pm_math.obj
 0001:00034c61       _VectorScale               10035c61 f   pm_math.obj
 0001:00034c91       _Q_log2                    10035c91 f   pm_math.obj
 0001:00034cbc       _VectorMatrix              10035cbc f   pm_math.obj
 0001:00034d84       _VectorAngles              10035d84 f   pm_math.obj
 0001:00034eb0       _PM_SwapTextures           10035eb0 f   pm_shared.obj
 0001:00034f37       _PM_SortTextures           10035f37 f   pm_shared.obj
 0001:00034fb6       _PM_InitTextureTypes       10035fb6 f   pm_shared.obj
 0001:00035369       _PM_FindTextureType        10036369 f   pm_shared.obj
 0001:000353ee       _PM_PlayStepSound          100363ee f   pm_shared.obj
 0001:00035c4b       _PM_MapTextureTypeStepType 10036c4b f   pm_shared.obj
 0001:00035cd6       _PM_CatagorizeTextureType  10036cd6 f   pm_shared.obj
 0001:00035e15       _PM_UpdateStepSound        10036e15 f   pm_shared.obj
 0001:000363cc       _PM_AddToTouched           100373cc f   pm_shared.obj
 0001:000364b1       _PM_CheckVelocity          100374b1 f   pm_shared.obj
 0001:00036610       _PM_ClipVelocity           10037610 f   pm_shared.obj
 0001:00036701       _PM_AddCorrectGravity      10037701 f   pm_shared.obj
 0001:000367bf       _PM_FixupGravityVelocity   100377bf f   pm_shared.obj
 0001:0003684b       _PM_FlyMove                1003784b f   pm_shared.obj
 0001:00036f45       _PM_Accelerate             10037f45 f   pm_shared.obj
 0001:00037036       _PM_WalkMove               10038036 f   pm_shared.obj
 0001:000376bf       _PM_Friction               100386bf f   pm_shared.obj
 0001:00037911       _PM_AirAccelerate          10038911 f   pm_shared.obj
 0001:00037a20       _PM_WaterMove              10038a20 f   pm_shared.obj
 0001:00037dec       _PM_AirMove                10038dec f   pm_shared.obj
 0001:00037f77       _PM_InWater                10038f77 f   pm_shared.obj
 0001:00037f8f       _PM_CheckWater             10038f8f f   pm_shared.obj
 0001:00038200       _PM_CatagorizePosition     10039200 f   pm_shared.obj
 0001:00038350       _PM_GetRandomStuckOffsets  10039350 f   pm_shared.obj
 0001:000383e8       _PM_ResetStuckOffsets      100393e8 f   pm_shared.obj
 0001:00038401       _PM_CheckStuck             10039401 f   pm_shared.obj
 0001:00038834       _PM_SpectatorMove          10039834 f   pm_shared.obj
 0001:00038d35       _PM_SplineFraction         10039d35 f   pm_shared.obj
 0001:00038d63       _PM_FixPlayerCrouchStuck   10039d63 f   pm_shared.obj
 0001:00038e2e       _PM_UnDuck                 10039e2e f   pm_shared.obj
 0001:00038fb6       _PM_Duck                   10039fb6 f   pm_shared.obj
 0001:00039342       _PM_LadderMove             1003a342 f   pm_shared.obj
 0001:0003974d       _PM_Ladder                 1003a74d f   pm_shared.obj
 0001:0003984a       _PM_WaterJump              1003a84a f   pm_shared.obj
 0001:00039937       _PM_AddGravity             1003a937 f   pm_shared.obj
 0001:000399cd       _PM_PushEntity             1003a9cd f   pm_shared.obj
 0001:00039aaf       _PM_Physics_Toss           1003aaaf f   pm_shared.obj
 0001:00039eb1       _PM_NoClip                 1003aeb1 f   pm_shared.obj
 0001:00039fa3       _PM_PreventMegaBunnyJumping 1003afa3 f   pm_shared.obj
 0001:0003a020       _PM_Jump                   1003b020 f   pm_shared.obj
 0001:0003a4be       _PM_CheckWaterJump         1003b4be f   pm_shared.obj
 0001:0003a757       _PM_CheckFalling           1003b757 f   pm_shared.obj
 0001:0003a957       _PM_PlayWaterSounds        1003b957 f   pm_shared.obj
 0001:0003aa6f       _PM_CalcRoll               1003ba6f f   pm_shared.obj
 0001:0003ab16       _PM_DropPunchAngle         1003bb16 f   pm_shared.obj
 0001:0003ab89       _PM_CheckParamters         1003bb89 f   pm_shared.obj
 0001:0003ae9d       _PM_ReduceTimers           1003be9d f   pm_shared.obj
 0001:0003afd1       _PM_PlayerMove             1003bfd1 f   pm_shared.obj
 0001:0003b59f       _PM_CreateStuckTable       1003c59f f   pm_shared.obj
 0001:0003b9b3       _PM_Move                   1003c9b3 f   pm_shared.obj
 0001:0003ba41       _PM_GetVisEntInfo          1003ca41 f   pm_shared.obj
 0001:0003ba76       _PM_GetPhysEntInfo         1003ca76 f   pm_shared.obj
 0001:0003baab       _PM_Init                   1003caab f   pm_shared.obj
 0001:0003bb2f       ?ResetRuler@@YAXXZ         1003cb2f f   ruler.obj
 0001:0003bb9a       ?InitRuler@@YAXXZ          1003cb9a f   ruler.obj
 0001:0003bbef       ?PrintDistance@@YAXXZ      1003cbef f   ruler.obj
 0001:0003bd94       ?AimPos@@YAXXZ             1003cd94 f   ruler.obj
 0001:0003c002       ?PlayerPos@@YAXXZ          1003d002 f   ruler.obj
 0001:0003c021       ?ViewPos@@YAXXZ            1003d021 f   ruler.obj
 0001:0003c154       ?RulerAutoFunc@@YAXN@Z     1003d154 f   ruler.obj
 0001:0003c31c       ?StorePoint@@YAXVVector@@@Z 1003d31c f   ruler.obj
 0001:0003c495       ?DeleteLast@@YAXXZ         1003d495 f   ruler.obj
 0001:0003c502       ?AutostopsaveAddPoint@@YAXXZ 1003d502 f   ruler.obj
 0001:0003c6ca       ?AutostopsaveDeletePoint@@YAXXZ 1003d6ca f   ruler.obj
 0001:0003c733       ?AutostopsaveAutoFunc@@YAXVVector@@@Z 1003d733 f   ruler.obj
 0001:0003c895       ?AutostopsavePrintOrigin@@YAXXZ 1003d895 f   ruler.obj
 0001:0003c955       ?CalcSphereVertices@@YAXPAUcl_sphere@@@Z 1003d955 f   ruler.obj
 0001:0003cb30       ??0plane_t@@QAE@XZ         1003db30 f i ruler.obj
 0001:0003cb30       ??0pmplane_t@@QAE@XZ       1003db30 f i ruler.obj
 0001:0003cb30       ??0WayPoint_t@@QAE@XZ      1003db30 f i ruler.obj
 0001:0003cb30       ??0cl_sphere@@QAE@XZ       1003db30 f i ruler.obj
 0001:0003cb30       ??0cl_rulerPoint@@QAE@XZ   1003db30 f i ruler.obj
 0001:0003cb50       ??0?$vector@MV?$allocator@M@std@@@std@@QAE@ABV?$allocator@M@1@@Z 1003db50 f i ruler.obj
 0001:0003cb90       ??1?$vector@MV?$allocator@M@std@@@std@@QAE@XZ 1003db90 f i ruler.obj
 0001:0003cbf0       ?begin@?$vector@MV?$allocator@M@std@@@std@@QAEPAMXZ 1003dbf0 f i ruler.obj
 0001:0003cbf0       ?begin@?$vector@MV?$allocator@M@std@@@std@@QBEPBMXZ 1003dbf0 f i ruler.obj
 0001:0003cc10       ?resize@?$vector@MV?$allocator@M@std@@@std@@QAEXIABM@Z 1003dc10 f i ruler.obj
 0001:0003cc80       ?size@?$vector@MV?$allocator@M@std@@@std@@QBEIXZ 1003dc80 f i ruler.obj
 0001:0003ccc0       ?insert@?$vector@MV?$allocator@M@std@@@std@@QAEXPAMIABM@Z 1003dcc0 f i ruler.obj
 0001:0003cee0       ?erase@?$vector@MV?$allocator@M@std@@@std@@QAEPAMPAM0@Z 1003dee0 f i ruler.obj
 0001:0003cf30       ?_Destroy@?$vector@MV?$allocator@M@std@@@std@@IAEXPAM0@Z 1003df30 f i ruler.obj
 0001:0003cf60       ?deallocate@?$allocator@M@std@@QAEXPAXI@Z 1003df60 f i ruler.obj
 0001:0003cf80       ?_Ucopy@?$vector@MV?$allocator@M@std@@@std@@IAEPAMPBM0PAM@Z 1003df80 f i ruler.obj
 0001:0003cfc0       ?_Ufill@?$vector@MV?$allocator@M@std@@@std@@IAEXPAMIABM@Z 1003dfc0 f i ruler.obj
 0001:0003d000       ?allocate@?$allocator@M@std@@QAEPAMIPBX@Z 1003e000 f i ruler.obj
 0001:0003d020       ?destroy@?$allocator@M@std@@QAEXPAM@Z 1003e020 f i ruler.obj
 0001:0003d040       ?construct@?$allocator@M@std@@QAEXPAMABM@Z 1003e040 f i ruler.obj
 0001:0003d060       ?fill@std@@YAXPAM0ABM@Z    1003e060 f i ruler.obj
 0001:0003d090       ?copy_backward@std@@YAPAMPAM00@Z 1003e090 f i ruler.obj
 0001:0003d0c0       ?copy@std@@YAPAMPAM00@Z    1003e0c0 f i ruler.obj
 0001:0003d0f0       ?_Allocate@std@@YAPAMHPAM@Z 1003e0f0 f i ruler.obj
 0001:0003d120       ?_Destroy@std@@YAXPAM@Z    1003e120 f i ruler.obj
 0001:0003d130       ?_Construct@std@@YAXPAMABM@Z 1003e130 f i ruler.obj
 0001:0003d170       ??2@YAPAXIPAX@Z            1003e170 f i ruler.obj
 0001:0003d180       ?__MsgFunc_SayText@@YAHPBDHPAX@Z 1003e180 f   saytext.obj
 0001:0003d19b       ?Init@CHudSayText@@UAEHXZ  1003e19b f   saytext.obj
 0001:0003d21c       ?InitHUDData@CHudSayText@@UAEXXZ 1003e21c f   saytext.obj
 0001:0003d25d       ?VidInit@CHudSayText@@UAEHXZ 1003e25d f   saytext.obj
 0001:0003d26d       ?ScrollTextUp@@YAHXZ       1003e26d f   saytext.obj
 0001:0003d2ee       ?Draw@CHudSayText@@UAEHM@Z 1003e2ee f   saytext.obj
 0001:0003d566       ?MsgFunc_SayText@CHudSayText@@QAEHPBDHPAX@Z 1003e566 f   saytext.obj
 0001:0003d5ab       ?SayTextPrint@CHudSayText@@QAEXPBDHH@Z 1003e5ab f   saytext.obj
 0001:0003d79a       ?EnsureTextFitsInOneLineAndWrapIfHaveTo@CHudSayText@@QAEXH@Z 1003e79a f   saytext.obj
 0001:0003da30       ?__MsgFunc_StatusIcon@@YAHPBDHPAX@Z 1003ea30 f   status_icons.obj
 0001:0003da4b       ?Init@CHudStatusIcons@@UAEHXZ 1003ea4b f   status_icons.obj
 0001:0003da87       ?VidInit@CHudStatusIcons@@UAEHXZ 1003ea87 f   status_icons.obj
 0001:0003da97       ?Reset@CHudStatusIcons@@UAEXXZ 1003ea97 f   status_icons.obj
 0001:0003dac7       ?Draw@CHudStatusIcons@@UAEHM@Z 1003eac7 f   status_icons.obj
 0001:0003dbc7       ?MsgFunc_StatusIcon@CHudStatusIcons@@QAEHPBDHPAX@Z 1003ebc7 f   status_icons.obj
 0001:0003dc4e       ?EnableIcon@CHudStatusIcons@@QAEXPADEEE@Z 1003ec4e f   status_icons.obj
 0001:0003dddb       ?DisableIcon@CHudStatusIcons@@QAEXPAD@Z 1003eddb f   status_icons.obj
 0001:0003de40       ?__MsgFunc_StatusText@@YAHPBDHPAX@Z 1003ee40 f   statusbar.obj
 0001:0003de5b       ?__MsgFunc_StatusValue@@YAHPBDHPAX@Z 1003ee5b f   statusbar.obj
 0001:0003de76       ?Init@CHudStatusBar@@UAEHXZ 1003ee76 f   statusbar.obj
 0001:0003ded9       ?VidInit@CHudStatusBar@@UAEHXZ 1003eed9 f   statusbar.obj
 0001:0003dee9       ?Reset@CHudStatusBar@@UAEXXZ 1003eee9 f   statusbar.obj
 0001:0003df81       ?ParseStatusString@CHudStatusBar@@QAEXH@Z 1003ef81 f   statusbar.obj
 0001:0003e3c8       ?Draw@CHudStatusBar@@UAEHM@Z 1003f3c8 f   statusbar.obj
 0001:0003e5e2       ?MsgFunc_StatusText@CHudStatusBar@@QAEHPBDHPAX@Z 1003f5e2 f   statusbar.obj
 0001:0003e688       ?MsgFunc_StatusValue@CHudStatusBar@@QAEHPBDHPAX@Z 1003f688 f   statusbar.obj
 0001:0003e6f0       ?AngleMatrix@@YAXPBMPAY03M@Z 1003f6f0 f   studio_util.obj
 0001:0003e853       ?VectorCompare@@YAHPBM0@Z  1003f853 f   studio_util.obj
 0001:0003e899       ?CrossProduct@@YAXPBM0PAM@Z 1003f899 f   studio_util.obj
 0001:0003e8f9       ?VectorTransform@@YAXPBMQAY03MPAM@Z 1003f8f9 f   studio_util.obj
 0001:0003e995       ?ConcatTransforms@@YAXQAY03M00@Z 1003f995 f   studio_util.obj
 0001:0003ebcc       ?AngleQuaternion@@YAXPAMQAM@Z 1003fbcc f   studio_util.obj
 0001:0003ecd8       ?QuaternionSlerp@@YAXQAM0M0@Z 1003fcd8 f   studio_util.obj
 0001:0003ef64       ?QuaternionMatrix@@YAXQAMPAY03M@Z 1003ff64 f   studio_util.obj
 0001:0003f0b4       ?MatrixCopy@@YAXQAY03M0@Z  100400b4 f   studio_util.obj
 0001:0003f0d0       ?Init@CStudioModelRenderer@@UAEXXZ 100400d0 f   StudioModelRenderer.obj
 0001:0003f17b       ??0CStudioModelRenderer@@QAE@XZ 1004017b f   StudioModelRenderer.obj
 0001:0003f258       ??1CStudioModelRenderer@@UAE@XZ 10040258 f   StudioModelRenderer.obj
 0001:0003f26c       ?StudioCalcBoneAdj@CStudioModelRenderer@@UAEXMPAMPBE1E@Z 1004026c f   StudioModelRenderer.obj
 0001:0003f549       ?StudioCalcBoneQuaterion@CStudioModelRenderer@@UAEXHMPAUmstudiobone_t@@PAUmstudioanim_t@@PAM2@Z 10040549 f   StudioModelRenderer.obj
 0001:0003f8f5       ?StudioCalcBonePosition@CStudioModelRenderer@@UAEXHMPAUmstudiobone_t@@PAUmstudioanim_t@@PAM2@Z 100408f5 f   StudioModelRenderer.obj
 0001:0003fb41       ?StudioSlerpBones@CStudioModelRenderer@@UAEXQAY03MQAY02M01M@Z 10040b41 f   StudioModelRenderer.obj
 0001:0003fca9       ?StudioGetAnim@CStudioModelRenderer@@UAEPAUmstudioanim_t@@PAUmodel_s@@PAUmstudioseqdesc_t@@@Z 10040ca9 f   StudioModelRenderer.obj
 0001:0003fd8d       ?StudioPlayerBlend@CStudioModelRenderer@@UAEXPAUmstudioseqdesc_t@@PAHPAM@Z 10040d8d f   StudioModelRenderer.obj
 0001:0003fe8d       ?StudioSetUpTransform@CStudioModelRenderer@@UAEXH@Z 10040e8d f   StudioModelRenderer.obj
 0001:000403f3       ?StudioEstimateInterpolant@CStudioModelRenderer@@UAEMXZ 100413f3 f   StudioModelRenderer.obj
 0001:0004046c       ?StudioCalcRotations@CStudioModelRenderer@@UAEXQAY02MPAY03MPAUmstudioseqdesc_t@@PAUmstudioanim_t@@M@Z 1004146c f   StudioModelRenderer.obj
 0001:00040706       ?StudioFxTransform@CStudioModelRenderer@@UAEXPAUcl_entity_s@@QAY03M@Z 10041706 f   StudioModelRenderer.obj
 0001:00040875       ?StudioEstimateFrame@CStudioModelRenderer@@UAEMPAUmstudioseqdesc_t@@@Z 10041875 f   StudioModelRenderer.obj
 0001:000409e8       ?StudioSetupBones@CStudioModelRenderer@@UAEXXZ 100419e8 f   StudioModelRenderer.obj
 0001:000412c4       ?StudioSaveBones@CStudioModelRenderer@@UAEXXZ 100422c4 f   StudioModelRenderer.obj
 0001:00041398       ?StudioMergeBones@CStudioModelRenderer@@UAEXPAUmodel_s@@@Z 10042398 f   StudioModelRenderer.obj
 0001:000416f7       ?StudioDrawModel@CStudioModelRenderer@@UAEHH@Z 100426f7 f   StudioModelRenderer.obj
 0001:00041bf4       ?StudioEstimateGait@CStudioModelRenderer@@UAEXPAUentity_state_s@@@Z 10042bf4 f   StudioModelRenderer.obj
 0001:00042059       ?StudioProcessGait@CStudioModelRenderer@@UAEXPAUentity_state_s@@@Z 10043059 f   StudioModelRenderer.obj
 0001:00042556       ?StudioDrawPlayer@CStudioModelRenderer@@UAEHHPAUentity_state_s@@@Z 10043556 f   StudioModelRenderer.obj
 0001:00042cee       ?StudioCalcAttachments@CStudioModelRenderer@@UAEXXZ 10043cee f   StudioModelRenderer.obj
 0001:00042db6       ?StudioRenderModel@CStudioModelRenderer@@UAEXXZ 10043db6 f   StudioModelRenderer.obj
 0001:00042f54       ?StudioRenderFinal_Software@CStudioModelRenderer@@UAEXXZ 10043f54 f   StudioModelRenderer.obj
 0001:00043048       ?StudioRenderFinal_Hardware@CStudioModelRenderer@@UAEXXZ 10044048 f   StudioModelRenderer.obj
 0001:00043179       ?StudioRenderFinal@CStudioModelRenderer@@UAEXXZ 10044179 f   StudioModelRenderer.obj
 0001:000431b0       ??_ECStudioModelRenderer@@UAEPAXI@Z 100441b0 f i StudioModelRenderer.obj
 0001:000431b0       ??_GCStudioModelRenderer@@UAEPAXI@Z 100441b0 f i StudioModelRenderer.obj
 0001:000431e0       ??0alight_s@@QAE@XZ        100441e0 f i StudioModelRenderer.obj
 0001:00043200       ??0cl_entity_s@@QAE@ABU0@@Z 10044200 f i StudioModelRenderer.obj
 0001:00043420       ??0entity_state_s@@QAE@ABU0@@Z 10044420 f i StudioModelRenderer.obj
 0001:00043840       ??0position_history_t@@QAE@ABU0@@Z 10044840 f i StudioModelRenderer.obj
 0001:00043880       ??0latchedvars_t@@QAE@ABU0@@Z 10044880 f i StudioModelRenderer.obj
 0001:00043910       ?__MsgFunc_TextMsg@@YAHPBDHPAX@Z 10044910 f   text_message.obj
 0001:0004392b       ?Init@CHudTextMessage@@UAEHXZ 1004492b f   text_message.obj
 0001:00043967       ?LocaliseTextString@CHudTextMessage@@SAPADPBDPADH@Z 10044967 f   text_message.obj
 0001:00043acc       ?BufferedLocaliseTextString@CHudTextMessage@@SAPADPBD@Z 10044acc f   text_message.obj
 0001:00043aec       ?LookupString@CHudTextMessage@@QAEPADPBDPAH@Z 10044aec f   text_message.obj
 0001:00043b5e       ?StripEndNewlineFromString@@YAXPAD@Z 10044b5e f   text_message.obj
 0001:00043b9d       ?ConvertCRtoNL@@YAPADPAD@Z 10044b9d f   text_message.obj
 0001:00043bd6       ?MsgFunc_TextMsg@CHudTextMessage@@QAEHPBDHPAX@Z 10044bd6 f   text_message.obj
 0001:00043e50       ?CenterPrint@@YAXPBD@Z     10044e50 f i text_message.obj
 0001:00043e70       ?__MsgFunc_Train@@YAHPBDHPAX@Z 10044e70 f   train.obj
 0001:00043e8b       ?Init@CHudTrain@@UAEHXZ    10044e8b f   train.obj
 0001:00043ed0       ?VidInit@CHudTrain@@UAEHXZ 10044ed0 f   train.obj
 0001:00043eea       ?Draw@CHudTrain@@UAEHM@Z   10044eea f   train.obj
 0001:00043fc6       ?MsgFunc_Train@CHudTrain@@QAEHPBDHPAX@Z 10044fc6 f   train.obj
 0001:00044020       ?Draw_Triangles@@YAXXZ     10045020 f   tri.obj
 0001:000441c9       ?DrawCube@@YAXVVector@@M@Z 100451c9 f   tri.obj
 0001:00044754       ?DrawSphere@@YAXV?$vector@MV?$allocator@M@std@@@std@@HH@Z 10045754 f   tri.obj
 0001:00044b59       ?DrawRulerPoints@@YAXXZ    10045b59 f   tri.obj
 0001:00044c69       _HUD_DrawNormalTriangles   10045c69 f   tri.obj
 0001:00044c7d       _HUD_DrawTransparentTriangles 10045c7d f   tri.obj
 0001:00044c90       ??0?$vector@MV?$allocator@M@std@@@std@@QAE@ABV01@@Z 10045c90 f i tri.obj
 0001:00044d00       ??A?$vector@MV?$allocator@M@std@@@std@@QAEAAMI@Z 10045d00 f i tri.obj
 0001:00044d20       ?end@?$vector@MV?$allocator@M@std@@@std@@QAEPAMXZ 10045d20 f i tri.obj
 0001:00044d20       ?end@?$vector@MV?$allocator@M@std@@@std@@QBEPBMXZ 10045d20 f i tri.obj
 0001:00044d5f       ?Length@@YAMPBM@Z          10045d5f f   util.obj
 0001:00044db8       ?VectorAngles@@YAXPBMPAM@Z 10045db8 f   util.obj
 0001:00044ee9       ?VectorNormalize@@YAMPAM@Z 10045ee9 f   util.obj
 0001:00044f77       ?VectorInverse@@YAXPAM@Z   10045f77 f   util.obj
 0001:00044fa4       ?VectorScale@@YAXPBMMPAM@Z 10045fa4 f   util.obj
 0001:00044fd4       ?VectorMA@@YAXPBMM0PAM@Z   10045fd4 f   util.obj
 0001:00045015       ?LoadSprite@@YAHPBD@Z      10046015 f   util.obj
 0001:00045070       ??0CCheckButton2@vgui@@QAE@XZ 10046070 f   vgui_checkbutton2.obj
 0001:0004521e       ??1CCheckButton2@vgui@@QAE@XZ 1004621e f   vgui_checkbutton2.obj
 0001:00045247       ?SetImages@CCheckButton2@vgui@@QAEXPBD0@Z 10046247 f   vgui_checkbutton2.obj
 0001:00045298       ?SetImages@CCheckButton2@vgui@@QAEXPAVImage@2@0@Z 10046298 f   vgui_checkbutton2.obj
 0001:000452d7       ?DeleteImages@CCheckButton2@vgui@@QAEXXZ 100462d7 f   vgui_checkbutton2.obj
 0001:0004534f       ?SetCheckboxLeft@CCheckButton2@vgui@@QAEX_N@Z 1004634f f   vgui_checkbutton2.obj
 0001:00045370       ?GetCheckboxLeft@CCheckButton2@vgui@@QAE_NXZ 10046370 f   vgui_checkbutton2.obj
 0001:00045384       ?SetText@CCheckButton2@vgui@@QAAXPBDZZ 10046384 f   vgui_checkbutton2.obj
 0001:000453ee       ?SetTextColor@CCheckButton2@vgui@@QAEXHHHH@Z 100463ee f   vgui_checkbutton2.obj
 0001:0004542e       ?SetHandler@CCheckButton2@vgui@@QAEXPAVICheckButton2Handler@2@@Z 1004642e f   vgui_checkbutton2.obj
 0001:00045447       ?IsChecked@CCheckButton2@vgui@@QAE_NXZ 10046447 f   vgui_checkbutton2.obj
 0001:0004545b       ?SetChecked@CCheckButton2@vgui@@QAEX_N@Z 1004645b f   vgui_checkbutton2.obj
 0001:0004547c       ?internalMousePressed@CCheckButton2@vgui@@UAEXW4MouseCode@2@@Z 1004647c f   vgui_checkbutton2.obj
 0001:000454d0       ?SetupControls@CCheckButton2@vgui@@IAEXXZ 100464d0 f   vgui_checkbutton2.obj
 0001:00045683       ?mousePressed@CCheckButton2@vgui@@MAEXW4MouseCode@2@PAVPanel@2@@Z 10046683 f   vgui_checkbutton2.obj
 0001:000456b0       ??0CClassMenuPanel@@QAE@HHHHHH@Z 100466b0 f   vgui_ClassMenu.obj
 0001:000469d3       ?Update@CClassMenuPanel@@UAEXXZ 100479d3 f   vgui_ClassMenu.obj
 0001:00046f42       ?SlotInput@CClassMenuPanel@@UAE_NH@Z 10047f42 f   vgui_ClassMenu.obj
 0001:00047009       ?Open@CClassMenuPanel@@UAEXXZ 10048009 f   vgui_ClassMenu.obj
 0001:0004702a       ?Initialize@CClassMenuPanel@@UAEXXZ 1004802a f   vgui_ClassMenu.obj
 0001:00047060       ?SetActiveInfo@CClassMenuPanel@@UAEXH@Z 10048060 f   vgui_ClassMenu.obj
 0001:00047170       ?GetSchemeManager@TeamFortressViewport@@QAEPAVCSchemeManager@@XZ 10048170 f i vgui_ClassMenu.obj
 0001:00047190       ??0CMenuHandler_StringCommandClassSelect@@QAE@PADH@Z 10048190 f i vgui_ClassMenu.obj
 0001:000471c0       ??0CMenuHandler_StringCommand@@QAE@PADH@Z 100481c0 f i vgui_ClassMenu.obj
 0001:00047210       ?actionPerformed@CMenuHandler_StringCommand@@UAEXPAVPanel@vgui@@@Z 10048210 f i vgui_ClassMenu.obj
 0001:00047260       ??0CMenuHandler_TextWindow@@QAE@H@Z 10048260 f i vgui_ClassMenu.obj
 0001:00047290       ?actionPerformed@CMenuHandler_TextWindow@@UAEXPAVPanel@vgui@@@Z 10048290 f i vgui_ClassMenu.obj
 0001:000472d0       ??0CHandler_MenuButtonOver@@QAE@PAVCMenuPanel@@H@Z 100482d0 f i vgui_ClassMenu.obj
 0001:00047310       ?keyFocusTicked@CBrowser_InputSignal@?%C:\Users\YaLTeR\Documents\BunnyMod Pro\cl_dll\vgui_ServerBrowser.cpp176781033@@UAEXPAVPanel@vgui@@@Z 10048310 f i vgui_ClassMenu.obj
 0001:00047310       ?SetToggleState@CBaseEntity@@UAEXH@Z 10048310 f i vgui_ClassMenu.obj
 0001:00047310       ?HandleAnimEvent@CBaseAnimating@@UAEXPAUMonsterEvent_t@@@Z 10048310 f i vgui_ClassMenu.obj
 0001:00047310       ?keyFocusTicked@CViewPortInputHandler@@UAEXPAVPanel@vgui@@@Z 10048310 f i vgui_ClassMenu.obj
 0001:00047310       ?keyFocusTicked@CHandler_ButtonHighlight@@UAEXPAVPanel@vgui@@@Z 10048310 f i vgui_ClassMenu.obj
 0001:00047310       ?StopFollowing@CBaseMonster@@UAEXH@Z 10048310 f i vgui_ClassMenu.obj
 0001:00047310       ?cursorEntered@LabelSortInputHandler@@UAEXPAVPanel@vgui@@@Z 10048310 f i vgui_ClassMenu.obj
 0001:00047310       ?cursorEntered@CDefaultInputSignal@vgui@@UAEXPAVPanel@2@@Z 10048310 f i vgui_ClassMenu.obj
 0001:00047310       ?cursorExited@CHandler_MenuButtonOver@@UAEXPAVPanel@vgui@@@Z 10048310 f i vgui_ClassMenu.obj
 0001:00047310       ?cursorEntered@CBrowser_InputSignal@?%C:\Users\YaLTeR\Documents\BunnyMod Pro\cl_dll\vgui_ServerBrowser.cpp176781033@@UAEXPAVPanel@vgui@@@Z 10048310 f i vgui_ClassMenu.obj
 0001:00047310       ?keyFocusTicked@FooDefaultSliderSignal@?%C:\Users\YaLTeR\Documents\BunnyMod Pro\game_shared\vgui_slider2.cpp770010870@@UAEXPAVPanel@vgui@@@Z 10048310 f i vgui_ClassMenu.obj
 0001:00047310       ?cursorEntered@CViewPortInputHandler@@UAEXPAVPanel@vgui@@@Z 10048310 f i vgui_ClassMenu.obj
 0001:00047310       ?cursorExited@CBrowser_InputSignal@?%C:\Users\YaLTeR\Documents\BunnyMod Pro\cl_dll\vgui_ServerBrowser.cpp176781033@@UAEXPAVPanel@vgui@@@Z 10048310 f i vgui_ClassMenu.obj
 0001:00047310       ?keyFocusTicked@SpectToggleButton@@UAEXPAVPanel@vgui@@@Z 10048310 f i vgui_ClassMenu.obj
 0001:00047310       ?cursorEntered@FooDefaultSliderSignal@?%C:\Users\YaLTeR\Documents\BunnyMod Pro\game_shared\vgui_slider2.cpp770010870@@UAEXPAVPanel@vgui@@@Z 10048310 f i vgui_ClassMenu.obj
 0001:00047310       ?keyFocusTicked@LabelSortInputHandler@@UAEXPAVPanel@vgui@@@Z 10048310 f i vgui_ClassMenu.obj
 0001:00047310       ?cursorExited@LabelSortInputHandler@@UAEXPAVPanel@vgui@@@Z 10048310 f i vgui_ClassMenu.obj
 0001:00047310       ?keyFocusTicked@CDefaultInputSignal@vgui@@UAEXPAVPanel@2@@Z 10048310 f i vgui_ClassMenu.obj
 0001:00047310       ?keyFocusTicked@CHandler_MenuButtonOver@@UAEXPAVPanel@vgui@@@Z 10048310 f i vgui_ClassMenu.obj
 0001:00047310       ?cursorExited@CViewPortInputHandler@@UAEXPAVPanel@vgui@@@Z 10048310 f i vgui_ClassMenu.obj
 0001:00047310       ?DeathNotice@CBaseEntity@@UAEXPAUentvars_s@@@Z 10048310 f i vgui_ClassMenu.obj
 0001:00047310       ?SetActiveInfo@CMenuPanel@@UAEXH@Z 10048310 f i vgui_ClassMenu.obj
 0001:00047310       ?cursorExited@FooDefaultSliderSignal@?%C:\Users\YaLTeR\Documents\BunnyMod Pro\game_shared\vgui_slider2.cpp770010870@@UAEXPAVPanel@vgui@@@Z 10048310 f i vgui_ClassMenu.obj
 0001:00047310       ?keyFocusTicked@ToggleCommandButton@@UAEXPAVPanel@vgui@@@Z 10048310 f i vgui_ClassMenu.obj
 0001:00047310       ?cursorExited@CMenuHandler_PopupSubMenuInput@@UAEXPAVPanel@vgui@@@Z 10048310 f i vgui_ClassMenu.obj
 0001:00047310       ?keyFocusTicked@CMenuHandler_PopupSubMenuInput@@UAEXPAVPanel@vgui@@@Z 10048310 f i vgui_ClassMenu.obj
 0001:00047310       ?cursorExited@CDefaultInputSignal@vgui@@UAEXPAVPanel@2@@Z 10048310 f i vgui_ClassMenu.obj
 0001:00047320       ??0ClassButton@@QAE@HPBDHHHH_N@Z 10048320 f i vgui_ClassMenu.obj
 0001:00047370       ??0CTransparentPanel@@QAE@HHHHH@Z 10048370 f i vgui_ClassMenu.obj
 0001:000473b0       ?paintBackground@CTransparentPanel@@UAEXXZ 100483b0 f i vgui_ClassMenu.obj
 0001:00047410       ??0CMenuPanel@@QAE@HHHHHH@Z 10048410 f i vgui_ClassMenu.obj
 0001:00047460       ?Reset@CMenuPanel@@UAEXXZ  10048460 f i vgui_ClassMenu.obj
 0001:000474a0       ?Open@CMenuPanel@@UAEXXZ   100484a0 f i vgui_ClassMenu.obj
 0001:000474d0       ?Close@CMenuPanel@@UAEXXZ  100484d0 f i vgui_ClassMenu.obj
 0001:00047520       ?SlotInput@CMenuPanel@@UAE_NH@Z 10048520 f i vgui_ClassMenu.obj
 0001:00047530       ?Reset@CClassMenuPanel@@UAEXXZ 10048530 f i vgui_ClassMenu.obj
 0001:00047550       ?GetValidClasses@TeamFortressViewport@@QAEHH@Z 10048550 f i vgui_ClassMenu.obj
 0001:00047570       ??0TextEntry@vgui@@QAE@ABV01@@Z 10048570 f i vgui_ConsolePanel.obj
 0001:000476a0       ??4TextEntry@vgui@@QAEAAV01@ABV01@@Z 100486a0 f i vgui_ConsolePanel.obj
 0001:000477d0       ??0EtchedBorder@vgui@@QAE@ABV01@@Z 100487d0 f i vgui_ConsolePanel.obj
 0001:00047800       ??0LoweredBorder@vgui@@QAE@ABV01@@Z 10048800 f i vgui_ConsolePanel.obj
 0001:00047830       ??4EtchedBorder@vgui@@QAEAAV01@ABV01@@Z 10048830 f i vgui_ConsolePanel.obj
 0001:00047830       ??4LoweredBorder@vgui@@QAEAAV01@ABV01@@Z 10048830 f i vgui_ConsolePanel.obj
 0001:00047850       ??0ConsolePanel@@QAE@HHHH@Z 10048850 f   vgui_ConsolePanel.obj
 0001:00047a88       ?print@ConsolePanel@@UAEHPBD@Z 10048a88 f   vgui_ConsolePanel.obj
 0001:00047abc       ?vprintf@ConsolePanel@@UAEHPBDPAD@Z 10048abc f   vgui_ConsolePanel.obj
 0001:00047aeb       ?printf@ConsolePanel@@UAAHPBDZZ 10048aeb f   vgui_ConsolePanel.obj
 0001:00047b1e       ?doExecCommand@ConsolePanel@@UAEXXZ 10048b1e f   vgui_ConsolePanel.obj
 0001:00047b93       ?setSize@ConsolePanel@@UAEXHH@Z 10048b93 f   vgui_ConsolePanel.obj
 0001:00047c20       ??0Handler@?%C:\Users\YaLTeR\Documents\BunnyMod Pro\cl_dll\vgui_ConsolePanel.cpp44189526@@QAE@PAVConsolePanel@@@Z 10048c20 f i vgui_ConsolePanel.obj
 0001:00047c50       ?actionPerformed@Handler@?%C:\Users\YaLTeR\Documents\BunnyMod Pro\cl_dll\vgui_ConsolePanel.cpp44189526@@UAEXPAVPanel@vgui@@@Z 10048c50 f i vgui_ConsolePanel.obj
 0001:00047c80       ??0DataInputStream@vgui@@QAE@ABV01@@Z 10048c80 f i vgui_ControlConfigPanel.obj
 0001:00047d10       ??4DataInputStream@vgui@@QAEAAV01@ABV01@@Z 10048d10 f i vgui_ControlConfigPanel.obj
 0001:00047d80       ??0ControlConfigPanel@@QAE@HHHH@Z 10048d80 f   vgui_ControlConfigPanel.obj
 0001:000483f9       ?AddCVar@ControlConfigPanel@@QAEXPBD0@Z 100493f9 f   vgui_ControlConfigPanel.obj
 0001:0004843c       ?GetCVarCount@ControlConfigPanel@@QAEHXZ 1004943c f   vgui_ControlConfigPanel.obj
 0001:00048455       ?GetCVar@ControlConfigPanel@@QAEXHPADH0H@Z 10049455 f   vgui_ControlConfigPanel.obj
 0001:000484a8       ?AddCVarFromInputStream@ControlConfigPanel@@QAEXPAVInputStream@vgui@@@Z 100494a8 f   vgui_ControlConfigPanel.obj
 0001:00048548       ?GetCVarBind@ControlConfigPanel@@QAEXPBDPADH1H@Z 10049548 f   vgui_ControlConfigPanel.obj
 0001:0004857f       ?SetCVarBind@ControlConfigPanel@@QAEXPBD00@Z 1004957f f   vgui_ControlConfigPanel.obj
 0001:00048590       ??0FooTablePanel@?%C:\Users\YaLTeR\Documents\BunnyMod Pro\cl_dll\vgui_ControlConfigPanel.cpp251234646@@QAE@PAVControlConfigPanel@@HHHHH@Z 10049590 f i vgui_ControlConfigPanel.obj
 0001:00048700       ?getRowCount@FooTablePanel@?%C:\Users\YaLTeR\Documents\BunnyMod Pro\cl_dll\vgui_ControlConfigPanel.cpp251234646@@UAEHXZ 10049700 f i vgui_ControlConfigPanel.obj
 0001:00048720       ?getCellTall@FooTablePanel@?%C:\Users\YaLTeR\Documents\BunnyMod Pro\cl_dll\vgui_ControlConfigPanel.cpp251234646@@UAEHH@Z 10049720 f i vgui_ControlConfigPanel.obj
 0001:00048740       ?getCellRenderer@FooTablePanel@?%C:\Users\YaLTeR\Documents\BunnyMod Pro\cl_dll\vgui_ControlConfigPanel.cpp251234646@@UAEPAVPanel@vgui@@HH_N00@Z 10049740 f i vgui_ControlConfigPanel.obj
 0001:00048a20       ?startCellEditing@FooTablePanel@?%C:\Users\YaLTeR\Documents\BunnyMod Pro\cl_dll\vgui_ControlConfigPanel.cpp251234646@@UAEPAVPanel@vgui@@HH@Z 10049a20 f i vgui_ControlConfigPanel.obj
 0001:00048a80       ?seekStart@DataInputStream@vgui@@$4PPPPPPPM@A@AEXAA_N@Z 10049a80 f i vgui_ControlConfigPanel.obj
 0001:00048a90       ?seekRelative@DataInputStream@vgui@@$4PPPPPPPM@A@AEXHAA_N@Z 10049a90 f i vgui_ControlConfigPanel.obj
 0001:00048aa0       ?seekEnd@DataInputStream@vgui@@$4PPPPPPPM@A@AEXAA_N@Z 10049aa0 f i vgui_ControlConfigPanel.obj
 0001:00048ab0       ?getAvailable@DataInputStream@vgui@@$4PPPPPPPM@A@AEHAA_N@Z 10049ab0 f i vgui_ControlConfigPanel.obj
 0001:00048ac0       ?readUChar@DataInputStream@vgui@@$4PPPPPPPM@A@AEXPAEHAA_N@Z 10049ac0 f i vgui_ControlConfigPanel.obj
 0001:00048ad0       ?readUChar@DataInputStream@vgui@@$4PPPPPPPM@A@AEEAA_N@Z 10049ad0 f i vgui_ControlConfigPanel.obj
 0001:00048ae0       ?close@DataInputStream@vgui@@$4PPPPPPPM@A@AEXAA_N@Z 10049ae0 f i vgui_ControlConfigPanel.obj
 0001:00048af0       ?GetTGANameForRes@@YAPADPBD@Z 10049af0 f   vgui_CustomObjects.obj
 0001:00048b4e       ?LoadTGAForRes@@YAPAVBitmapTGA@vgui@@PBD@Z 10049b4e f   vgui_CustomObjects.obj
 0001:00048b97       ??0CommandButton@@QAE@PBDHHHH_N@Z 10049b97 f   vgui_CustomObjects.obj
 0001:00048c04       ??0CommandButton@@QAE@HPBDHHHH_N@Z 10049c04 f   vgui_CustomObjects.obj
 0001:00048c70       ??0CommandButton@@QAE@PBDHHHH_N1@Z 10049c70 f   vgui_CustomObjects.obj
 0001:00048cdf       ?Init@CommandButton@@QAEXXZ 10049cdf f   vgui_CustomObjects.obj
 0001:00048db9       ?RecalculateText@CommandButton@@AAEXXZ 10049db9 f   vgui_CustomObjects.obj
 0001:00048e70       ?setText@CommandButton@@UAEXPBD@Z 10049e70 f   vgui_CustomObjects.obj
 0001:00048ea7       ?setBoundKey@CommandButton@@QAEXD@Z 10049ea7 f   vgui_CustomObjects.obj
 0001:00048ec8       ?getBoundKey@CommandButton@@QAEDXZ 10049ec8 f   vgui_CustomObjects.obj
 0001:00048edc       ?AddSubMenu@CommandButton@@QAEXPAVCCommandMenu@@@Z 10049edc f   vgui_CustomObjects.obj
 0001:00048f07       ?UpdateSubMenus@CommandButton@@QAEXH@Z 10049f07 f   vgui_CustomObjects.obj
 0001:00048f32       ?paint@CommandButton@@UAEXXZ 10049f32 f   vgui_CustomObjects.obj
 0001:00048fbf       ?paintBackground@CommandButton@@UAEXXZ 10049fbf f   vgui_CustomObjects.obj
 0001:00049099       ?cursorEntered@CommandButton@@QAEXXZ 1004a099 f   vgui_CustomObjects.obj
 0001:000490f7       ?cursorExited@CommandButton@@QAEXXZ 1004a0f7 f   vgui_CustomObjects.obj
 0001:0004912a       ?getParentMenu@CommandButton@@QAEPAVCCommandMenu@@XZ 1004a12a f   vgui_CustomObjects.obj
 0001:0004913e       ?setParentMenu@CommandButton@@QAEXPAVCCommandMenu@@@Z 1004a13e f   vgui_CustomObjects.obj
 0001:00049157       ?IsNotValid@ClassButton@@UAEHXZ 1004a157 f   vgui_CustomObjects.obj
 0001:0004926a       ??0CImageLabel@@QAE@PBDHH@Z 1004a26a f   vgui_CustomObjects.obj
 0001:000492c9       ??0CImageLabel@@QAE@PBDHHHH@Z 1004a2c9 f   vgui_CustomObjects.obj
 0001:00049330       ?getImageWide@CImageLabel@@UAEHXZ 1004a330 f   vgui_CustomObjects.obj
 0001:00049372       ?getImageTall@CImageLabel@@UAEHXZ 1004a372 f   vgui_CustomObjects.obj
 0001:000493b4       ?LoadImage@CImageLabel@@QAEXPBD@Z 1004a3b4 f   vgui_CustomObjects.obj
 0001:000495e8       ?paintBackground@CCommandMenu@@UAEXXZ 1004a5e8 f   vgui_CustomObjects.obj
 0001:00049647       ??0CTFScrollButton@@QAE@HPBDHHHH@Z 1004a647 f   vgui_CustomObjects.obj
 0001:00049728       ?paint@CTFScrollButton@@UAEXXZ 1004a728 f   vgui_CustomObjects.obj
 0001:000497f3       ?paintBackground@CTFScrollButton@@UAEXXZ 1004a7f3 f   vgui_CustomObjects.obj
 0001:000497fe       ?paintBackground@CTFSlider@@UAEXXZ 1004a7fe f   vgui_CustomObjects.obj
 0001:0004992a       ??0CTFScrollPanel@@QAE@HHHH@Z 1004a92a f   vgui_CustomObjects.obj
 0001:00049c4a       ?cursorEntered@CHandler_MenuButtonOver@@UAEXPAVPanel@vgui@@@Z 1004ac4a f   vgui_CustomObjects.obj
 0001:00049c84       ?actionPerformed@CMenuHandler_StringCommandClassSelect@@UAEXPAVPanel@vgui@@@Z 1004ac84 f   vgui_CustomObjects.obj
 0001:00049d00       ??0CHandler_CommandButtonHighlight@@QAE@PAVCommandButton@@@Z 1004ad00 f i vgui_CustomObjects.obj
 0001:00049d30       ??0CHandler_ButtonHighlight@@QAE@PAVButton@vgui@@@Z 1004ad30 f i vgui_CustomObjects.obj
 0001:00049d60       ?cursorEntered@CHandler_ButtonHighlight@@UAEXPAVPanel@vgui@@@Z 1004ad60 f i vgui_CustomObjects.obj
 0001:00049d90       ?cursorExited@CHandler_ButtonHighlight@@UAEXPAVPanel@vgui@@@Z 1004ad90 f i vgui_CustomObjects.obj
 0001:00049dc0       ?cursorEntered@CHandler_CommandButtonHighlight@@UAEXPAVPanel@vgui@@@Z 1004adc0 f i vgui_CustomObjects.obj
 0001:00049de0       ?cursorExited@CHandler_CommandButtonHighlight@@UAEXPAVPanel@vgui@@@Z 1004ade0 f i vgui_CustomObjects.obj
 0001:00049e00       ?PushUp@CommandLabel@@QAEXXZ 1004ae00 f i vgui_CustomObjects.obj
 0001:00049e30       ?PushDown@CommandLabel@@QAEXXZ 1004ae30 f i vgui_CustomObjects.obj
 0001:00049e60       ?GetParentMenu@CCommandMenu@@QAEPAV1@XZ 1004ae60 f i vgui_CustomObjects.obj
 0001:00049e80       ?GetSubMenu@CommandButton@@QAEPAVCCommandMenu@@XZ 1004ae80 f i vgui_CustomObjects.obj
 0001:00049ea0       ?IsRandomPC@TeamFortressViewport@@QAEHXZ 1004aea0 f i vgui_CustomObjects.obj
 0001:00049ec0       ??0CTFSlider@@QAE@HHHH_N@Z 1004aec0 f i vgui_CustomObjects.obj
 0001:00049f00       ??0CGridEntry@CGrid@vgui@@QAE@XZ 1004af00 f   vgui_grid.obj
 0001:00049f1e       ??1CGridEntry@CGrid@vgui@@QAE@XZ 1004af1e f   vgui_grid.obj
 0001:00049f29       ??0CGrid@vgui@@QAE@XZ      1004af29 f   vgui_grid.obj
 0001:00049f50       ??1CGrid@vgui@@UAE@XZ      1004af50 f   vgui_grid.obj
 0001:00049f6c       ?SetDimensions@CGrid@vgui@@QAE_NHH@Z 1004af6c f   vgui_grid.obj
 0001:0004a0ec       ?Term@CGrid@vgui@@QAEXXZ   1004b0ec f   vgui_grid.obj
 0001:0004a147       ?GetEntry@CGrid@vgui@@QAEPAVPanel@2@HH@Z 1004b147 f   vgui_grid.obj
 0001:0004a166       ?SetEntry@CGrid@vgui@@QAE_NHHPAVPanel@2@@Z 1004b166 f   vgui_grid.obj
 0001:0004a1d4       ?GetXSpacing@CGrid@vgui@@QAEHXZ 1004b1d4 f   vgui_grid.obj
 0001:0004a1e8       ?GetYSpacing@CGrid@vgui@@QAEHXZ 1004b1e8 f   vgui_grid.obj
 0001:0004a1fc       ?SetSpacing@CGrid@vgui@@QAEXHH@Z 1004b1fc f   vgui_grid.obj
 0001:0004a265       ?SetColumnWidth@CGrid@vgui@@QAE_NHH@Z 1004b265 f   vgui_grid.obj
 0001:0004a2b7       ?SetRowHeight@CGrid@vgui@@QAE_NHH@Z 1004b2b7 f   vgui_grid.obj
 0001:0004a309       ?GetColumnWidth@CGrid@vgui@@QAEHH@Z 1004b309 f   vgui_grid.obj
 0001:0004a33d       ?GetRowHeight@CGrid@vgui@@QAEHH@Z 1004b33d f   vgui_grid.obj
 0001:0004a371       ?CalcFitColumnWidth@CGrid@vgui@@QAEHH@Z 1004b371 f   vgui_grid.obj
 0001:0004a402       ?CalcFitRowHeight@CGrid@vgui@@QAEHH@Z 1004b402 f   vgui_grid.obj
 0001:0004a493       ?AutoSetRowHeights@CGrid@vgui@@QAEXXZ 1004b493 f   vgui_grid.obj
 0001:0004a4db       ?GetEntryBox@CGrid@vgui@@QAE_NHHAAH000@Z 1004b4db f   vgui_grid.obj
 0001:0004a566       ?CopyColumnWidths@CGrid@vgui@@QAE_NPAV12@@Z 1004b566 f   vgui_grid.obj
 0001:0004a5eb       ?RepositionContents@CGrid@vgui@@QAEXXZ 1004b5eb f   vgui_grid.obj
 0001:0004a6b8       ?CalcDrawHeight@CGrid@vgui@@QAEHXZ 1004b6b8 f   vgui_grid.obj
 0001:0004a70c       ?paint@CGrid@vgui@@UAEXXZ  1004b70c f   vgui_grid.obj
 0001:0004a80f       ?paintBackground@CGrid@vgui@@UAEXXZ 1004b80f f   vgui_grid.obj
 0001:0004a822       ?SetRowUnderline@CGrid@vgui@@QAEXH_NHHHHH@Z 1004b822 f   vgui_grid.obj
 0001:0004a88c       ?Clear@CGrid@vgui@@IAEXXZ  1004b88c f   vgui_grid.obj
 0001:0004a8ef       ?GridEntry@CGrid@vgui@@IAEPAVCGridEntry@12@HH@Z 1004b8ef f   vgui_grid.obj
 0001:0004a946       ?CalcColOffsets@CGrid@vgui@@IAEXH@Z 1004b946 f   vgui_grid.obj
 0001:0004a9e2       ?CalcRowOffsets@CGrid@vgui@@IAEXH@Z 1004b9e2 f   vgui_grid.obj
 0001:0004aa6c       ?getCellAtPoint@CGrid@vgui@@QAE_NHHAAH0@Z 1004ba6c f   vgui_grid.obj
 0001:0004ab30       ??_ECGrid@vgui@@UAEPAXI@Z  1004bb30 f i vgui_grid.obj
 0001:0004ab30       ??_GCGrid@vgui@@UAEPAXI@Z  1004bb30 f i vgui_grid.obj
 0001:0004ab60       ??_ECGridEntry@CGrid@vgui@@QAEPAXI@Z 1004bb60 f i vgui_grid.obj
 0001:0004abd0       ?AlignPanel@@YAXPAVPanel@vgui@@0H@Z 1004bbd0 f   vgui_helpers.obj
 0001:0004ad20       ??0Layout@vgui@@QAE@ABV01@@Z 1004bd20 f i vgui_int.obj
 0001:0004ad40       ??0BorderLayout@vgui@@QAE@ABV01@@Z 1004bd40 f i vgui_int.obj
 0001:0004ad80       ??0SurfaceBase@vgui@@QAE@ABV01@@Z 1004bd80 f i vgui_int.obj
 0001:0004ae00       ??4SurfaceBase@vgui@@QAEAAV01@ABV01@@Z 1004be00 f i vgui_int.obj
 0001:0004ae70       _VGui_ViewportPaintBackground 1004be70 f   vgui_int.obj
 0001:0004ae82       ?VGui_GetPanel@@YAPAXXZ    1004be82 f   vgui_int.obj
 0001:0004ae8d       _VGui_Startup              1004be8d f   vgui_int.obj
 0001:0004af7b       _VGui_Shutdown             1004bf7b f   vgui_int.obj
 0001:0004afc0       ??_GTeamFortressViewport@@QAEPAXI@Z 1004bfc0 f i vgui_int.obj
 0001:0004aff0       ??1TeamFortressViewport@@QAE@XZ 1004bff0 f i vgui_int.obj
 0001:0004b010       ??0CListBox@vgui@@QAE@XZ   1004c010 f   vgui_listbox.obj
 0001:0004b1bc       ??1CListBox@vgui@@QAE@XZ   1004c1bc f   vgui_listbox.obj
 0001:0004b1d8       ?Init@CListBox@vgui@@QAEXXZ 1004c1d8 f   vgui_listbox.obj
 0001:0004b1eb       ?Term@CListBox@vgui@@QAEXXZ 1004c1eb f   vgui_listbox.obj
 0001:0004b279       ?AddItem@CListBox@vgui@@QAEXPAVPanel@2@@Z 1004c279 f   vgui_listbox.obj
 0001:0004b35a       ?GetNumItems@CListBox@vgui@@QAEHXZ 1004c35a f   vgui_listbox.obj
 0001:0004b3a1       ?GetItemWidth@CListBox@vgui@@QAEHXZ 1004c3a1 f   vgui_listbox.obj
 0001:0004b3ce       ?GetScrollPos@CListBox@vgui@@QAEHXZ 1004c3ce f   vgui_listbox.obj
 0001:0004b3e2       ?SetScrollPos@CListBox@vgui@@QAEXH@Z 1004c3e2 f   vgui_listbox.obj
 0001:0004b443       ?setPos@CListBox@vgui@@UAEXHH@Z 1004c443 f   vgui_listbox.obj
 0001:0004b468       ?setSize@CListBox@vgui@@UAEXHH@Z 1004c468 f   vgui_listbox.obj
 0001:0004b48d       ?setPixelScroll@CListBox@vgui@@UAEXH@Z 1004c48d f   vgui_listbox.obj
 0001:0004b4c3       ?InternalLayout@CListBox@vgui@@IAEXXZ 1004c4c3 f   vgui_listbox.obj
 0001:0004b645       ?paintBackground@CListBox@vgui@@UAEXXZ 1004c645 f   vgui_listbox.obj
 0001:0004b650       ?SetScrollRange@CListBox@vgui@@QAEXH@Z 1004c650 f   vgui_listbox.obj
 0001:0004b68f       ?GetScrollMax@CListBox@vgui@@QAEHXZ 1004c68f f   vgui_listbox.obj
 0001:0004b6c0       ??0ListBoxSignal@CListBox@vgui@@QAE@XZ 1004c6c0 f i vgui_listbox.obj
 0001:0004b6e0       ?intChanged@ListBoxSignal@CListBox@vgui@@UAEXHPAVPanel@3@@Z 1004c6e0 f i vgui_listbox.obj
 0001:0004b710       ?vgui_LoadTGA@@YAPAVBitmapTGA@vgui@@PBD@Z 1004c710 f   vgui_loadtga.obj
 0001:0004b7bf       ?vgui_LoadTGANoInvertAlpha@@YAPAVBitmapTGA@vgui@@PBD@Z 1004c7bf f   vgui_loadtga.obj
 0001:0004b870       ??0MemoryInputStream@@QAE@XZ 1004c870 f i vgui_loadtga.obj
 0001:0004b8b0       ?seekStart@MemoryInputStream@@UAEXAA_N@Z 1004c8b0 f i vgui_loadtga.obj
 0001:0004b8d0       ?seekRelative@MemoryInputStream@@UAEXHAA_N@Z 1004c8d0 f i vgui_loadtga.obj
 0001:0004b900       ?seekEnd@MemoryInputStream@@UAEXAA_N@Z 1004c900 f i vgui_loadtga.obj
 0001:0004b920       ?getAvailable@MemoryInputStream@@UAEHAA_N@Z 1004c920 f i vgui_loadtga.obj
 0001:0004b940       ?readUChar@MemoryInputStream@@UAEEAA_N@Z 1004c940 f i vgui_loadtga.obj
 0001:0004b9a0       ?readUChar@MemoryInputStream@@UAEXPAEHAA_N@Z 1004c9a0 f i vgui_loadtga.obj
 0001:0004b9f0       ?close@MemoryInputStream@@UAEXAA_N@Z 1004c9f0 f i vgui_loadtga.obj
 0001:0004ba20       ??0StackLayout@vgui@@QAE@ABV01@@Z 1004ca20 f i vgui_MOTDWindow.obj
 0001:0004ba60       ??4StackLayout@vgui@@QAEAAV01@ABV01@@Z 1004ca60 f i vgui_MOTDWindow.obj
 0001:0004baa0       ?CMessageWindowPanel_Create@@YAPAVCMenuPanel@@PBD0HHHHHH@Z 1004caa0 f   vgui_MOTDWindow.obj
 0001:0004bb2a       ??0CMessageWindowPanel@@QAE@PBD0HHHHHH@Z 1004cb2a f   vgui_MOTDWindow.obj
 0001:0004c440       ?Scheme_Init@@YAXXZ        1004d440 f   vgui_SchemeManager.obj
 0001:0004c45f       ??0CScheme@CSchemeManager@@QAE@XZ 1004d45f f   vgui_SchemeManager.obj
 0001:0004c4a2       ??1CScheme@CSchemeManager@@QAE@XZ 1004d4a2 f   vgui_SchemeManager.obj
 0001:0004c4cd       ??0CSchemeManager@@QAE@HH@Z 1004d4cd f   vgui_SchemeManager.obj
 0001:0004d29c       ??1CSchemeManager@@UAE@XZ  1004e29c f   vgui_SchemeManager.obj
 0001:0004d2e7       ?getSchemeHandle@CSchemeManager@@QAEHPBD@Z 1004e2e7 f   vgui_SchemeManager.obj
 0001:0004d33b       ?getSafeScheme@CSchemeManager@@AAEPAVCScheme@1@H@Z 1004e33b f   vgui_SchemeManager.obj
 0001:0004d369       ?getFont@CSchemeManager@@QAEPAVFont@vgui@@H@Z 1004e369 f   vgui_SchemeManager.obj
 0001:0004d385       ?getFgColor@CSchemeManager@@QAEXHAAH000@Z 1004e385 f   vgui_SchemeManager.obj
 0001:0004d3d7       ?getBgColor@CSchemeManager@@QAEXHAAH000@Z 1004e3d7 f   vgui_SchemeManager.obj
 0001:0004d429       ?getFgArmedColor@CSchemeManager@@QAEXHAAH000@Z 1004e429 f   vgui_SchemeManager.obj
 0001:0004d47b       ?getBgArmedColor@CSchemeManager@@QAEXHAAH000@Z 1004e47b f   vgui_SchemeManager.obj
 0001:0004d4cd       ?getFgMousedownColor@CSchemeManager@@QAEXHAAH000@Z 1004e4cd f   vgui_SchemeManager.obj
 0001:0004d51f       ?getBgMousedownColor@CSchemeManager@@QAEXHAAH000@Z 1004e51f f   vgui_SchemeManager.obj
 0001:0004d571       ?getBorderColor@CSchemeManager@@QAEXHAAH000@Z 1004e571 f   vgui_SchemeManager.obj
 0001:0004d5d0       ??_GCSchemeManager@@UAEPAXI@Z 1004e5d0 f i vgui_SchemeManager.obj
 0001:0004d5d0       ??_ECSchemeManager@@UAEPAXI@Z 1004e5d0 f i vgui_SchemeManager.obj
 0001:0004d600       ??_ECScheme@CSchemeManager@@QAEPAXI@Z 1004e600 f i vgui_SchemeManager.obj
 0001:0004d670       ?internalMousePressed@HitTestPanel@ScorePanel@@UAEXW4MouseCode@vgui@@@Z 1004e670 f   vgui_ScorePanel.obj
 0001:0004d6c8       ??0ScorePanel@@QAE@HHHH@Z  1004e6c8 f   vgui_ScorePanel.obj
 0001:0004e470       ?Initialize@ScorePanel@@QAEXXZ 1004f470 f   vgui_ScorePanel.obj
 0001:0004e4d7       ?HACK_GetPlayerUniqueID@@YA_NHQAD@Z 1004f4d7 f   vgui_ScorePanel.obj
 0001:0004e4f3       ?Update@ScorePanel@@QAEXXZ 1004f4f3 f   vgui_ScorePanel.obj
 0001:0004e638       ?SortTeams@ScorePanel@@QAEXXZ 1004f638 f   vgui_ScorePanel.obj
 0001:0004ea33       ?SortPlayers@ScorePanel@@QAEXHPAD@Z 1004fa33 f   vgui_ScorePanel.obj
 0001:0004ebf4       ?RebuildTeams@ScorePanel@@QAEXXZ 1004fbf4 f   vgui_ScorePanel.obj
 0001:0004ee05       ?FillGrid@ScorePanel@@QAEXXZ 1004fe05 f   vgui_ScorePanel.obj
 0001:0004faea       ?DeathMsg@ScorePanel@@QAEXHH@Z 10050aea f   vgui_ScorePanel.obj
 0001:0004fb6d       ?Open@ScorePanel@@QAEXXZ   10050b6d f   vgui_ScorePanel.obj
 0001:0004fba4       ?mousePressed@ScorePanel@@UAEXW4MouseCode@vgui@@PAVPanel@3@@Z 10050ba4 f   vgui_ScorePanel.obj
 0001:0004fdaa       ?cursorMoved@ScorePanel@@UAEXHHPAVPanel@vgui@@@Z 10050daa f   vgui_ScorePanel.obj
 0001:0004fe31       ?MouseOverCell@ScorePanel@@QAEXHH@Z 10050e31 f   vgui_ScorePanel.obj
 0001:0004ff01       ?paintBackground@CLabelHeader@@UAEXXZ 10050f01 f   vgui_ScorePanel.obj
 0001:0004ff81       ?paint@CLabelHeader@@UAEXXZ 10050f81 f   vgui_ScorePanel.obj
 0001:000501a7       ?calcAlignment@CLabelHeader@@QAEXHHAAH0@Z 100511a7 f   vgui_ScorePanel.obj
 0001:000502e0       ??0CMenuHandler_StringCommandWatch@@QAE@PADH@Z 100512e0 f i vgui_ScorePanel.obj
 0001:00050310       ?actionPerformed@CMenuHandler_StringCommandWatch@@UAEXPAVPanel@vgui@@@Z 10051310 f i vgui_ScorePanel.obj
 0001:000503c0       ??0CLabelHeader@@QAE@XZ    100513c0 f i vgui_ScorePanel.obj
 0001:000504b0       ??0CTextImage2@@QAE@XZ     100514b0 f i vgui_ScorePanel.obj
 0001:00050590       ?getSize@CTextImage2@@UAEXAAH0@Z 10051590 f i vgui_ScorePanel.obj
 0001:00050620       ?doPaint@CTextImage2@@UAEXPAVPanel@vgui@@@Z 10051620 f i vgui_ScorePanel.obj
 0001:00050660       ?setPos@CTextImage2@@UAEXHH@Z 10051660 f i vgui_ScorePanel.obj
 0001:000506f0       ?setColor@CTextImage2@@UAEXVColor@vgui@@@Z 100516f0 f i vgui_ScorePanel.obj
 0001:00050720       ?setColor2@CTextImage2@@QAEXVColor@vgui@@@Z 10051720 f i vgui_ScorePanel.obj
 0001:00050750       ??1CLabelHeader@@QAE@XZ    10051750 f i vgui_ScorePanel.obj
 0001:000507a0       ?setRow@CLabelHeader@@QAEXH@Z 100517a0 f i vgui_ScorePanel.obj
 0001:000507c0       ?setText@CLabelHeader@@UAEXHPBD@Z 100517c0 f i vgui_ScorePanel.obj
 0001:000508b0       ?GetImage@CTextImage2@@QAEPAVTextImage@vgui@@H@Z 100518b0 f i vgui_ScorePanel.obj
 0001:000508d0       ?setText@CLabelHeader@@UAEXPBD@Z 100518d0 f i vgui_ScorePanel.obj
 0001:00050970       ?getTextSize@CLabelHeader@@UAEXAAH0@Z 10051970 f i vgui_ScorePanel.obj
 0001:000509a0       ?setFgColor@CLabelHeader@@UAEXHHHH@Z 100519a0 f i vgui_ScorePanel.obj
 0001:00050a30       ?setFgColor@CLabelHeader@@UAEXW4SchemeColor@Scheme@vgui@@@Z 10051a30 f i vgui_ScorePanel.obj
 0001:00050a90       ?setFont@CLabelHeader@@UAEXPAVFont@vgui@@@Z 10051a90 f i vgui_ScorePanel.obj
 0001:00050ad0       ??_GCTextImage2@@QAEPAXI@Z 10051ad0 f i vgui_ScorePanel.obj
 0001:00050b00       ??1CTextImage2@@QAE@XZ     10051b00 f i vgui_ScorePanel.obj
 0001:00050b40       ?PanelWidth@@YAHPAVPanel@vgui@@@Z 10051b40 f i vgui_ScorePanel.obj
 0001:00050b70       ??0HitTestPanel@ScorePanel@@QAE@XZ 10051b70 f i vgui_ScorePanel.obj
 0001:00050b90       ?GetTeamName@TeamFortressViewport@@QAEPADH@Z 10051b90 f i vgui_ScorePanel.obj
 0001:00050bb0       ?setText2@CLabelHeader@@QAEXPBD@Z 10051bb0 f i vgui_ScorePanel.obj
 0001:00050bf0       ?setFont2@CLabelHeader@@QAEXPAVFont@vgui@@@Z 10051bf0 f i vgui_ScorePanel.obj
 0001:00050c30       ?setTextOffset@CLabelHeader@@QAEXHH@Z 10051c30 f i vgui_ScorePanel.obj
 0001:00050c60       ?GetScoreBoard@TeamFortressViewport@@QAEPAVScorePanel@@XZ 10051c60 f i vgui_ScorePanel.obj
 0001:00050c80       ??0ServerBrowser@@QAE@HHHH@Z 10051c80 f   vgui_ServerBrowser.obj
 0001:000517e4       ?setSize@ServerBrowser@@UAEXHH@Z 100527e4 f   vgui_ServerBrowser.obj
 0001:000519a2       ?mousePressed@CBrowser_InputSignal@?%C:\Users\YaLTeR\Documents\BunnyMod Pro\cl_dll\vgui_ServerBrowser.cpp176781033@@UAEXW4MouseCode@vgui@@PAVPanel@4@@Z 100529a2 f   vgui_ServerBrowser.obj
 0001:00051a31       ?mouseDoublePressed@CBrowser_InputSignal@?%C:\Users\YaLTeR\Documents\BunnyMod Pro\cl_dll\vgui_ServerBrowser.cpp176781033@@UAEXW4MouseCode@vgui@@PAVPanel@4@@Z 10052a31 f   vgui_ServerBrowser.obj
 0001:00051ad0       ??0CBrowser_InputSignal@?%C:\Users\YaLTeR\Documents\BunnyMod Pro\cl_dll\vgui_ServerBrowser.cpp176781033@@QAE@PAVServerBrowserTablePanel@1@@Z 10052ad0 f i vgui_ServerBrowser.obj
 0001:00051b00       ??0ServerBrowserTablePanel@?%C:\Users\YaLTeR\Documents\BunnyMod Pro\cl_dll\vgui_ServerBrowser.cpp176781033@@QAE@HHHHH@Z 10052b00 f i vgui_ServerBrowser.obj
 0001:00051bc0       ?getRowCount@ServerBrowserTablePanel@?%C:\Users\YaLTeR\Documents\BunnyMod Pro\cl_dll\vgui_ServerBrowser.cpp176781033@@UAEHXZ 10052bc0 f i vgui_ServerBrowser.obj
 0001:00051c40       ?getCellTall@ServerBrowserTablePanel@?%C:\Users\YaLTeR\Documents\BunnyMod Pro\cl_dll\vgui_ServerBrowser.cpp176781033@@UAEHH@Z 10052c40 f i vgui_ServerBrowser.obj
 0001:00051c70       ?getCellRenderer@ServerBrowserTablePanel@?%C:\Users\YaLTeR\Documents\BunnyMod Pro\cl_dll\vgui_ServerBrowser.cpp176781033@@UAEPAVPanel@vgui@@HH_N00@Z 10052c70 f i vgui_ServerBrowser.obj
 0001:00052000       ?startCellEditing@ServerBrowserTablePanel@?%C:\Users\YaLTeR\Documents\BunnyMod Pro\cl_dll\vgui_ServerBrowser.cpp176781033@@UAEPAVPanel@vgui@@HH@Z 10053000 f i vgui_ServerBrowser.obj
 0001:00052010       ??0ConnectHandler@?%C:\Users\YaLTeR\Documents\BunnyMod Pro\cl_dll\vgui_ServerBrowser.cpp176781033@@QAE@PAVServerBrowserTablePanel@1@@Z 10053010 f i vgui_ServerBrowser.obj
 0001:00052040       ?actionPerformed@ConnectHandler@?%C:\Users\YaLTeR\Documents\BunnyMod Pro\cl_dll\vgui_ServerBrowser.cpp176781033@@UAEXPAVPanel@vgui@@@Z 10053040 f i vgui_ServerBrowser.obj
 0001:00052060       ?DoConnect@ServerBrowserTablePanel@?%C:\Users\YaLTeR\Documents\BunnyMod Pro\cl_dll\vgui_ServerBrowser.cpp176781033@@QAEXXZ 10053060 f i vgui_ServerBrowser.obj
 0001:000520e0       ?DoCancel@ServerBrowserTablePanel@?%C:\Users\YaLTeR\Documents\BunnyMod Pro\cl_dll\vgui_ServerBrowser.cpp176781033@@QAEXXZ 100530e0 f i vgui_ServerBrowser.obj
 0001:00052100       ??0RefreshHandler@?%C:\Users\YaLTeR\Documents\BunnyMod Pro\cl_dll\vgui_ServerBrowser.cpp176781033@@QAE@PAVServerBrowserTablePanel@1@@Z 10053100 f i vgui_ServerBrowser.obj
 0001:00052130       ?actionPerformed@RefreshHandler@?%C:\Users\YaLTeR\Documents\BunnyMod Pro\cl_dll\vgui_ServerBrowser.cpp176781033@@UAEXPAVPanel@vgui@@@Z 10053130 f i vgui_ServerBrowser.obj
 0001:00052150       ?DoRefresh@ServerBrowserTablePanel@?%C:\Users\YaLTeR\Documents\BunnyMod Pro\cl_dll\vgui_ServerBrowser.cpp176781033@@QAEXXZ 10053150 f i vgui_ServerBrowser.obj
 0001:00052170       ??0StopHandler@?%C:\Users\YaLTeR\Documents\BunnyMod Pro\cl_dll\vgui_ServerBrowser.cpp176781033@@QAE@PAVServerBrowserTablePanel@1@@Z 10053170 f i vgui_ServerBrowser.obj
 0001:000521a0       ?actionPerformed@StopHandler@?%C:\Users\YaLTeR\Documents\BunnyMod Pro\cl_dll\vgui_ServerBrowser.cpp176781033@@UAEXPAVPanel@vgui@@@Z 100531a0 f i vgui_ServerBrowser.obj
 0001:000521c0       ?DoStop@ServerBrowserTablePanel@?%C:\Users\YaLTeR\Documents\BunnyMod Pro\cl_dll\vgui_ServerBrowser.cpp176781033@@QAEXXZ 100531c0 f i vgui_ServerBrowser.obj
 0001:000521d0       ??0CancelHandler@?%C:\Users\YaLTeR\Documents\BunnyMod Pro\cl_dll\vgui_ServerBrowser.cpp176781033@@QAE@PAVServerBrowserTablePanel@1@@Z 100531d0 f i vgui_ServerBrowser.obj
 0001:00052200       ?actionPerformed@CancelHandler@?%C:\Users\YaLTeR\Documents\BunnyMod Pro\cl_dll\vgui_ServerBrowser.cpp176781033@@UAEXPAVPanel@vgui@@@Z 10053200 f i vgui_ServerBrowser.obj
 0001:00052220       ??0CSBLabel@@QAE@PAD0@Z    10053220 f i vgui_ServerBrowser.obj
 0001:000522f0       ?setTable@CSBLabel@@QAEXPAVServerBrowserTablePanel@?%C:\Users\YaLTeR\Documents\BunnyMod Pro\cl_dll\vgui_ServerBrowser.cpp176781033@@@Z 100532f0 f i vgui_ServerBrowser.obj
 0001:00052390       ??0LabelSortInputHandler@@QAE@PAVServerBrowserTablePanel@?%C:\Users\YaLTeR\Documents\BunnyMod Pro\cl_dll\vgui_ServerBrowser.cpp176781033@@PAD@Z 10053390 f i vgui_ServerBrowser.obj
 0001:000523d0       ?DoSort@ServerBrowserTablePanel@?%C:\Users\YaLTeR\Documents\BunnyMod Pro\cl_dll\vgui_ServerBrowser.cpp176781033@@QAEXPAD@Z 100533d0 f i vgui_ServerBrowser.obj
 0001:000523f0       ?mousePressed@LabelSortInputHandler@@UAEXW4MouseCode@vgui@@PAVPanel@3@@Z 100533f0 f i vgui_ServerBrowser.obj
 0001:000523f0       ?mouseDoublePressed@LabelSortInputHandler@@UAEXW4MouseCode@vgui@@PAVPanel@3@@Z 100533f0 f i vgui_ServerBrowser.obj
 0001:00052410       ?setMouseOverRow@ServerBrowserTablePanel@?%C:\Users\YaLTeR\Documents\BunnyMod Pro\cl_dll\vgui_ServerBrowser.cpp176781033@@QAEXH@Z 10053410 f i vgui_ServerBrowser.obj
 0001:00052430       ??0SpectatorPanel@@QAE@HHHH@Z 10053430 f   vgui_SpectatorPanel.obj
 0001:00052461       ??1SpectatorPanel@@UAE@XZ  10053461 f   vgui_SpectatorPanel.obj
 0001:00052475       ?ActionSignal@SpectatorPanel@@QAEXH@Z 10053475 f   vgui_SpectatorPanel.obj
 0001:00052548       ?Initialize@SpectatorPanel@@QAEXXZ 10053548 f   vgui_SpectatorPanel.obj
 0001:00053c99       ?ShowMenu@SpectatorPanel@@QAEX_N@Z 10054c99 f   vgui_SpectatorPanel.obj
 0001:00053ee6       ?GetSpectatorLabel@@YAPBDH@Z 10054ee6 f   vgui_SpectatorPanel.obj
 0001:00053f54       ?EnableInsetView@SpectatorPanel@@QAEX_N@Z 10054f54 f   vgui_SpectatorPanel.obj
 0001:00054232       ?Update@SpectatorPanel@@QAEXXZ 10055232 f   vgui_SpectatorPanel.obj
 0001:000546c0       ??_GSpectatorPanel@@UAEPAXI@Z 100556c0 f i vgui_SpectatorPanel.obj
 0001:000546c0       ??_ESpectatorPanel@@UAEPAXI@Z 100556c0 f i vgui_SpectatorPanel.obj
 0001:000546f0       ??0ColorButton@@QAE@PBDHHHH_N1@Z 100556f0 f i vgui_SpectatorPanel.obj
 0001:00054770       ?paintBackground@ColorButton@@UAEXXZ 10055770 f i vgui_SpectatorPanel.obj
 0001:00054880       ?paint@ColorButton@@UAEXXZ 10055880 f i vgui_SpectatorPanel.obj
 0001:00054980       ?setArmedColor@ColorButton@@QAEXHHHH@Z 10055980 f i vgui_SpectatorPanel.obj
 0001:00054a10       ?setUnArmedColor@ColorButton@@QAEXHHHH@Z 10055a10 f i vgui_SpectatorPanel.obj
 0001:00054aa0       ?setArmedBorderColor@ColorButton@@QAEXHHHH@Z 10055aa0 f i vgui_SpectatorPanel.obj
 0001:00054b30       ?setUnArmedBorderColor@ColorButton@@QAEXHHHH@Z 10055b30 f i vgui_SpectatorPanel.obj
 0001:00054bc0       ??0CSpectatorHandler_Command@@QAE@PAVSpectatorPanel@@H@Z 10055bc0 f i vgui_SpectatorPanel.obj
 0001:00054c00       ?actionPerformed@CSpectatorHandler_Command@@UAEXPAVPanel@vgui@@@Z 10055c00 f i vgui_SpectatorPanel.obj
 0001:00054c20       ??0Surface@vgui@@QAE@ABV01@@Z 10055c20 f i vgui_TeamFortressViewport.obj
 0001:00054c90       ??4Surface@vgui@@QAEAAV01@ABV01@@Z 10055c90 f i vgui_TeamFortressViewport.obj
 0001:00054cf0       ??1Surface@vgui@@QAE@XZ    10055cf0 f i vgui_TeamFortressViewport.obj
 0001:00054d10       ??0MenuSeparator@vgui@@QAE@ABV01@@Z 10055d10 f i vgui_TeamFortressViewport.obj
 0001:00054d40       ??4MenuSeparator@vgui@@QAEAAV01@ABV01@@Z 10055d40 f i vgui_TeamFortressViewport.obj
 0001:00054d60       ??0BuildGroup@vgui@@QAE@ABV01@@Z 10055d60 f i vgui_TeamFortressViewport.obj
 0001:00054e80       ??4BuildGroup@vgui@@QAEAAV01@ABV01@@Z 10055e80 f i vgui_TeamFortressViewport.obj
 0001:00054fd0       ?GetVGUITGAName@@YAPADPBD@Z 10055fd0 f   vgui_TeamFortressViewport.obj
 0001:0005503b       ?AddButton@CCommandMenu@@QAEXPAVCommandButton@@@Z 1005603b f   vgui_TeamFortressViewport.obj
 0001:000550dc       ?KeyInput@CCommandMenu@@QAE_NH@Z 100560dc f   vgui_TeamFortressViewport.obj
 0001:000551b4       ?ClearButtonsOfArmedState@CCommandMenu@@QAEXXZ 100561b4 f   vgui_TeamFortressViewport.obj
 0001:00055235       ?FindButtonWithSubmenu@CCommandMenu@@QAEPAVCommandButton@@PAV1@@Z 10056235 f   vgui_TeamFortressViewport.obj
 0001:0005528d       ?RecalculateVisibles@CCommandMenu@@QAE_NH_N@Z 1005628d f   vgui_TeamFortressViewport.obj
 0001:00055583       ?RecalculatePositions@CCommandMenu@@QAEXH@Z 10056583 f   vgui_TeamFortressViewport.obj
 0001:000556a2       ?MakeVisible@CCommandMenu@@QAEXPAV1@@Z 100566a2 f   vgui_TeamFortressViewport.obj
 0001:000556da       ?CreateSubMenu@TeamFortressViewport@@QAEPAVCCommandMenu@@PAVCommandButton@@PAV2@HH@Z 100566da f   vgui_TeamFortressViewport.obj
 0001:00055a58       ??2TeamFortressViewport@@SAPAXI@Z 10056a58 f   vgui_TeamFortressViewport.obj
 0001:00055a84       ??0TeamFortressViewport@@QAE@HHHH@Z 10056a84 f   vgui_TeamFortressViewport.obj
 0001:00055fdc       ?Initialize@TeamFortressViewport@@QAEXXZ 10056fdc f   vgui_TeamFortressViewport.obj
 0001:00056185       ?CreateCommandMenu@TeamFortressViewport@@QAEHPADHH_NMMH@Z 10057185 f   vgui_TeamFortressViewport.obj
 0001:00057146       ?CreateDisguiseSubmenu@TeamFortressViewport@@QAEPAVCCommandMenu@@PAVCommandButton@@PAV2@PBDHH@Z 10058146 f   vgui_TeamFortressViewport.obj
 0001:0005735c       ?CreateCustomButton@TeamFortressViewport@@QAEPAVCommandButton@@PAD0H@Z 1005835c f   vgui_TeamFortressViewport.obj
 0001:0005a449       ?ToggleServerBrowser@TeamFortressViewport@@QAEXXZ 1005b449 f   vgui_TeamFortressViewport.obj
 0001:0005a4cc       ?ShowCommandMenu@TeamFortressViewport@@QAEXH@Z 1005b4cc f   vgui_TeamFortressViewport.obj
 0001:0005a5cf       ?InputSignalHideCommandMenu@TeamFortressViewport@@QAEXXZ 1005b5cf f   vgui_TeamFortressViewport.obj
 0001:0005a610       ?HideCommandMenu@TeamFortressViewport@@QAEXXZ 1005b610 f   vgui_TeamFortressViewport.obj
 0001:0005a6d5       ?ShowScoreBoard@TeamFortressViewport@@QAEXXZ 1005b6d5 f   vgui_TeamFortressViewport.obj
 0001:0005a70d       ?IsScoreBoardVisible@TeamFortressViewport@@QAE_NXZ 1005b70d f   vgui_TeamFortressViewport.obj
 0001:0005a73f       ?HideScoreBoard@TeamFortressViewport@@QAEXXZ 1005b73f f   vgui_TeamFortressViewport.obj
 0001:0005a78e       ?InputPlayerSpecial@TeamFortressViewport@@QAEXXZ 1005b78e f   vgui_TeamFortressViewport.obj
 0001:0005a7fa       ?SetCurrentCommandMenu@TeamFortressViewport@@QAEXPAVCCommandMenu@@@Z 1005b7fa f   vgui_TeamFortressViewport.obj
 0001:0005a874       ?UpdateCommandMenu@TeamFortressViewport@@QAEXH@Z 1005b874 f   vgui_TeamFortressViewport.obj
 0001:0005a8ab       ?UpdateSpectatorPanel@TeamFortressViewport@@QAEXXZ 1005b8ab f   vgui_TeamFortressViewport.obj
 0001:0005ad80       ?CreateScoreBoard@TeamFortressViewport@@QAEXXZ 1005bd80 f   vgui_TeamFortressViewport.obj
 0001:0005aec3       ?CreateServerBrowser@TeamFortressViewport@@QAEXXZ 1005bec3 f   vgui_TeamFortressViewport.obj
 0001:0005af7e       ?SetCurrentMenu@TeamFortressViewport@@QAEXPAVCMenuPanel@@@Z 1005bf7e f   vgui_TeamFortressViewport.obj
 0001:0005afcb       ?CreateTextWindow@TeamFortressViewport@@QAEPAVCMenuPanel@@H@Z 1005bfcb f   vgui_TeamFortressViewport.obj
 0001:0005b54b       ?ShowVGUIMenu@TeamFortressViewport@@QAEXH@Z 1005c54b f   vgui_TeamFortressViewport.obj
 0001:0005b761       ?HideVGUIMenu@TeamFortressViewport@@QAEXXZ 1005c761 f   vgui_TeamFortressViewport.obj
 0001:0005b782       ?HideTopMenu@TeamFortressViewport@@QAEXXZ 1005c782 f   vgui_TeamFortressViewport.obj
 0001:0005b7d5       ?AllowedToPrintText@TeamFortressViewport@@QAE_NXZ 1005c7d5 f   vgui_TeamFortressViewport.obj
 0001:0005b826       ?ShowTeamMenu@TeamFortressViewport@@AAEPAVCMenuPanel@@XZ 1005c826 f   vgui_TeamFortressViewport.obj
 0001:0005b864       ?CreateTeamMenu@TeamFortressViewport@@AAEXXZ 1005c864 f   vgui_TeamFortressViewport.obj
 0001:0005b923       ?ShowClassMenu@TeamFortressViewport@@AAEPAVCMenuPanel@@XZ 1005c923 f   vgui_TeamFortressViewport.obj
 0001:0005b961       ?CreateClassMenu@TeamFortressViewport@@AAEXXZ 1005c961 f   vgui_TeamFortressViewport.obj
 0001:0005ba20       ?CreateSpectatorMenu@TeamFortressViewport@@AAEXXZ 1005ca20 f   vgui_TeamFortressViewport.obj
 0001:0005bae9       ?UpdateOnPlayerInfo@TeamFortressViewport@@QAEXXZ 1005cae9 f   vgui_TeamFortressViewport.obj
 0001:0005bb5a       ?UpdateCursorState@TeamFortressViewport@@QAEXXZ 1005cb5a f   vgui_TeamFortressViewport.obj
 0001:0005bce3       ?UpdateHighlights@TeamFortressViewport@@QAEXXZ 1005cce3 f   vgui_TeamFortressViewport.obj
 0001:0005bd0a       ?GetAllPlayersInfo@TeamFortressViewport@@QAEXXZ 1005cd0a f   vgui_TeamFortressViewport.obj
 0001:0005bd6f       ?paintBackground@TeamFortressViewport@@UAEXXZ 1005cd6f f   vgui_TeamFortressViewport.obj
 0001:0005bf27       ?cursorMoved@CDragNDropHandler@@UAEXHHPAVPanel@vgui@@@Z 1005cf27 f   vgui_TeamFortressViewport.obj
 0001:0005bfc9       ?mousePressed@CDragNDropHandler@@UAEXW4MouseCode@vgui@@PAVPanel@3@@Z 1005cfc9 f   vgui_TeamFortressViewport.obj
 0001:0005c071       ?mouseReleased@CDragNDropHandler@@UAEXW4MouseCode@vgui@@PAVPanel@3@@Z 1005d071 f   vgui_TeamFortressViewport.obj
 0001:0005c0b7       ?SlotInput@TeamFortressViewport@@QAE_NH@Z 1005d0b7 f   vgui_TeamFortressViewport.obj
 0001:0005c0f2       ?KeyInput@TeamFortressViewport@@QAEHHHPBD@Z 1005d0f2 f   vgui_TeamFortressViewport.obj
 0001:0005c2c7       ?MsgFunc_ValClass@TeamFortressViewport@@QAEHPBDHPAX@Z 1005d2c7 f   vgui_TeamFortressViewport.obj
 0001:0005c329       ?MsgFunc_TeamNames@TeamFortressViewport@@QAEHPBDHPAX@Z 1005d329 f   vgui_TeamFortressViewport.obj
 0001:0005c460       ?MsgFunc_Feign@TeamFortressViewport@@QAEHPBDHPAX@Z 1005d460 f   vgui_TeamFortressViewport.obj
 0001:0005c4a2       ?MsgFunc_Detpack@TeamFortressViewport@@QAEHPBDHPAX@Z 1005d4a2 f   vgui_TeamFortressViewport.obj
 0001:0005c4e4       ?MsgFunc_VGUIMenu@TeamFortressViewport@@QAEHPBDHPAX@Z 1005d4e4 f   vgui_TeamFortressViewport.obj
 0001:0005c546       ?MsgFunc_MOTD@TeamFortressViewport@@QAEHPBDHPAX@Z 1005d546 f   vgui_TeamFortressViewport.obj
 0001:0005c5fc       ?MsgFunc_BuildSt@TeamFortressViewport@@QAEHPBDHPAX@Z 1005d5fc f   vgui_TeamFortressViewport.obj
 0001:0005c63e       ?MsgFunc_RandomPC@TeamFortressViewport@@QAEHPBDHPAX@Z 1005d63e f   vgui_TeamFortressViewport.obj
 0001:0005c66e       ?MsgFunc_ServerName@TeamFortressViewport@@QAEHPBDHPAX@Z 1005d66e f   vgui_TeamFortressViewport.obj
 0001:0005c6aa       ?MsgFunc_ScoreInfo@TeamFortressViewport@@QAEHPBDHPAX@Z 1005d6aa f   vgui_TeamFortressViewport.obj
 0001:0005c77e       ?MsgFunc_TeamScore@TeamFortressViewport@@QAEHPBDHPAX@Z 1005d77e f   vgui_TeamFortressViewport.obj
 0001:0005c83f       ?MsgFunc_TeamInfo@TeamFortressViewport@@QAEHPBDHPAX@Z 1005d83f f   vgui_TeamFortressViewport.obj
 0001:0005c8bc       ?DeathMsg@TeamFortressViewport@@QAEXHH@Z 1005d8bc f   vgui_TeamFortressViewport.obj
 0001:0005c8df       ?MsgFunc_Spectator@TeamFortressViewport@@QAEHPBDHPAX@Z 1005d8df f   vgui_TeamFortressViewport.obj
 0001:0005c92d       ?MsgFunc_AllowSpec@TeamFortressViewport@@QAEHPBDHPAX@Z 1005d92d f   vgui_TeamFortressViewport.obj
 0001:0005c9a0       ?GetNumButtons@CCommandMenu@@QAEHXZ 1005d9a0 f i vgui_TeamFortressViewport.obj
 0001:0005c9c0       ?GetPlayerClass@CommandButton@@QAEHXZ 1005d9c0 f i vgui_TeamFortressViewport.obj
 0001:0005c9e0       ??0CCommandMenu@@QAE@PAV0@HHHHH@Z 1005d9e0 f i vgui_TeamFortressViewport.obj
 0001:0005ca50       ?GetDirection@CCommandMenu@@QAEHXZ 1005da50 f i vgui_TeamFortressViewport.obj
 0001:0005ca70       ??0CMenuHandler_PopupSubMenuInput@@QAE@PAVButton@vgui@@PAVCCommandMenu@@@Z 1005da70 f i vgui_TeamFortressViewport.obj
 0001:0005cab0       ?cursorEntered@CMenuHandler_PopupSubMenuInput@@UAEXPAVPanel@vgui@@@Z 1005dab0 f i vgui_TeamFortressViewport.obj
 0001:0005caf0       ??0CViewPortInputHandler@@QAE@XZ 1005daf0 f i vgui_TeamFortressViewport.obj
 0001:0005cb10       ?mousePressed@CViewPortInputHandler@@UAEXW4MouseCode@vgui@@PAVPanel@3@@Z 1005db10 f i vgui_TeamFortressViewport.obj
 0001:0005cb40       ?keyPressed@CMenuHandler_PopupSubMenuInput@@UAEXW4KeyCode@vgui@@PAVPanel@3@@Z 1005db40 f i vgui_TeamFortressViewport.obj
 0001:0005cb40       ?keyPressed@CBrowser_InputSignal@?%C:\Users\YaLTeR\Documents\BunnyMod Pro\cl_dll\vgui_ServerBrowser.cpp176781033@@UAEXW4KeyCode@vgui@@PAVPanel@4@@Z 1005db40 f i vgui_TeamFortressViewport.obj
 0001:0005cb40       ?keyPressed@CHandler_MenuButtonOver@@UAEXW4KeyCode@vgui@@PAVPanel@3@@Z 1005db40 f i vgui_TeamFortressViewport.obj
 0001:0005cb40       ?keyReleased@ToggleCommandButton@@UAEXW4KeyCode@vgui@@PAVPanel@3@@Z 1005db40 f i vgui_TeamFortressViewport.obj
 0001:0005cb40       ?AddPointsToTeam@CBaseEntity@@UAEXHH@Z 1005db40 f i vgui_TeamFortressViewport.obj
 0001:0005cb40       ?keyPressed@LabelSortInputHandler@@UAEXW4KeyCode@vgui@@PAVPanel@3@@Z 1005db40 f i vgui_TeamFortressViewport.obj
 0001:0005cb40       ?mouseReleased@CBrowser_InputSignal@?%C:\Users\YaLTeR\Documents\BunnyMod Pro\cl_dll\vgui_ServerBrowser.cpp176781033@@UAEXW4MouseCode@vgui@@PAVPanel@4@@Z 1005db40 f i vgui_TeamFortressViewport.obj
 0001:0005cb40       ?keyReleased@CViewPortInputHandler@@UAEXW4KeyCode@vgui@@PAVPanel@3@@Z 1005db40 f i vgui_TeamFortressViewport.obj
 0001:0005cb40       ?mousePressed@CHandler_MenuButtonOver@@UAEXW4MouseCode@vgui@@PAVPanel@3@@Z 1005db40 f i vgui_TeamFortressViewport.obj
 0001:0005cb40       ?mouseWheeled@ToggleCommandButton@@UAEXHPAVPanel@vgui@@@Z 1005db40 f i vgui_TeamFortressViewport.obj
 0001:0005cb40       ?mouseDoublePressed@CMenuHandler_PopupSubMenuInput@@UAEXW4MouseCode@vgui@@PAVPanel@3@@Z 1005db40 f i vgui_TeamFortressViewport.obj
 0001:0005cb40       ?mouseDoublePressed@CHandler_MenuButtonOver@@UAEXW4MouseCode@vgui@@PAVPanel@3@@Z 1005db40 f i vgui_TeamFortressViewport.obj
 0001:0005cb40       ?mousePressed@CHandler_ButtonHighlight@@UAEXW4MouseCode@vgui@@PAVPanel@3@@Z 1005db40 f i vgui_TeamFortressViewport.obj
 0001:0005cb40       ?keyPressed@SpectToggleButton@@UAEXW4KeyCode@vgui@@PAVPanel@3@@Z 1005db40 f i vgui_TeamFortressViewport.obj
 0001:0005cb40       ?mouseWheeled@CHandler_MenuButtonOver@@UAEXHPAVPanel@vgui@@@Z 1005db40 f i vgui_TeamFortressViewport.obj
 0001:0005cb40       ?mouseDoublePressed@CHandler_ButtonHighlight@@UAEXW4MouseCode@vgui@@PAVPanel@3@@Z 1005db40 f i vgui_TeamFortressViewport.obj
 0001:0005cb40       ?mouseDoublePressed@ToggleCommandButton@@UAEXW4MouseCode@vgui@@PAVPanel@3@@Z 1005db40 f i vgui_TeamFortressViewport.obj
 0001:0005cb40       ?keyReleased@CHandler_MenuButtonOver@@UAEXW4KeyCode@vgui@@PAVPanel@3@@Z 1005db40 f i vgui_TeamFortressViewport.obj
 0001:0005cb40       ?keyReleased@CDefaultInputSignal@vgui@@UAEXW4KeyCode@2@PAVPanel@2@@Z 1005db40 f i vgui_TeamFortressViewport.obj
 0001:0005cb40       ?keyReleased@LabelSortInputHandler@@UAEXW4KeyCode@vgui@@PAVPanel@3@@Z 1005db40 f i vgui_TeamFortressViewport.obj
 0001:0005cb40       ?keyPressed@CViewPortInputHandler@@UAEXW4KeyCode@vgui@@PAVPanel@3@@Z 1005db40 f i vgui_TeamFortressViewport.obj
 0001:0005cb40       ?mouseDoublePressed@CDefaultInputSignal@vgui@@UAEXW4MouseCode@2@PAVPanel@2@@Z 1005db40 f i vgui_TeamFortressViewport.obj
 0001:0005cb40       ?keyTyped@ToggleCommandButton@@UAEXW4KeyCode@vgui@@PAVPanel@3@@Z 1005db40 f i vgui_TeamFortressViewport.obj
 0001:0005cb40       ?keyTyped@CHandler_ButtonHighlight@@UAEXW4KeyCode@vgui@@PAVPanel@3@@Z 1005db40 f i vgui_TeamFortressViewport.obj
 0001:0005cb40       ?keyReleased@CBrowser_InputSignal@?%C:\Users\YaLTeR\Documents\BunnyMod Pro\cl_dll\vgui_ServerBrowser.cpp176781033@@UAEXW4KeyCode@vgui@@PAVPanel@4@@Z 1005db40 f i vgui_TeamFortressViewport.obj
 0001:0005cb40       ?mouseWheeled@CHandler_ButtonHighlight@@UAEXHPAVPanel@vgui@@@Z 1005db40 f i vgui_TeamFortressViewport.obj
 0001:0005cb40       ?mouseWheeled@SpectToggleButton@@UAEXHPAVPanel@vgui@@@Z 1005db40 f i vgui_TeamFortressViewport.obj
 0001:0005cb40       ?mouseWheeled@CViewPortInputHandler@@UAEXHPAVPanel@vgui@@@Z 1005db40 f i vgui_TeamFortressViewport.obj
 0001:0005cb40       ?keyPressed@CDefaultInputSignal@vgui@@UAEXW4KeyCode@2@PAVPanel@2@@Z 1005db40 f i vgui_TeamFortressViewport.obj
 0001:0005cb40       ?mouseWheeled@CMenuHandler_PopupSubMenuInput@@UAEXHPAVPanel@vgui@@@Z 1005db40 f i vgui_TeamFortressViewport.obj
 0001:0005cb40       ?mousePressed@CMenuHandler_PopupSubMenuInput@@UAEXW4MouseCode@vgui@@PAVPanel@3@@Z 1005db40 f i vgui_TeamFortressViewport.obj
 0001:0005cb40       ?mouseWheeled@LabelSortInputHandler@@UAEXHPAVPanel@vgui@@@Z 1005db40 f i vgui_TeamFortressViewport.obj
 0001:0005cb40       ?keyTyped@CBrowser_InputSignal@?%C:\Users\YaLTeR\Documents\BunnyMod Pro\cl_dll\vgui_ServerBrowser.cpp176781033@@UAEXW4KeyCode@vgui@@PAVPanel@4@@Z 1005db40 f i vgui_TeamFortressViewport.obj
 0001:0005cb40       ?mouseWheeled@CBrowser_InputSignal@?%C:\Users\YaLTeR\Documents\BunnyMod Pro\cl_dll\vgui_ServerBrowser.cpp176781033@@UAEXHPAVPanel@vgui@@@Z 1005db40 f i vgui_TeamFortressViewport.obj
 0001:0005cb40       ?keyPressed@ToggleCommandButton@@UAEXW4KeyCode@vgui@@PAVPanel@3@@Z 1005db40 f i vgui_TeamFortressViewport.obj
 0001:0005cb40       ?mousePressed@CDefaultInputSignal@vgui@@UAEXW4MouseCode@2@PAVPanel@2@@Z 1005db40 f i vgui_TeamFortressViewport.obj
 0001:0005cb40       ?keyReleased@FooDefaultSliderSignal@?%C:\Users\YaLTeR\Documents\BunnyMod Pro\game_shared\vgui_slider2.cpp770010870@@UAEXW4KeyCode@vgui@@PAVPanel@4@@Z 1005db40 f i vgui_TeamFortressViewport.obj
 0001:0005cb40       ?keyPressed@FooDefaultSliderSignal@?%C:\Users\YaLTeR\Documents\BunnyMod Pro\game_shared\vgui_slider2.cpp770010870@@UAEXW4KeyCode@vgui@@PAVPanel@4@@Z 1005db40 f i vgui_TeamFortressViewport.obj
 0001:0005cb40       ?keyPressed@CHandler_ButtonHighlight@@UAEXW4KeyCode@vgui@@PAVPanel@3@@Z 1005db40 f i vgui_TeamFortressViewport.obj
 0001:0005cb40       ?mouseReleased@CMenuHandler_PopupSubMenuInput@@UAEXW4MouseCode@vgui@@PAVPanel@3@@Z 1005db40 f i vgui_TeamFortressViewport.obj
 0001:0005cb40       ?mouseReleased@LabelSortInputHandler@@UAEXW4MouseCode@vgui@@PAVPanel@3@@Z 1005db40 f i vgui_TeamFortressViewport.obj
 0001:0005cb40       ?AddPoints@CBaseEntity@@UAEXHH@Z 1005db40 f i vgui_TeamFortressViewport.obj
 0001:0005cb40       ?mouseReleased@CHandler_MenuButtonOver@@UAEXW4MouseCode@vgui@@PAVPanel@3@@Z 1005db40 f i vgui_TeamFortressViewport.obj
 0001:0005cb40       ?keyTyped@CHandler_MenuButtonOver@@UAEXW4KeyCode@vgui@@PAVPanel@3@@Z 1005db40 f i vgui_TeamFortressViewport.obj
 0001:0005cb40       ?mouseWheeled@FooDefaultSliderSignal@?%C:\Users\YaLTeR\Documents\BunnyMod Pro\game_shared\vgui_slider2.cpp770010870@@UAEXHPAVPanel@vgui@@@Z 1005db40 f i vgui_TeamFortressViewport.obj
 0001:0005cb40       ?keyTyped@LabelSortInputHandler@@UAEXW4KeyCode@vgui@@PAVPanel@3@@Z 1005db40 f i vgui_TeamFortressViewport.obj
 0001:0005cb40       ?mouseDoublePressed@SpectToggleButton@@UAEXW4MouseCode@vgui@@PAVPanel@3@@Z 1005db40 f i vgui_TeamFortressViewport.obj
 0001:0005cb40       ?mouseReleased@ToggleCommandButton@@UAEXW4MouseCode@vgui@@PAVPanel@3@@Z 1005db40 f i vgui_TeamFortressViewport.obj
 0001:0005cb40       ?keyTyped@CViewPortInputHandler@@UAEXW4KeyCode@vgui@@PAVPanel@3@@Z 1005db40 f i vgui_TeamFortressViewport.obj
 0001:0005cb40       ?keyTyped@SpectToggleButton@@UAEXW4KeyCode@vgui@@PAVPanel@3@@Z 1005db40 f i vgui_TeamFortressViewport.obj
 0001:0005cb40       ?keyTyped@FooDefaultSliderSignal@?%C:\Users\YaLTeR\Documents\BunnyMod Pro\game_shared\vgui_slider2.cpp770010870@@UAEXW4KeyCode@vgui@@PAVPanel@4@@Z 1005db40 f i vgui_TeamFortressViewport.obj
 0001:0005cb40       ?keyReleased@CHandler_ButtonHighlight@@UAEXW4KeyCode@vgui@@PAVPanel@3@@Z 1005db40 f i vgui_TeamFortressViewport.obj
 0001:0005cb40       ?keyTyped@CDefaultInputSignal@vgui@@UAEXW4KeyCode@2@PAVPanel@2@@Z 1005db40 f i vgui_TeamFortressViewport.obj
 0001:0005cb40       ?mouseReleased@CViewPortInputHandler@@UAEXW4MouseCode@vgui@@PAVPanel@3@@Z 1005db40 f i vgui_TeamFortressViewport.obj
 0001:0005cb40       ?keyTyped@CMenuHandler_PopupSubMenuInput@@UAEXW4KeyCode@vgui@@PAVPanel@3@@Z 1005db40 f i vgui_TeamFortressViewport.obj
 0001:0005cb40       ?keyReleased@CMenuHandler_PopupSubMenuInput@@UAEXW4KeyCode@vgui@@PAVPanel@3@@Z 1005db40 f i vgui_TeamFortressViewport.obj
 0001:0005cb40       ?mouseDoublePressed@CViewPortInputHandler@@UAEXW4MouseCode@vgui@@PAVPanel@3@@Z 1005db40 f i vgui_TeamFortressViewport.obj
 0001:0005cb40       ?mouseReleased@CHandler_ButtonHighlight@@UAEXW4MouseCode@vgui@@PAVPanel@3@@Z 1005db40 f i vgui_TeamFortressViewport.obj
 0001:0005cb40       ?mouseDoublePressed@FooDefaultSliderSignal@?%C:\Users\YaLTeR\Documents\BunnyMod Pro\game_shared\vgui_slider2.cpp770010870@@UAEXW4MouseCode@vgui@@PAVPanel@4@@Z 1005db40 f i vgui_TeamFortressViewport.obj
 0001:0005cb40       ?keyReleased@SpectToggleButton@@UAEXW4KeyCode@vgui@@PAVPanel@3@@Z 1005db40 f i vgui_TeamFortressViewport.obj
 0001:0005cb40       ?mouseReleased@SpectToggleButton@@UAEXW4MouseCode@vgui@@PAVPanel@3@@Z 1005db40 f i vgui_TeamFortressViewport.obj
 0001:0005cb40       ?mouseReleased@CDefaultInputSignal@vgui@@UAEXW4MouseCode@2@PAVPanel@2@@Z 1005db40 f i vgui_TeamFortressViewport.obj
 0001:0005cb40       ?mouseWheeled@CDefaultInputSignal@vgui@@UAEXHPAVPanel@2@@Z 1005db40 f i vgui_TeamFortressViewport.obj
 0001:0005cb50       ??0SpectButton@@QAE@HPBDHHHH@Z 1005db50 f i vgui_TeamFortressViewport.obj
 0001:0005cba0       ??0CMenuHandler_StringCommand@@QAE@PAD@Z 1005dba0 f i vgui_TeamFortressViewport.obj
 0001:0005cbf0       ??0CMenuHandler_ToggleCvar@@QAE@PAD@Z 1005dbf0 f i vgui_TeamFortressViewport.obj
 0001:0005cc30       ?actionPerformed@CMenuHandler_ToggleCvar@@UAEXPAVPanel@vgui@@@Z 1005dc30 f i vgui_TeamFortressViewport.obj
 0001:0005cc80       ??0MapButton@@QAE@PBD0HHHH@Z 1005dc80 f i vgui_TeamFortressViewport.obj
 0001:0005cce0       ?IsNotValid@MapButton@@UAEHXZ 1005dce0 f i vgui_TeamFortressViewport.obj
 0001:0005cd30       ??0TeamOnlyCommandButton@@QAE@HPBDHHHH_N@Z 1005dd30 f i vgui_TeamFortressViewport.obj
 0001:0005cd80       ?IsNotValid@TeamOnlyCommandButton@@UAEHXZ 1005dd80 f i vgui_TeamFortressViewport.obj
 0001:0005cdb0       ?paintBackground@TeamOnlyCommandButton@@UAEXXZ 1005ddb0 f i vgui_TeamFortressViewport.obj
 0001:0005cdb0       ?paintBackground@SpectButton@@UAEXXZ 1005ddb0 f i vgui_TeamFortressViewport.obj
 0001:0005cdb0       ?paintBackground@SpectToggleButton@@UAEXXZ 1005ddb0 f i vgui_TeamFortressViewport.obj
 0001:0005ce20       ?paint@TeamOnlyCommandButton@@UAEXXZ 1005de20 f i vgui_TeamFortressViewport.obj
 0001:0005ce20       ?paint@SpectButton@@UAEXXZ 1005de20 f i vgui_TeamFortressViewport.obj
 0001:0005ce90       ??0ToggleCommandButton@@QAE@PBD0HHHH_N@Z 1005de90 f i vgui_TeamFortressViewport.obj
 0001:0005d120       ?cursorEntered@SpectToggleButton@@UAEXPAVPanel@vgui@@@Z 1005e120 f i vgui_TeamFortressViewport.obj
 0001:0005d120       ?cursorEntered@ToggleCommandButton@@UAEXPAVPanel@vgui@@@Z 1005e120 f i vgui_TeamFortressViewport.obj
 0001:0005d140       ?cursorExited@ToggleCommandButton@@UAEXPAVPanel@vgui@@@Z 1005e140 f i vgui_TeamFortressViewport.obj
 0001:0005d140       ?cursorExited@SpectToggleButton@@UAEXPAVPanel@vgui@@@Z 1005e140 f i vgui_TeamFortressViewport.obj
 0001:0005d160       ?cursorMoved@ToggleCommandButton@@UAEXHHPAVPanel@vgui@@@Z 1005e160 f i vgui_TeamFortressViewport.obj
 0001:0005d160       ?cursorMoved@SpectToggleButton@@UAEXHHPAVPanel@vgui@@@Z 1005e160 f i vgui_TeamFortressViewport.obj
 0001:0005d160       ?cursorMoved@CBrowser_InputSignal@?%C:\Users\YaLTeR\Documents\BunnyMod Pro\cl_dll\vgui_ServerBrowser.cpp176781033@@UAEXHHPAVPanel@vgui@@@Z 1005e160 f i vgui_TeamFortressViewport.obj
 0001:0005d160       ?cursorMoved@CMenuHandler_PopupSubMenuInput@@UAEXHHPAVPanel@vgui@@@Z 1005e160 f i vgui_TeamFortressViewport.obj
 0001:0005d160       ?cursorMoved@CHandler_MenuButtonOver@@UAEXHHPAVPanel@vgui@@@Z 1005e160 f i vgui_TeamFortressViewport.obj
 0001:0005d160       ?cursorMoved@CViewPortInputHandler@@UAEXHHPAVPanel@vgui@@@Z 1005e160 f i vgui_TeamFortressViewport.obj
 0001:0005d160       ?cursorMoved@LabelSortInputHandler@@UAEXHHPAVPanel@vgui@@@Z 1005e160 f i vgui_TeamFortressViewport.obj
 0001:0005d160       ?cursorMoved@CDefaultInputSignal@vgui@@UAEXHHPAVPanel@2@@Z 1005e160 f i vgui_TeamFortressViewport.obj
 0001:0005d160       ?cursorMoved@CHandler_ButtonHighlight@@UAEXHHPAVPanel@vgui@@@Z 1005e160 f i vgui_TeamFortressViewport.obj
 0001:0005d170       ?paint@ToggleCommandButton@@UAEXXZ 1005e170 f i vgui_TeamFortressViewport.obj
 0001:0005d250       ??0SpectToggleButton@@QAE@PBD0HHHH_N@Z 1005e250 f i vgui_TeamFortressViewport.obj
 0001:0005d3d0       ?mousePressed@ToggleCommandButton@@UAEXW4MouseCode@vgui@@PAVPanel@3@@Z 1005e3d0 f i vgui_TeamFortressViewport.obj
 0001:0005d3d0       ?mousePressed@SpectToggleButton@@UAEXW4MouseCode@vgui@@PAVPanel@3@@Z 1005e3d0 f i vgui_TeamFortressViewport.obj
 0001:0005d400       ?paint@SpectToggleButton@@UAEXXZ 1005e400 f i vgui_TeamFortressViewport.obj
 0001:0005d4e0       ??0CMenuHandler_StringCommandWatch@@QAE@PAD@Z 1005e4e0 f i vgui_TeamFortressViewport.obj
 0001:0005d510       ??0CMenuHandler_StringCommandClassSelect@@QAE@PAD@Z 1005e510 f i vgui_TeamFortressViewport.obj
 0001:0005d540       ??0TeamButton@@QAE@HPBDHHHH@Z 1005e540 f i vgui_TeamFortressViewport.obj
 0001:0005d590       ?IsNotValid@TeamButton@@UAEHXZ 1005e590 f i vgui_TeamFortressViewport.obj
 0001:0005d5f0       ?GetNumberOfTeams@TeamFortressViewport@@QAEHXZ 1005e5f0 f i vgui_TeamFortressViewport.obj
 0001:0005d610       ??0FeignButton@@QAE@HPBDHHHH@Z 1005e610 f i vgui_TeamFortressViewport.obj
 0001:0005d660       ?IsNotValid@FeignButton@@UAEHXZ 1005e660 f i vgui_TeamFortressViewport.obj
 0001:0005d6a0       ?GetIsFeigning@TeamFortressViewport@@QAEHXZ 1005e6a0 f i vgui_TeamFortressViewport.obj
 0001:0005d6c0       ??0SpectateButton@@QAE@PBDHHHH_N@Z 1005e6c0 f i vgui_TeamFortressViewport.obj
 0001:0005d700       ?IsNotValid@SpectateButton@@UAEHXZ 1005e700 f i vgui_TeamFortressViewport.obj
 0001:0005d730       ?GetAllowSpectators@TeamFortressViewport@@QAEHXZ 1005e730 f i vgui_TeamFortressViewport.obj
 0001:0005d750       ??0DisguiseButton@@QAE@HPBDHHHH@Z 1005e750 f i vgui_TeamFortressViewport.obj
 0001:0005d7a0       ?IsNotValid@DisguiseButton@@UAEHXZ 1005e7a0 f i vgui_TeamFortressViewport.obj
 0001:0005d800       ??0DetpackButton@@QAE@HPBDHHHH@Z 1005e800 f i vgui_TeamFortressViewport.obj
 0001:0005d850       ?IsNotValid@DetpackButton@@UAEHXZ 1005e850 f i vgui_TeamFortressViewport.obj
 0001:0005d890       ?GetIsSettingDetpack@TeamFortressViewport@@QAEHXZ 1005e890 f i vgui_TeamFortressViewport.obj
 0001:0005d8b0       ??0BuildButton@@QAE@HHPBDHHHH@Z 1005e8b0 f i vgui_TeamFortressViewport.obj
 0001:0005d900       ?IsNotValid@BuildButton@@UAEHXZ 1005e900 f i vgui_TeamFortressViewport.obj
 0001:0005da60       ?GetBuildState@TeamFortressViewport@@QAEHXZ 1005ea60 f i vgui_TeamFortressViewport.obj
 0001:0005da80       ?SetNextMenu@CMenuPanel@@QAEXPAV1@@Z 1005ea80 f i vgui_TeamFortressViewport.obj
 0001:0005dac0       ?SetMenuID@CMenuPanel@@QAEXH@Z 1005eac0 f i vgui_TeamFortressViewport.obj
 0001:0005dae0       ?SetActive@CMenuPanel@@QAEXH@Z 1005eae0 f i vgui_TeamFortressViewport.obj
 0001:0005db00       ?GetXOffset@CCommandMenu@@QAEHXZ 1005eb00 f i vgui_TeamFortressViewport.obj
 0001:0005db00       ?GetNextMenu@CMenuPanel@@QAEPAV1@XZ 1005eb00 f i vgui_TeamFortressViewport.obj
 0001:0005db20       ?GetYOffset@CCommandMenu@@QAEHXZ 1005eb20 f i vgui_TeamFortressViewport.obj
 0001:0005db20       ?GetMenuID@CMenuPanel@@QAEHXZ 1005eb20 f i vgui_TeamFortressViewport.obj
 0001:0005db40       ??0CTeamMenuPanel@@QAE@HHHHHH@Z 1005eb40 f   vgui_teammenu.obj
 0001:0005ed10       ?Initialize@CTeamMenuPanel@@UAEXXZ 1005fd10 f   vgui_teammenu.obj
 0001:0005ed50       ?Update@CTeamMenuPanel@@UAEXXZ 1005fd50 f   vgui_teammenu.obj
 0001:0005f5c5       ?SlotInput@CTeamMenuPanel@@UAE_NH@Z 100605c5 f   vgui_teammenu.obj
 0001:0005f69b       ?Open@CTeamMenuPanel@@UAEXXZ 1006069b f   vgui_teammenu.obj
 0001:0005f6bc       ?paintBackground@CTeamMenuPanel@@UAEXXZ 100606bc f   vgui_teammenu.obj
 0001:0005f6ec       ?SetActiveInfo@CTeamMenuPanel@@UAEXH@Z 100606ec f   vgui_teammenu.obj
 0001:0005f810       ?Reset@CTeamMenuPanel@@UAEXXZ 10060810 f i vgui_teammenu.obj
 0001:0005f8a9       ?CalcAccel@@YAXPAUref_params_s@@@Z 100608a9 f   view.obj
 0001:0005fcaf       ?V_CalcBob@@YAMPAUref_params_s@@@Z 10060caf f   view.obj
 0001:0005feb7       ?V_CalcRoll@@YAMVVector@@0MM@Z 10060eb7 f   view.obj
 0001:0005ffd7       ?V_StartPitchDrift@@YAXXZ  10060fd7 f   view.obj
 0001:0006002f       ?V_StopPitchDrift@@YAXXZ   1006102f f   view.obj
 0001:00060054       ?V_DriftPitch@@YAXPAUref_params_s@@@Z 10061054 f   view.obj
 0001:00060220       ?V_CalcGunAngle@@YAXPAUref_params_s@@@Z 10061220 f   view.obj
 0001:00060461       ?V_AddIdle@@YAXPAUref_params_s@@@Z 10061461 f   view.obj
 0001:00060525       ?V_CalcViewRoll@@YAXPAUref_params_s@@@Z 10061525 f   view.obj
 0001:000605d1       ?V_CalcIntermissionRefdef@@YAXPAUref_params_s@@@Z 100615d1 f   view.obj
 0001:000607a1       ?V_CalcNormalRefdef@@YAXPAUref_params_s@@@Z 100617a1 f   view.obj
 0001:00061d3a       ?V_SmoothInterpolateAngles@@YAXPAM00M@Z 10062d3a f   view.obj
 0001:00061ec6       ?V_GetChaseOrigin@@YAXPAM0M0@Z 10062ec6 f   view.obj
 0001:000620eb       ?V_GetSingleTargetCam@@YAXPAUcl_entity_s@@PAM1@Z 100630eb f   view.obj
 0001:000622fb       ?MaxAngleBetweenAngles@@YAMPAM0@Z 100632fb f   view.obj
 0001:000623d6       ?V_GetDoubleTargetsCam@@YAXPAUcl_entity_s@@0PAM1@Z 100633d6 f   view.obj
 0001:00062711       ?V_GetDirectedChasePosition@@YAXPAUcl_entity_s@@0PAM1@Z 10063711 f   view.obj
 0001:000628b5       ?V_GetChasePos@@YAXHPAM00@Z 100638b5 f   view.obj
 0001:00062a83       ?V_ResetChaseCam@@YAXXZ    10063a83 f   view.obj
 0001:00062a92       ?V_GetInEyePos@@YAXHPAM0@Z 10063a92 f   view.obj
 0001:00062bf8       ?V_GetMapFreePosition@@YAXPAM00@Z 10063bf8 f   view.obj
 0001:00062d10       ?V_GetMapChasePosition@@YAXHPAM00@Z 10063d10 f   view.obj
 0001:00062eee       ?V_FindViewModelByWeaponModel@@YAHH@Z 10063eee f   view.obj
 0001:00062f7b       ?V_CalcSpectatorRefdef@@YAXPAUref_params_s@@@Z 10063f7b f   view.obj
 0001:0006390b       _V_CalcRefdef              1006490b f   view.obj
 0001:00063a74       ?V_DropPunchAngle@@YAXMPAM@Z 10064a74 f   view.obj
 0001:00063ae1       ?V_PunchAxis@@YAXHM@Z      10064ae1 f   view.obj
 0001:00063af9       ?V_Init@@YAXXZ             10064af9 f   view.obj
 0001:00063c16       ?getCursor@Scheme@vgui@@UAEPAVCursor@2@W4SchemeCursor@12@@Z 10064c16 f   vgui:vgui.dll
 0001:00063c1c       ?setCursor@Scheme@vgui@@UAEXW4SchemeCursor@12@PAVCursor@2@@Z 10064c1c f   vgui:vgui.dll
 0001:00063c22       ?getFont@Scheme@vgui@@UAEPAVFont@2@W4SchemeFont@12@@Z 10064c22 f   vgui:vgui.dll
 0001:00063c28       ?setFont@Scheme@vgui@@UAEXW4SchemeFont@12@PAVFont@2@@Z 10064c28 f   vgui:vgui.dll
 0001:00063c2e       ?getColor@Scheme@vgui@@UAEXW4SchemeColor@12@AAH111@Z 10064c2e f   vgui:vgui.dll
 0001:00063c34       ?setColor@Scheme@vgui@@UAEXW4SchemeColor@12@HHHH@Z 10064c34 f   vgui:vgui.dll
 0001:00063c3a       ??AColor@vgui@@UAEHH@Z     10064c3a f   vgui:vgui.dll
 0001:00063c40       ?getColor@Color@vgui@@UAEXAAH000@Z 10064c40 f   vgui:vgui.dll
 0001:00063c46       ?getColor@Color@vgui@@UAEXAAW4SchemeColor@Scheme@2@@Z 10064c46 f   vgui:vgui.dll
 0001:00063c4c       ?setColor@Color@vgui@@UAEXHHHH@Z 10064c4c f   vgui:vgui.dll
 0001:00063c52       ?setColor@Color@vgui@@UAEXW4SchemeColor@Scheme@2@@Z 10064c52 f   vgui:vgui.dll
 0001:00063c58       ?init@Color@vgui@@EAEXXZ   10064c58 f   vgui:vgui.dll
 0001:00063c5e       ?internalSetCursor@Panel@vgui@@MAEXXZ 10064c5e f   vgui:vgui.dll
 0001:00063c64       ?internalFocusChanged@Panel@vgui@@MAEX_N@Z 10064c64 f   vgui:vgui.dll
 0001:00063c6a       ?internalKeyFocusTicked@Panel@vgui@@MAEXXZ 10064c6a f   vgui:vgui.dll
 0001:00063c70       ?internalKeyReleased@Panel@vgui@@MAEXW4KeyCode@2@@Z 10064c70 f   vgui:vgui.dll
 0001:00063c76       ?internalKeyTyped@Panel@vgui@@MAEXW4KeyCode@2@@Z 10064c76 f   vgui:vgui.dll
 0001:00063c7c       ?internalKeyPressed@Panel@vgui@@MAEXW4KeyCode@2@@Z 10064c7c f   vgui:vgui.dll
 0001:00063c82       ?internalMouseWheeled@Panel@vgui@@MAEXH@Z 10064c82 f   vgui:vgui.dll
 0001:00063c88       ?internalMouseReleased@Panel@vgui@@MAEXW4MouseCode@2@@Z 10064c88 f   vgui:vgui.dll
 0001:00063c8e       ?internalMouseDoublePressed@Panel@vgui@@MAEXW4MouseCode@2@@Z 10064c8e f   vgui:vgui.dll
 0001:00063c94       ?internalMousePressed@Panel@vgui@@MAEXW4MouseCode@2@@Z 10064c94 f   vgui:vgui.dll
 0001:00063c9a       ?internalCursorExited@Panel@vgui@@MAEXXZ 10064c9a f   vgui:vgui.dll
 0001:00063ca0       ?internalCursorEntered@Panel@vgui@@MAEXXZ 10064ca0 f   vgui:vgui.dll
 0001:00063ca6       ?internalCursorMoved@Panel@vgui@@MAEXHH@Z 10064ca6 f   vgui:vgui.dll
 0001:00063cac       ?paintBuildOverlay@Panel@vgui@@MAEXXZ 10064cac f   vgui:vgui.dll
 0001:00063cb2       ?paint@Panel@vgui@@MAEXXZ  10064cb2 f   vgui:vgui.dll
 0001:00063cb8       ?paintBackground@Panel@vgui@@MAEXXZ 10064cb8 f   vgui:vgui.dll
 0001:00063cbe       ?solve@Panel@vgui@@MAEXXZ  10064cbe f   vgui:vgui.dll
 0001:00063cc4       ?drawTexturedRect@Panel@vgui@@MAEXHHHH@Z 10064cc4 f   vgui:vgui.dll
 0001:00063cca       ?drawSetTexture@Panel@vgui@@MAEXH@Z 10064cca f   vgui:vgui.dll
 0001:00063cd0       ?drawSetTextureRGBA@Panel@vgui@@MAEXHPBDHH@Z 10064cd0 f   vgui:vgui.dll
 0001:00063cd6       ?drawPrintChar@Panel@vgui@@MAEXD@Z 10064cd6 f   vgui:vgui.dll
 0001:00063cdc       ?drawPrintChar@Panel@vgui@@MAEXHHD@Z 10064cdc f   vgui:vgui.dll
 0001:00063ce2       ?drawPrintText@Panel@vgui@@MAEXPBDH@Z 10064ce2 f   vgui:vgui.dll
 0001:00063ce8       ?drawPrintText@Panel@vgui@@MAEXHHPBDH@Z 10064ce8 f   vgui:vgui.dll
 0001:00063cee       ?drawSetTextPos@Panel@vgui@@MAEXHH@Z 10064cee f   vgui:vgui.dll
 0001:00063cf4       ?drawSetTextColor@Panel@vgui@@MAEXW4SchemeColor@Scheme@2@@Z 10064cf4 f   vgui:vgui.dll
 0001:00063cfa       ?drawSetTextColor@Panel@vgui@@MAEXHHHH@Z 10064cfa f   vgui:vgui.dll
 0001:00063d00       ?drawSetTextFont@Panel@vgui@@MAEXW4SchemeFont@Scheme@2@@Z 10064d00 f   vgui:vgui.dll
 0001:00063d06       ?drawSetTextFont@Panel@vgui@@MAEXPAVFont@2@@Z 10064d06 f   vgui:vgui.dll
 0001:00063d0c       ?drawOutlinedRect@Panel@vgui@@MAEXHHHH@Z 10064d0c f   vgui:vgui.dll
 0001:00063d12       ?drawFilledRect@Panel@vgui@@MAEXHHHH@Z 10064d12 f   vgui:vgui.dll
 0001:00063d18       ?drawSetColor@Panel@vgui@@MAEXW4SchemeColor@Scheme@2@@Z 10064d18 f   vgui:vgui.dll
 0001:00063d1e       ?drawSetColor@Panel@vgui@@MAEXHHHH@Z 10064d1e f   vgui:vgui.dll
 0001:00063d24       ?internalPerformLayout@Panel@vgui@@MAEXXZ 10064d24 f   vgui:vgui.dll
 0001:00063d2a       ?performLayout@Panel@vgui@@MAEXXZ 10064d2a f   vgui:vgui.dll
 0001:00063d30       ?setSurfaceBaseTraverse@Panel@vgui@@UAEXPAVSurfaceBase@2@@Z 10064d30 f   vgui:vgui.dll
 0001:00063d36       ?paintTraverse@Panel@vgui@@UAEXXZ 10064d36 f   vgui:vgui.dll
 0001:00063d3c       ?paintTraverse@Panel@vgui@@MAEX_N@Z 10064d3c f   vgui:vgui.dll
 0001:00063d42       ?solveTraverse@Panel@vgui@@UAEXXZ 10064d42 f   vgui:vgui.dll
 0001:00063d48       ?isCursorNone@Panel@vgui@@UAE_NXZ 10064d48 f   vgui:vgui.dll
 0001:00063d4e       ?getLayoutInfo@Panel@vgui@@UAEPAVLayoutInfo@2@XZ 10064d4e f   vgui:vgui.dll
 0001:00063d54       ?setLayoutInfo@Panel@vgui@@UAEXPAVLayoutInfo@2@@Z 10064d54 f   vgui:vgui.dll
 0001:00063d5a       ?getVirtualSize@Panel@vgui@@UAEXAAH0@Z 10064d5a f   vgui:vgui.dll
 0001:00063d60       ?getApp@Panel@vgui@@UAEPAVApp@2@XZ 10064d60 f   vgui:vgui.dll
 0001:00063d66       ?setAsMouseArena@Panel@vgui@@UAEX_N@Z 10064d66 f   vgui:vgui.dll
 0001:00063d6c       ?setAsMouseCapture@Panel@vgui@@UAEX_N@Z 10064d6c f   vgui:vgui.dll
 0001:00063d72       ?getBgColor@Panel@vgui@@UAEXAAH000@Z 10064d72 f   vgui:vgui.dll
 0001:00063d78       ?getBgColor@Panel@vgui@@UAEXAAVColor@2@@Z 10064d78 f   vgui:vgui.dll
 0001:00063d7e       ?getFgColor@Panel@vgui@@UAEXAAH000@Z 10064d7e f   vgui:vgui.dll
 0001:00063d84       ?getFgColor@Panel@vgui@@UAEXAAVColor@2@@Z 10064d84 f   vgui:vgui.dll
 0001:00063d8a       ?setBgColor@Panel@vgui@@UAEXW4SchemeColor@Scheme@2@@Z 10064d8a f   vgui:vgui.dll
 0001:00063d90       ?setBgColor@Panel@vgui@@UAEXHHHH@Z 10064d90 f   vgui:vgui.dll
 0001:00063d96       ?setBgColor@Panel@vgui@@UAEXVColor@2@@Z 10064d96 f   vgui:vgui.dll
 0001:00063d9c       ?setFgColor@Panel@vgui@@UAEXW4SchemeColor@Scheme@2@@Z 10064d9c f   vgui:vgui.dll
 0001:00063da2       ?setFgColor@Panel@vgui@@UAEXHHHH@Z 10064da2 f   vgui:vgui.dll
 0001:00063da8       ?setFgColor@Panel@vgui@@UAEXVColor@2@@Z 10064da8 f   vgui:vgui.dll
 0001:00063dae       ?applyPersistanceText@Panel@vgui@@UAEXPBD@Z 10064dae f   vgui:vgui.dll
 0001:00063db4       ?getPersistanceText@Panel@vgui@@UAEXPADH@Z 10064db4 f   vgui:vgui.dll
 0001:00063dba       ?createPropertyPanel@Panel@vgui@@UAEPAV12@XZ 10064dba f   vgui:vgui.dll
 0001:00063dc0       ?repaintParent@Panel@vgui@@UAEXXZ 10064dc0 f   vgui:vgui.dll
 0001:00063dc6       ?removeAllChildren@Panel@vgui@@UAEXXZ 10064dc6 f   vgui:vgui.dll
 0001:00063dcc       ?isBuildGroupEnabled@Panel@vgui@@UAE_NXZ 10064dcc f   vgui:vgui.dll
 0001:00063dd2       ?setBuildGroup@Panel@vgui@@UAEXPAVBuildGroup@2@PBD@Z 10064dd2 f   vgui:vgui.dll
 0001:00063dd8       ?setEnabled@Panel@vgui@@UAEX_N@Z 10064dd8 f   vgui:vgui.dll
 0001:00063dde       ?isEnabled@Panel@vgui@@UAE_NXZ 10064dde f   vgui:vgui.dll
 0001:00063de4       ?getSurfaceBase@Panel@vgui@@UAEPAVSurfaceBase@2@XZ 10064de4 f   vgui:vgui.dll
 0001:00063dea       ?getPreferredSize@Panel@vgui@@UAEXAAH0@Z 10064dea f   vgui:vgui.dll
 0001:00063df0       ?setPreferredSize@Panel@vgui@@UAEXHH@Z 10064df0 f   vgui:vgui.dll
 0001:00063df6       ?getPaintSize@Panel@vgui@@UAEXAAH0@Z 10064df6 f   vgui:vgui.dll
 0001:00063dfc       ?getInset@Panel@vgui@@UAEXAAH000@Z 10064dfc f   vgui:vgui.dll
 0001:00063e02       ?setPaintEnabled@Panel@vgui@@UAEX_N@Z 10064e02 f   vgui:vgui.dll
 0001:00063e08       ?setPaintBackgroundEnabled@Panel@vgui@@UAEX_N@Z 10064e08 f   vgui:vgui.dll
 0001:00063e0e       ?setPaintBorderEnabled@Panel@vgui@@UAEX_N@Z 10064e0e f   vgui:vgui.dll
 0001:00063e14       ?setBorder@Panel@vgui@@UAEXPAVBorder@2@@Z 10064e14 f   vgui:vgui.dll
 0001:00063e1a       ?setAutoFocusNavEnabled@Panel@vgui@@UAEX_N@Z 10064e1a f   vgui:vgui.dll
 0001:00063e20       ?isAutoFocusNavEnabled@Panel@vgui@@UAE_NXZ 10064e20 f   vgui:vgui.dll
 0001:00063e26       ?addFocusChangeSignal@Panel@vgui@@UAEXPAVFocusChangeSignal@2@@Z 10064e26 f   vgui:vgui.dll
 0001:00063e2c       ?requestFocusNext@Panel@vgui@@UAEXXZ 10064e2c f   vgui:vgui.dll
 0001:00063e32       ?requestFocusPrev@Panel@vgui@@UAEXXZ 10064e32 f   vgui:vgui.dll
 0001:00063e38       ?setFocusNavGroup@Panel@vgui@@UAEXPAVFocusNavGroup@2@@Z 10064e38 f   vgui:vgui.dll
 0001:00063e3e       ?invalidateLayout@Panel@vgui@@UAEX_N@Z 10064e3e f   vgui:vgui.dll
 0001:00063e44       ?setLayout@Panel@vgui@@UAEXPAVLayout@2@@Z 10064e44 f   vgui:vgui.dll
 0001:00063e4a       ?getChild@Panel@vgui@@UAEPAV12@H@Z 10064e4a f   vgui:vgui.dll
 0001:00063e50       ?getChildCount@Panel@vgui@@UAEHXZ 10064e50 f   vgui:vgui.dll
 0001:00063e56       ?hasFocus@Panel@vgui@@UAE_NXZ 10064e56 f   vgui:vgui.dll
 0001:00063e5c       ?requestFocus@Panel@vgui@@UAEXXZ 10064e5c f   vgui:vgui.dll
 0001:00063e62       ?getMinimumSize@Panel@vgui@@UAEXAAH0@Z 10064e62 f   vgui:vgui.dll
 0001:00063e68       ?setMinimumSize@Panel@vgui@@UAEXHH@Z 10064e68 f   vgui:vgui.dll
 0001:00063e6e       ?getCursor@Panel@vgui@@UAEPAVCursor@2@XZ 10064e6e f   vgui:vgui.dll
 0001:00063e74       ?setCursor@Panel@vgui@@UAEXPAVCursor@2@@Z 10064e74 f   vgui:vgui.dll
 0001:00063e7a       ?setCursor@Panel@vgui@@UAEXW4SchemeCursor@Scheme@2@@Z 10064e7a f   vgui:vgui.dll
 0001:00063e80       ?screenToLocal@Panel@vgui@@UAEXAAH0@Z 10064e80 f   vgui:vgui.dll
 0001:00063e86       ?localToScreen@Panel@vgui@@UAEXAAH0@Z 10064e86 f   vgui:vgui.dll
 0001:00063e8c       ?isWithinTraverse@Panel@vgui@@UAEPAV12@HH@Z 10064e8c f   vgui:vgui.dll
 0001:00063e92       ?isWithin@Panel@vgui@@UAE_NHH@Z 10064e92 f   vgui:vgui.dll
 0001:00063e98       ?removeRepaintSignal@Panel@vgui@@UAEXPAVRepaintSignal@2@@Z 10064e98 f   vgui:vgui.dll
 0001:00063e9e       ?addRepaintSignal@Panel@vgui@@UAEXPAVRepaintSignal@2@@Z 10064e9e f   vgui:vgui.dll
 0001:00063ea4       ?removeInputSignal@Panel@vgui@@UAEXPAVInputSignal@2@@Z 10064ea4 f   vgui:vgui.dll
 0001:00063eaa       ?addInputSignal@Panel@vgui@@UAEXPAVInputSignal@2@@Z 10064eaa f   vgui:vgui.dll
 0001:00063eb0       ?wasKeyReleased@Panel@vgui@@UAE_NW4KeyCode@2@@Z 10064eb0 f   vgui:vgui.dll
 0001:00063eb6       ?wasKeyTyped@Panel@vgui@@UAE_NW4KeyCode@2@@Z 10064eb6 f   vgui:vgui.dll
 0001:00063ebc       ?isKeyDown@Panel@vgui@@UAE_NW4KeyCode@2@@Z 10064ebc f   vgui:vgui.dll
 0001:00063ec2       ?wasKeyPressed@Panel@vgui@@UAE_NW4KeyCode@2@@Z 10064ec2 f   vgui:vgui.dll
 0001:00063ec8       ?wasMouseReleased@Panel@vgui@@UAE_NW4MouseCode@2@@Z 10064ec8 f   vgui:vgui.dll
 0001:00063ece       ?isMouseDown@Panel@vgui@@UAE_NW4MouseCode@2@@Z 10064ece f   vgui:vgui.dll
 0001:00063ed4       ?wasMouseDoublePressed@Panel@vgui@@UAE_NW4MouseCode@2@@Z 10064ed4 f   vgui:vgui.dll
 0001:00063eda       ?wasMousePressed@Panel@vgui@@UAE_NW4MouseCode@2@@Z 10064eda f   vgui:vgui.dll
 0001:00063ee0       ?removeChild@Panel@vgui@@UAEXPAV12@@Z 10064ee0 f   vgui:vgui.dll
 0001:00063ee6       ?insertChildAt@Panel@vgui@@UAEXPAV12@H@Z 10064ee6 f   vgui:vgui.dll
 0001:00063eec       ?addChild@Panel@vgui@@UAEXPAV12@@Z 10064eec f   vgui:vgui.dll
 0001:00063ef2       ?setParent@Panel@vgui@@UAEXPAV12@@Z 10064ef2 f   vgui:vgui.dll
 0001:00063ef8       ?getClipRect@Panel@vgui@@UAEXAAH000@Z 10064ef8 f   vgui:vgui.dll
 0001:00063efe       ?getAbsExtents@Panel@vgui@@UAEXAAH000@Z 10064efe f   vgui:vgui.dll
 0001:00063f04       ?repaintAll@Panel@vgui@@UAEXXZ 10064f04 f   vgui:vgui.dll
 0001:00063f0a       ?repaint@Panel@vgui@@UAEXXZ 10064f0a f   vgui:vgui.dll
 0001:00063f10       ?isVisibleUp@Panel@vgui@@UAE_NXZ 10064f10 f   vgui:vgui.dll
 0001:00063f16       ?isVisible@Panel@vgui@@UAE_NXZ 10064f16 f   vgui:vgui.dll
 0001:00063f1c       ?setVisible@Panel@vgui@@UAEX_N@Z 10064f1c f   vgui:vgui.dll
 0001:00063f22       ?getParent@Panel@vgui@@UAEPAV12@XZ 10064f22 f   vgui:vgui.dll
 0001:00063f28       ?getTall@Panel@vgui@@UAEHXZ 10064f28 f   vgui:vgui.dll
 0001:00063f2e       ?getWide@Panel@vgui@@UAEHXZ 10064f2e f   vgui:vgui.dll
 0001:00063f34       ?getBounds@Panel@vgui@@UAEXAAH000@Z 10064f34 f   vgui:vgui.dll
 0001:00063f3a       ?setBounds@Panel@vgui@@UAEXHHHH@Z 10064f3a f   vgui:vgui.dll
 0001:00063f40       ?getSize@Panel@vgui@@UAEXAAH0@Z 10064f40 f   vgui:vgui.dll
 0001:00063f46       ?setSize@Panel@vgui@@UAEXHH@Z 10064f46 f   vgui:vgui.dll
 0001:00063f4c       ?getPos@Panel@vgui@@UAEXAAH0@Z 10064f4c f   vgui:vgui.dll
 0001:00063f52       ?setPos@Panel@vgui@@UAEXHH@Z 10064f52 f   vgui:vgui.dll
 0001:00063f58       ?recomputeMinimumSize@Label@vgui@@MAEXXZ 10064f58 f   vgui:vgui.dll
 0001:00063f5e       ?computeAlignment@Label@vgui@@MAEXAAH00000000000@Z 10064f5e f   vgui:vgui.dll
 0001:00063f64       ?setContentFitted@Label@vgui@@UAEX_N@Z 10064f64 f   vgui:vgui.dll
 0001:00063f6a       ?setContentAlignment@Label@vgui@@UAEXW4Alignment@12@@Z 10064f6a f   vgui:vgui.dll
 0001:00063f70       ?setTextAlignment@Label@vgui@@UAEXW4Alignment@12@@Z 10064f70 f   vgui:vgui.dll
 0001:00063f76       ?getContentSize@Label@vgui@@UAEXAAH0@Z 10064f76 f   vgui:vgui.dll
 0001:00063f7c       ?getTextSize@Label@vgui@@UAEXAAH0@Z 10064f7c f   vgui:vgui.dll
 0001:00063f82       ?setFont@Label@vgui@@UAEXW4SchemeFont@Scheme@2@@Z 10064f82 f   vgui:vgui.dll
 0001:00063f88       ?setFont@Label@vgui@@UAEXPAVFont@2@@Z 10064f88 f   vgui:vgui.dll
 0001:00063f8e       ?setText@Label@vgui@@UAEXHPBD@Z 10064f8e f   vgui:vgui.dll
 0001:00063f94       ?setText@Label@vgui@@UAAXPBDZZ 10064f94 f   vgui:vgui.dll
 0001:00063f9a       ?setImage@Label@vgui@@UAEXPAVImage@2@@Z 10064f9a f   vgui:vgui.dll
 0001:00063fa0       ?paint@Label@vgui@@MAEXXZ  10064fa0 f   vgui:vgui.dll
 0001:00063fa6       ?setFgColor@Label@vgui@@UAEXW4SchemeColor@Scheme@2@@Z 10064fa6 f   vgui:vgui.dll
 0001:00063fac       ?setFgColor@Label@vgui@@UAEXHHHH@Z 10064fac f   vgui:vgui.dll
 0001:00063fb2       ?createPropertyPanel@Label@vgui@@UAEPAVPanel@2@XZ 10064fb2 f   vgui:vgui.dll
 0001:00063fb8       ?init@Label@vgui@@AAEXHPBD_N@Z 10064fb8 f   vgui:vgui.dll
 0001:00063fbe       ??0Panel@vgui@@QAE@HHHH@Z  10064fbe f   vgui:vgui.dll
 0001:00063fc4       ?doPaint@Image@vgui@@UAEXPAVPanel@2@@Z 10064fc4 f   vgui:vgui.dll
 0001:00063fca       ?paint@Image@vgui@@MAEXPAVPanel@2@@Z 10064fca f   vgui:vgui.dll
 0001:00063fd0       ?drawTexturedRect@Image@vgui@@MAEXHHHH@Z 10064fd0 f   vgui:vgui.dll
 0001:00063fd6       ?drawSetTexture@Image@vgui@@MAEXH@Z 10064fd6 f   vgui:vgui.dll
 0001:00063fdc       ?drawSetTextureRGBA@Image@vgui@@MAEXHPBDHH@Z 10064fdc f   vgui:vgui.dll
 0001:00063fe2       ?drawPrintChar@Image@vgui@@MAEXD@Z 10064fe2 f   vgui:vgui.dll
 0001:00063fe8       ?drawPrintChar@Image@vgui@@MAEXHHD@Z 10064fe8 f   vgui:vgui.dll
 0001:00063fee       ?drawPrintText@Image@vgui@@MAEXPBDH@Z 10064fee f   vgui:vgui.dll
 0001:00063ff4       ?drawPrintText@Image@vgui@@MAEXHHPBDH@Z 10064ff4 f   vgui:vgui.dll
 0001:00063ffa       ?drawSetTextPos@Image@vgui@@MAEXHH@Z 10064ffa f   vgui:vgui.dll
 0001:00064000       ?drawSetTextColor@Image@vgui@@MAEXW4SchemeColor@Scheme@2@@Z 10065000 f   vgui:vgui.dll
 0001:00064006       ?drawSetTextColor@Image@vgui@@MAEXHHHH@Z 10065006 f   vgui:vgui.dll
 0001:0006400c       ?drawSetTextFont@Image@vgui@@MAEXW4SchemeFont@Scheme@2@@Z 1006500c f   vgui:vgui.dll
 0001:00064012       ?drawSetTextFont@Image@vgui@@MAEXPAVFont@2@@Z 10065012 f   vgui:vgui.dll
 0001:00064018       ?drawOutlinedRect@Image@vgui@@MAEXHHHH@Z 10065018 f   vgui:vgui.dll
 0001:0006401e       ?drawFilledRect@Image@vgui@@MAEXHHHH@Z 1006501e f   vgui:vgui.dll
 0001:00064024       ?drawSetColor@Image@vgui@@MAEXW4SchemeColor@Scheme@2@@Z 10065024 f   vgui:vgui.dll
 0001:0006402a       ?drawSetColor@Image@vgui@@MAEXHHHH@Z 1006502a f   vgui:vgui.dll
 0001:00064030       ?setSize@Image@vgui@@MAEXHH@Z 10065030 f   vgui:vgui.dll
 0001:00064036       ?getColor@Image@vgui@@UAEXAAVColor@2@@Z 10065036 f   vgui:vgui.dll
 0001:0006403c       ?setColor@Image@vgui@@UAEXVColor@2@@Z 1006503c f   vgui:vgui.dll
 0001:00064042       ?getSize@Image@vgui@@UAEXAAH0@Z 10065042 f   vgui:vgui.dll
 0001:00064048       ?getPos@Image@vgui@@UAEXAAH0@Z 10065048 f   vgui:vgui.dll
 0001:0006404e       ?setPos@Image@vgui@@UAEXHH@Z 1006504e f   vgui:vgui.dll
 0001:00064054       ?getInset@Border@vgui@@UAEXAAH000@Z 10065054 f   vgui:vgui.dll
 0001:0006405a       ?setInset@Border@vgui@@UAEXHHHH@Z 1006505a f   vgui:vgui.dll
 0001:00064060       ?drawPrintChar@Border@vgui@@MAEXHHD@Z 10065060 f   vgui:vgui.dll
 0001:00064066       ?drawPrintText@Border@vgui@@MAEXHHPBDH@Z 10065066 f   vgui:vgui.dll
 0001:0006406c       ?drawSetTextPos@Border@vgui@@MAEXHH@Z 1006506c f   vgui:vgui.dll
 0001:00064072       ?drawOutlinedRect@Border@vgui@@MAEXHHHH@Z 10065072 f   vgui:vgui.dll
 0001:00064078       ?drawFilledRect@Border@vgui@@MAEXHHHH@Z 10065078 f   vgui:vgui.dll
 0001:0006407e       ??0Color@vgui@@QAE@HHHH@Z  1006507e f   vgui:vgui.dll
 0001:00064084       ?init@LineBorder@vgui@@EAEXHVColor@2@@Z 10065084 f   vgui:vgui.dll
 0001:0006408a       ?paint@LineBorder@vgui@@MAEXPAVPanel@2@@Z 1006508a f   vgui:vgui.dll
 0001:00064090       ?setImage@ImagePanel@vgui@@UAEXPAVImage@2@@Z 10065090 f   vgui:vgui.dll
 0001:00064096       ?paintBackground@ImagePanel@vgui@@MAEXXZ 10065096 f   vgui:vgui.dll
 0001:0006409c       ??0Panel@vgui@@QAE@XZ      1006509c f   vgui:vgui.dll
 0001:000640a2       ?setRGBA@Bitmap@vgui@@MAEXHHEEEE@Z 100650a2 f   vgui:vgui.dll
 0001:000640a8       ?paint@Bitmap@vgui@@UAEXPAVPanel@2@@Z 100650a8 f   vgui:vgui.dll
 0001:000640ae       ?setSize@Bitmap@vgui@@MAEXHH@Z 100650ae f   vgui:vgui.dll
 0001:000640b4       ?loadTGA@BitmapTGA@vgui@@EAE_NPAVInputStream@2@_N@Z 100650b4 f   vgui:vgui.dll
 0001:000640ba       ?setButtonController@Button@vgui@@MAEXPAVButtonController@2@@Z 100650ba f   vgui:vgui.dll
 0001:000640c0       ?fireActionSignal@Button@vgui@@UAEXXZ 100650c0 f   vgui:vgui.dll
 0001:000640c6       ?isMouseClickEnabled@Button@vgui@@UAE_NW4MouseCode@2@@Z 100650c6 f   vgui:vgui.dll
 0001:000640cc       ?setMouseClickEnabled@Button@vgui@@UAEXW4MouseCode@2@_N@Z 100650cc f   vgui:vgui.dll
 0001:000640d2       ?setButtonBorderEnabled@Button@vgui@@UAEX_N@Z 100650d2 f   vgui:vgui.dll
 0001:000640d8       ?isArmed@Button@vgui@@UAE_NXZ 100650d8 f   vgui:vgui.dll
 0001:000640de       ?setButtonGroup@Button@vgui@@UAEXPAVButtonGroup@2@@Z 100650de f   vgui:vgui.dll
 0001:000640e4       ?addActionSignal@Button@vgui@@UAEXPAVActionSignal@2@@Z 100650e4 f   vgui:vgui.dll
 0001:000640ea       ?doClick@Button@vgui@@UAEXXZ 100650ea f   vgui:vgui.dll
 0001:000640f0       ?isSelected@Button@vgui@@UAE_NXZ 100650f0 f   vgui:vgui.dll
 0001:000640f6       ?setArmed@Button@vgui@@UAEX_N@Z 100650f6 f   vgui:vgui.dll
 0001:000640fc       ?setSelectedDirect@Button@vgui@@UAEX_N@Z 100650fc f   vgui:vgui.dll
 0001:00064102       ?setSelected@Button@vgui@@UAEX_N@Z 10065102 f   vgui:vgui.dll
 0001:00064108       ?paintBackground@Button@vgui@@MAEXXZ 10065108 f   vgui:vgui.dll
 0001:0006410e       ?createPropertyPanel@Button@vgui@@UAEPAVPanel@2@XZ 1006510e f   vgui:vgui.dll
 0001:00064114       ??0LineBorder@vgui@@QAE@VColor@1@@Z 10065114 f   vgui:vgui.dll
 0001:0006411a       ??0Button@vgui@@QAE@PBDHHHH@Z 1006511a f   vgui:vgui.dll
 0001:00064120       ?getDefaultCursor@Cursor@vgui@@UAE?AW4DefaultCursor@12@XZ 10065120 f   vgui:vgui.dll
 0001:00064126       ?getBitmap@Cursor@vgui@@UAEPAVBitmap@2@XZ 10065126 f   vgui:vgui.dll
 0001:0006412c       ?privateInit@Cursor@vgui@@EAEXPAVBitmap@2@HH@Z 1006512c f   vgui:vgui.dll
 0001:00064132       ?getHotspot@Cursor@vgui@@UAEXAAH0@Z 10065132 f   vgui:vgui.dll
 0001:00064138       ?internalTick@App@vgui@@MAEXXZ 10065138 f   vgui:vgui.dll
 0001:0006413e       ?platTick@App@vgui@@MAEXXZ 1006513e f   vgui:vgui.dll
 0001:00064144       ?surfaceBaseDeleted@App@vgui@@MAEXPAVSurfaceBase@2@@Z 10065144 f   vgui:vgui.dll
 0001:0006414a       ?surfaceBaseCreated@App@vgui@@MAEXPAVSurfaceBase@2@@Z 1006514a f   vgui:vgui.dll
 0001:00064150       ?setMouseFocus@App@vgui@@EAEXPAVPanel@2@@Z 10065150 f   vgui:vgui.dll
 0001:00064156       ?updateMouseFocus@App@vgui@@EAEXHHPAVSurfaceBase@2@@Z 10065156 f   vgui:vgui.dll
 0001:0006415c       ?init@App@vgui@@EAEXXZ     1006515c f   vgui:vgui.dll
 0001:00064162       ?internalKeyReleased@App@vgui@@UAEXW4KeyCode@2@PAVSurfaceBase@2@@Z 10065162 f   vgui:vgui.dll
 0001:00064168       ?internalKeyTyped@App@vgui@@UAEXW4KeyCode@2@PAVSurfaceBase@2@@Z 10065168 f   vgui:vgui.dll
 0001:0006416e       ?internalKeyPressed@App@vgui@@UAEXW4KeyCode@2@PAVSurfaceBase@2@@Z 1006516e f   vgui:vgui.dll
 0001:00064174       ?internalMouseWheeled@App@vgui@@UAEXHPAVSurfaceBase@2@@Z 10065174 f   vgui:vgui.dll
 0001:0006417a       ?internalMouseReleased@App@vgui@@UAEXW4MouseCode@2@PAVSurfaceBase@2@@Z 1006517a f   vgui:vgui.dll
 0001:00064180       ?internalMouseDoublePressed@App@vgui@@UAEXW4MouseCode@2@PAVSurfaceBase@2@@Z 10065180 f   vgui:vgui.dll
 0001:00064186       ?internalMousePressed@App@vgui@@UAEXW4MouseCode@2@PAVSurfaceBase@2@@Z 10065186 f   vgui:vgui.dll
 0001:0006418c       ?internalCursorMoved@App@vgui@@UAEXHHPAVSurfaceBase@2@@Z 1006518c f   vgui:vgui.dll
 0001:00064192       ?run@App@vgui@@UAEXXZ      10065192 f   vgui:vgui.dll
 0001:00064198       ?setMinimumTickMillisInterval@App@vgui@@UAEXH@Z 10065198 f   vgui:vgui.dll
 0001:0006419e       ?getCursorOveride@App@vgui@@UAEPAVCursor@2@XZ 1006519e f   vgui:vgui.dll
 0001:000641a4       ?setCursorOveride@App@vgui@@UAEXPAVCursor@2@@Z 100651a4 f   vgui:vgui.dll
 0001:000641aa       ?getRegistryInteger@App@vgui@@UAE_NPBDAAH@Z 100651aa f   vgui:vgui.dll
 0001:000641b0       ?setRegistryInteger@App@vgui@@UAE_NPBDH@Z 100651b0 f   vgui:vgui.dll
 0001:000641b6       ?getRegistryString@App@vgui@@UAE_NPBDPADH@Z 100651b6 f   vgui:vgui.dll
 0001:000641bc       ?setRegistryString@App@vgui@@UAE_NPBD0@Z 100651bc f   vgui:vgui.dll
 0001:000641c2       ?internalSetMouseArena@App@vgui@@UAEXHHHH_N@Z 100651c2 f   vgui:vgui.dll
 0001:000641c8       ?reset@App@vgui@@UAEXXZ    100651c8 f   vgui:vgui.dll
 0001:000641ce       ?getClipboardText@App@vgui@@UAEHHPADH@Z 100651ce f   vgui:vgui.dll
 0001:000641d4       ?setClipboardText@App@vgui@@UAEXPBDH@Z 100651d4 f   vgui:vgui.dll
 0001:000641da       ?getClipboardTextCount@App@vgui@@UAEHXZ 100651da f   vgui:vgui.dll
 0001:000641e0       ?getKeyCodeText@App@vgui@@UAEXW4KeyCode@2@PADH@Z 100651e0 f   vgui:vgui.dll
 0001:000641e6       ?getKeyCodeChar@App@vgui@@UAEDW4KeyCode@2@_N@Z 100651e6 f   vgui:vgui.dll
 0001:000641ec       ?getTimeMillis@App@vgui@@UAEJXZ 100651ec f   vgui:vgui.dll
 0001:000641f2       ?enableBuildMode@App@vgui@@UAEXXZ 100651f2 f   vgui:vgui.dll
 0001:000641f8       ?getScheme@App@vgui@@UAEPAVScheme@2@XZ 100651f8 f   vgui:vgui.dll
 0001:000641fe       ?setScheme@App@vgui@@UAEXPAVScheme@2@@Z 100651fe f   vgui:vgui.dll
 0001:00064204       ?repaintAll@App@vgui@@UAEXXZ 10065204 f   vgui:vgui.dll
 0001:0006420a       ?getFocus@App@vgui@@UAEPAVPanel@2@XZ 1006520a f   vgui:vgui.dll
 0001:00064210       ?requestFocus@App@vgui@@UAEXPAVPanel@2@@Z 10065210 f   vgui:vgui.dll
 0001:00064216       ?setMouseArena@App@vgui@@UAEXHHHH_N@Z 10065216 f   vgui:vgui.dll
 0001:0006421c       ?setMouseArena@App@vgui@@UAEXPAVPanel@2@@Z 1006521c f   vgui:vgui.dll
 0001:00064222       ?setMouseCapture@App@vgui@@UAEXPAVPanel@2@@Z 10065222 f   vgui:vgui.dll
 0001:00064228       ?getCursorPos@App@vgui@@UAEXAAH0@Z 10065228 f   vgui:vgui.dll
 0001:0006422e       ?setCursorPos@App@vgui@@UAEXHH@Z 1006522e f   vgui:vgui.dll
 0001:00064234       ?addTickSignal@App@vgui@@UAEXPAVTickSignal@2@@Z 10065234 f   vgui:vgui.dll
 0001:0006423a       ?wasKeyReleased@App@vgui@@UAE_NW4KeyCode@2@PAVPanel@2@@Z 1006523a f   vgui:vgui.dll
 0001:00064240       ?wasKeyTyped@App@vgui@@UAE_NW4KeyCode@2@PAVPanel@2@@Z 10065240 f   vgui:vgui.dll
 0001:00064246       ?isKeyDown@App@vgui@@UAE_NW4KeyCode@2@PAVPanel@2@@Z 10065246 f   vgui:vgui.dll
 0001:0006424c       ?wasKeyPressed@App@vgui@@UAE_NW4KeyCode@2@PAVPanel@2@@Z 1006524c f   vgui:vgui.dll
 0001:00064252       ?wasMouseReleased@App@vgui@@UAE_NW4MouseCode@2@PAVPanel@2@@Z 10065252 f   vgui:vgui.dll
 0001:00064258       ?isMouseDown@App@vgui@@UAE_NW4MouseCode@2@PAVPanel@2@@Z 10065258 f   vgui:vgui.dll
 0001:0006425e       ?wasMouseDoublePressed@App@vgui@@UAE_NW4MouseCode@2@PAVPanel@2@@Z 1006525e f   vgui:vgui.dll
 0001:00064264       ?wasMousePressed@App@vgui@@UAE_NW4MouseCode@2@PAVPanel@2@@Z 10065264 f   vgui:vgui.dll
 0001:0006426a       ?externalTick@App@vgui@@UAEXXZ 1006526a f   vgui:vgui.dll
 0001:00064270       ?stop@App@vgui@@UAEXXZ     10065270 f   vgui:vgui.dll
 0001:00064276       ?start@App@vgui@@UAEXXZ    10065276 f   vgui:vgui.dll
 0001:0006427c       ?setFont@TextImage@vgui@@UAEXW4SchemeFont@Scheme@2@@Z 1006527c f   vgui:vgui.dll
 0001:00064282       ?setFont@TextImage@vgui@@UAEXPAVFont@2@@Z 10065282 f   vgui:vgui.dll
 0001:00064288       ?setText@TextImage@vgui@@UAEXHPBD@Z 10065288 f   vgui:vgui.dll
 0001:0006428e       ?setText@TextImage@vgui@@UAEXPBD@Z 1006528e f   vgui:vgui.dll
 0001:00064294       ?getFont@TextImage@vgui@@UAEPAVFont@2@XZ 10065294 f   vgui:vgui.dll
 0001:0006429a       ?getTextSizeWrapped@TextImage@vgui@@UAEXAAH0@Z 1006529a f   vgui:vgui.dll
 0001:000642a0       ?getTextSize@TextImage@vgui@@UAEXAAH0@Z 100652a0 f   vgui:vgui.dll
 0001:000642a6       ?init@TextImage@vgui@@EAEXHPBD@Z 100652a6 f   vgui:vgui.dll
 0001:000642ac       ?paint@TextImage@vgui@@MAEXPAVPanel@2@@Z 100652ac f   vgui:vgui.dll
 0001:000642b2       ?setSize@TextImage@vgui@@UAEXHH@Z 100652b2 f   vgui:vgui.dll
 0001:000642b8       ??0ImagePanel@vgui@@QAE@PAVImage@1@@Z 100652b8 f   vgui:vgui.dll
 0001:000642be       ??0Label@vgui@@QAE@PBD@Z   100652be f   vgui:vgui.dll
 0001:000642c4       ?fireMinimizingSignal@Frame@vgui@@UAEXXZ 100652c4 f   vgui:vgui.dll
 0001:000642ca       ?fireClosingSignal@Frame@vgui@@UAEXXZ 100652ca f   vgui:vgui.dll
 0001:000642d0       ?setCloseButtonVisible@Frame@vgui@@UAEX_N@Z 100652d0 f   vgui:vgui.dll
 0001:000642d6       ?setMaximizeButtonVisible@Frame@vgui@@UAEX_N@Z 100652d6 f   vgui:vgui.dll
 0001:000642dc       ?setMinimizeButtonVisible@Frame@vgui@@UAEX_N@Z 100652dc f   vgui:vgui.dll
 0001:000642e2       ?setTrayButtonVisible@Frame@vgui@@UAEX_N@Z 100652e2 f   vgui:vgui.dll
 0001:000642e8       ?setMenuButtonVisible@Frame@vgui@@UAEX_N@Z 100652e8 f   vgui:vgui.dll
 0001:000642ee       ?addFrameSignal@Frame@vgui@@UAEXPAVFrameSignal@2@@Z 100652ee f   vgui:vgui.dll
 0001:000642f4       ?isSizeable@Frame@vgui@@UAE_NXZ 100652f4 f   vgui:vgui.dll
 0001:000642fa       ?isMoveable@Frame@vgui@@UAE_NXZ 100652fa f   vgui:vgui.dll
 0001:00064300       ?setSizeable@Frame@vgui@@UAEX_N@Z 10065300 f   vgui:vgui.dll
 0001:00064306       ?setMoveable@Frame@vgui@@UAEX_N@Z 10065306 f   vgui:vgui.dll
 0001:0006430c       ?getTitle@Frame@vgui@@UAEXPADH@Z 1006530c f   vgui:vgui.dll
 0001:00064312       ?setTitle@Frame@vgui@@UAEXPBD@Z 10065312 f   vgui:vgui.dll
 0001:00064318       ?getClient@Frame@vgui@@UAEPAVPanel@2@XZ 10065318 f   vgui:vgui.dll
 0001:0006431e       ?isInternal@Frame@vgui@@UAE_NXZ 1006531e f   vgui:vgui.dll
 0001:00064324       ?setInternal@Frame@vgui@@UAEX_N@Z 10065324 f   vgui:vgui.dll
 0001:0006432a       ?paintBackground@Frame@vgui@@UAEXXZ 1006532a f   vgui:vgui.dll
 0001:00064330       ?setVisible@Frame@vgui@@UAEX_N@Z 10065330 f   vgui:vgui.dll
 0001:00064336       ?setSize@Frame@vgui@@UAEXHH@Z 10065336 f   vgui:vgui.dll
 0001:0006433c       ?getTextImage@TextPanel@vgui@@UAEPAVTextImage@2@XZ 1006533c f   vgui:vgui.dll
 0001:00064342       ?setFont@TextPanel@vgui@@UAEXW4SchemeFont@Scheme@2@@Z 10065342 f   vgui:vgui.dll
 0001:00064348       ?setFont@TextPanel@vgui@@UAEXPAVFont@2@@Z 10065348 f   vgui:vgui.dll
 0001:0006434e       ?setText@TextPanel@vgui@@UAEXPBD@Z 1006534e f   vgui:vgui.dll
 0001:00064354       ?paint@TextPanel@vgui@@MAEXXZ 10065354 f   vgui:vgui.dll
 0001:0006435a       ?setFgColor@TextPanel@vgui@@UAEXW4SchemeColor@Scheme@2@@Z 1006535a f   vgui:vgui.dll
 0001:00064360       ?setFgColor@TextPanel@vgui@@UAEXHHHH@Z 10065360 f   vgui:vgui.dll
 0001:00064366       ?setSize@TextPanel@vgui@@UAEXHH@Z 10065366 f   vgui:vgui.dll
 0001:0006436c       ?close@FileInputStream@vgui@@UAEXXZ 1006536c f   vgui:vgui.dll
 0001:00064372       ?close@FileInputStream@vgui@@UAEXAA_N@Z 10065372 f   vgui:vgui.dll
 0001:00064378       ?readUChar@FileInputStream@vgui@@UAEEAA_N@Z 10065378 f   vgui:vgui.dll
 0001:0006437e       ?readUChar@FileInputStream@vgui@@UAEXPAEHAA_N@Z 1006537e f   vgui:vgui.dll
 0001:00064384       ?getAvailable@FileInputStream@vgui@@UAEHAA_N@Z 10065384 f   vgui:vgui.dll
 0001:0006438a       ?seekEnd@FileInputStream@vgui@@UAEXAA_N@Z 1006538a f   vgui:vgui.dll
 0001:00064390       ?seekRelative@FileInputStream@vgui@@UAEXHAA_N@Z 10065390 f   vgui:vgui.dll
 0001:00064396       ?seekStart@FileInputStream@vgui@@UAEXAA_N@Z 10065396 f   vgui:vgui.dll
 0001:0006439c       ?getMiniApp@DesktopIcon@vgui@@UAEPAVMiniApp@2@XZ 1006539c f   vgui:vgui.dll
 0001:000643a2       ?setDesktop@DesktopIcon@vgui@@UAEXPAVDesktop@2@@Z 100653a2 f   vgui:vgui.dll
 0001:000643a8       ?setImage@DesktopIcon@vgui@@UAEXPAVImage@2@@Z 100653a8 f   vgui:vgui.dll
 0001:000643ae       ?doActivate@DesktopIcon@vgui@@UAEXXZ 100653ae f   vgui:vgui.dll
 0001:000643b4       ?paintBackground@DesktopIcon@vgui@@MAEXXZ 100653b4 f   vgui:vgui.dll
 0001:000643ba       ?setName@MiniApp@vgui@@MAEXPBD@Z 100653ba f   vgui:vgui.dll
 0001:000643c0       ?getName@MiniApp@vgui@@UAEXPADH@Z 100653c0 f   vgui:vgui.dll
 0001:000643c6       ?recomputeScroll@ScrollPanel@vgui@@UAEXXZ 100653c6 f   vgui:vgui.dll
 0001:000643cc       ?validate@ScrollPanel@vgui@@UAEXXZ 100653cc f   vgui:vgui.dll
 0001:000643d2       ?getVerticalScrollBar@ScrollPanel@vgui@@UAEPAVScrollBar@2@XZ 100653d2 f   vgui:vgui.dll
 0001:000643d8       ?getHorizontalScrollBar@ScrollPanel@vgui@@UAEPAVScrollBar@2@XZ 100653d8 f   vgui:vgui.dll
 0001:000643de       ?recomputeClientSize@ScrollPanel@vgui@@UAEXXZ 100653de f   vgui:vgui.dll
 0001:000643e4       ?getScrollValue@ScrollPanel@vgui@@UAEXAAH0@Z 100653e4 f   vgui:vgui.dll
 0001:000643ea       ?setScrollValue@ScrollPanel@vgui@@UAEXHH@Z 100653ea f   vgui:vgui.dll
 0001:000643f0       ?getClientClip@ScrollPanel@vgui@@UAEPAVPanel@2@XZ 100653f0 f   vgui:vgui.dll
 0001:000643f6       ?getClient@ScrollPanel@vgui@@UAEPAVPanel@2@XZ 100653f6 f   vgui:vgui.dll
 0001:000643fc       ?setScrollBarAutoVisible@ScrollPanel@vgui@@UAEX_N0@Z 100653fc f   vgui:vgui.dll
 0001:00064402       ?setScrollBarVisible@ScrollPanel@vgui@@UAEX_N0@Z 10065402 f   vgui:vgui.dll
 0001:00064408       ?setSize@ScrollPanel@vgui@@MAEXHH@Z 10065408 f   vgui:vgui.dll
 0001:0006440e       ?fireIntChangeSignal@ScrollBar@vgui@@UAEXXZ 1006540e f   vgui:vgui.dll
 0001:00064414       ?validate@ScrollBar@vgui@@UAEXXZ 10065414 f   vgui:vgui.dll
 0001:0006441a       ?setButtonPressedScrollValue@ScrollBar@vgui@@UAEXH@Z 1006541a f   vgui:vgui.dll
 0001:00064420       ?doButtonPressed@ScrollBar@vgui@@UAEXH@Z 10065420 f   vgui:vgui.dll
 0001:00064426       ?getSlider@ScrollBar@vgui@@UAEPAVSlider@2@XZ 10065426 f   vgui:vgui.dll
 0001:0006442c       ?setSlider@ScrollBar@vgui@@UAEXPAVSlider@2@@Z 1006542c f   vgui:vgui.dll
 0001:00064432       ?getButton@ScrollBar@vgui@@UAEPAVButton@2@H@Z 10065432 f   vgui:vgui.dll
 0001:00064438       ?setButton@ScrollBar@vgui@@UAEXPAVButton@2@H@Z 10065438 f   vgui:vgui.dll
 0001:0006443e       ?hasFullRange@ScrollBar@vgui@@UAE_NXZ 1006543e f   vgui:vgui.dll
 0001:00064444       ?isVertical@ScrollBar@vgui@@UAE_NXZ 10065444 f   vgui:vgui.dll
 0001:0006444a       ?setRangeWindowEnabled@ScrollBar@vgui@@UAEX_N@Z 1006544a f   vgui:vgui.dll
 0001:00064450       ?setRangeWindow@ScrollBar@vgui@@UAEXH@Z 10065450 f   vgui:vgui.dll
 0001:00064456       ?setRange@ScrollBar@vgui@@UAEXHH@Z 10065456 f   vgui:vgui.dll
 0001:0006445c       ?addIntChangeSignal@ScrollBar@vgui@@UAEXPAVIntChangeSignal@2@@Z 1006545c f   vgui:vgui.dll
 0001:00064462       ?getValue@ScrollBar@vgui@@UAEHXZ 10065462 f   vgui:vgui.dll
 0001:00064468       ?setValue@ScrollBar@vgui@@UAEXH@Z 10065468 f   vgui:vgui.dll
 0001:0006446e       ?performLayout@ScrollBar@vgui@@MAEXXZ 1006546e f   vgui:vgui.dll
 0001:00064474       ?setSize@ScrollBar@vgui@@UAEXHH@Z 10065474 f   vgui:vgui.dll
 0001:0006447a       ?fireIntChangeSignal@Slider@vgui@@MAEXXZ 1006547a f   vgui:vgui.dll
 0001:00064480       ?privateMouseReleased@Slider@vgui@@UAEXW4MouseCode@2@PAVPanel@2@@Z 10065480 f   vgui:vgui.dll
 0001:00064486       ?privateMousePressed@Slider@vgui@@UAEXW4MouseCode@2@PAVPanel@2@@Z 10065486 f   vgui:vgui.dll
 0001:0006448c       ?privateCursorMoved@Slider@vgui@@UAEXHHPAVPanel@2@@Z 1006548c f   vgui:vgui.dll
 0001:00064492       ?recomputeValueFromNobPos@Slider@vgui@@EAEXXZ 10065492 f   vgui:vgui.dll
 0001:00064498       ?recomputeNobPosFromValue@Slider@vgui@@EAEXXZ 10065498 f   vgui:vgui.dll
 0001:0006449e       ?setButtonOffset@Slider@vgui@@UAEXH@Z 1006549e f   vgui:vgui.dll
 0001:000644a4       ?hasFullRange@Slider@vgui@@UAE_NXZ 100654a4 f   vgui:vgui.dll
 0001:000644aa       ?getNobPos@Slider@vgui@@UAEXAAH0@Z 100654aa f   vgui:vgui.dll
 0001:000644b0       ?setRangeWindowEnabled@Slider@vgui@@UAEX_N@Z 100654b0 f   vgui:vgui.dll
 0001:000644b6       ?setRangeWindow@Slider@vgui@@UAEXH@Z 100654b6 f   vgui:vgui.dll
 0001:000644bc       ?getRange@Slider@vgui@@UAEXAAH0@Z 100654bc f   vgui:vgui.dll
 0001:000644c2       ?setRange@Slider@vgui@@UAEXHH@Z 100654c2 f   vgui:vgui.dll
 0001:000644c8       ?addIntChangeSignal@Slider@vgui@@UAEXPAVIntChangeSignal@2@@Z 100654c8 f   vgui:vgui.dll
 0001:000644ce       ?isVertical@Slider@vgui@@UAE_NXZ 100654ce f   vgui:vgui.dll
 0001:000644d4       ?getValue@Slider@vgui@@UAEHXZ 100654d4 f   vgui:vgui.dll
 0001:000644da       ?setValue@Slider@vgui@@UAEXH@Z 100654da f   vgui:vgui.dll
 0001:000644e0       ?paintBackground@Slider@vgui@@MAEXXZ 100654e0 f   vgui:vgui.dll
 0001:000644e6       ?setSize@Slider@vgui@@UAEXHH@Z 100654e6 f   vgui:vgui.dll
 0001:000644ec       ?getId@Font@vgui@@UAEHXZ   100654ec f   vgui:vgui.dll
 0001:000644f2       ?getTall@Font@vgui@@UAEHXZ 100654f2 f   vgui:vgui.dll
 0001:000644f8       ?getTextSize@Font@vgui@@UAEXPBDAAH1@Z 100654f8 f   vgui:vgui.dll
 0001:000644fe       ?getCharABCwide@Font@vgui@@UAEXHAAH00@Z 100654fe f   vgui:vgui.dll
 0001:00064504       ?getCharRGBA@Font@vgui@@UAEXHHHHHPAE@Z 10065504 f   vgui:vgui.dll
 0001:0006450a       ?init@Font@vgui@@EAEXPBDPAXHHHMH_N222@Z 1006550a f   vgui:vgui.dll
 0001:00064510       ?privateKeyTyped@TablePanel@vgui@@EAEXW4KeyCode@2@PAVPanel@2@@Z 10065510 f   vgui:vgui.dll
 0001:00064516       ?privateMouseDoublePressed@TablePanel@vgui@@EAEXW4MouseCode@2@PAVPanel@2@@Z 10065516 f   vgui:vgui.dll
 0001:0006451c       ?privateMousePressed@TablePanel@vgui@@EAEXW4MouseCode@2@PAVPanel@2@@Z 1006551c f   vgui:vgui.dll
 0001:00064522       ?stopCellEditing@TablePanel@vgui@@UAEXXZ 10065522 f   vgui:vgui.dll
 0001:00064528       ?setEditableCell@TablePanel@vgui@@UAEXHH@Z 10065528 f   vgui:vgui.dll
 0001:0006452e       ?setCellSectionEnabled@TablePanel@vgui@@UAEX_N@Z 1006552e f   vgui:vgui.dll
 0001:00064534       ?setRowSelectionEnabled@TablePanel@vgui@@UAEX_N@Z 10065534 f   vgui:vgui.dll
 0001:0006453a       ?setColumnSelectionEnabled@TablePanel@vgui@@UAEX_N@Z 1006553a f   vgui:vgui.dll
 0001:00064540       ?setHeaderPanel@TablePanel@vgui@@UAEXPAVHeaderPanel@2@@Z 10065540 f   vgui:vgui.dll
 0001:00064546       ?getSelectedCell@TablePanel@vgui@@UAEXAAH0@Z 10065546 f   vgui:vgui.dll
 0001:0006454c       ?setSelectedCell@TablePanel@vgui@@UAEXHH@Z 1006554c f   vgui:vgui.dll
 0001:00064552       ?setColumnExtents@TablePanel@vgui@@UAEXHHH@Z 10065552 f   vgui:vgui.dll
 0001:00064558       ?getColumnCount@TablePanel@vgui@@UAEHXZ 10065558 f   vgui:vgui.dll
 0001:0006455e       ?setGridSize@TablePanel@vgui@@UAEXHH@Z 1006555e f   vgui:vgui.dll
 0001:00064564       ?setGridVisible@TablePanel@vgui@@UAEX_N0@Z 10065564 f   vgui:vgui.dll
 0001:0006456a       ?setColumnCount@TablePanel@vgui@@UAEXH@Z 1006556a f   vgui:vgui.dll
 0001:00064570       ?setCellEditingEnabled@TablePanel@vgui@@UAEX_N@Z 10065570 f   vgui:vgui.dll
 0001:00064576       ?paint@TablePanel@vgui@@MAEXXZ 10065576 f   vgui:vgui.dll
 0001:0006457c       ?getVirtualSize@TablePanel@vgui@@UAEXAAH0@Z 1006557c f   vgui:vgui.dll
 0001:00064582       ?isWithinTraverse@TablePanel@vgui@@MAEPAVPanel@2@HH@Z 10065582 f   vgui:vgui.dll
 0001:00064588       ?privateMouseReleased@HeaderPanel@vgui@@UAEXW4MouseCode@2@PAVPanel@2@@Z 10065588 f   vgui:vgui.dll
 0001:0006458e       ?privateMousePressed@HeaderPanel@vgui@@UAEXW4MouseCode@2@PAVPanel@2@@Z 1006558e f   vgui:vgui.dll
 0001:00064594       ?privateCursorMoved@HeaderPanel@vgui@@UAEXHHPAVPanel@2@@Z 10065594 f   vgui:vgui.dll
 0001:0006459a       ?fireChangeSignal@HeaderPanel@vgui@@UAEXXZ 1006559a f   vgui:vgui.dll
 0001:000645a0       ?addChangeSignal@HeaderPanel@vgui@@UAEXPAVChangeSignal@2@@Z 100655a0 f   vgui:vgui.dll
 0001:000645a6       ?getSectionExtents@HeaderPanel@vgui@@UAEXHAAH0@Z 100655a6 f   vgui:vgui.dll
 0001:000645ac       ?getSectionCount@HeaderPanel@vgui@@UAEHXZ 100655ac f   vgui:vgui.dll
 0001:000645b2       ?setSliderPos@HeaderPanel@vgui@@UAEXHH@Z 100655b2 f   vgui:vgui.dll
 0001:000645b8       ?addSectionPanel@HeaderPanel@vgui@@UAEXPAVPanel@2@@Z 100655b8 f   vgui:vgui.dll
 0001:000645be       ?performLayout@HeaderPanel@vgui@@MAEXXZ 100655be f   vgui:vgui.dll
 0001:000645c4       ?printf@TextGrid@vgui@@UAAHPBDZZ 100655c4 f   vgui:vgui.dll
 0001:000645ca       ?vprintf@TextGrid@vgui@@UAEHPBDPAD@Z 100655ca f   vgui:vgui.dll
 0001:000645d0       ?setXY@TextGrid@vgui@@UAEXHH@Z 100655d0 f   vgui:vgui.dll
 0001:000645d6       ?newLine@TextGrid@vgui@@UAEXXZ 100655d6 f   vgui:vgui.dll
 0001:000645dc       ?setGridSize@TextGrid@vgui@@UAEXHH@Z 100655dc f   vgui:vgui.dll
 0001:000645e2       ?paintBackground@TextGrid@vgui@@MAEXXZ 100655e2 f   vgui:vgui.dll
 0001:000645e8       ??0TextPanel@vgui@@QAE@PBDHHHH@Z 100655e8 f   vgui:vgui.dll
 0001:000645ee       ??0Label@vgui@@QAE@PBDHH@Z 100655ee f   vgui:vgui.dll
 0001:000645f4       ?keyFocusTicked@TextEntry@vgui@@MAEXPAVPanel@2@@Z 100655f4 f   vgui:vgui.dll
 0001:000645fa       ?keyReleased@TextEntry@vgui@@MAEXW4KeyCode@2@PAVPanel@2@@Z 100655fa f   vgui:vgui.dll
 0001:00064600       ?keyTyped@TextEntry@vgui@@MAEXW4KeyCode@2@PAVPanel@2@@Z 10065600 f   vgui:vgui.dll
 0001:00064606       ?keyPressed@TextEntry@vgui@@MAEXW4KeyCode@2@PAVPanel@2@@Z 10065606 f   vgui:vgui.dll
 0001:0006460c       ?mouseWheeled@TextEntry@vgui@@MAEXHPAVPanel@2@@Z 1006560c f   vgui:vgui.dll
 0001:00064612       ?mouseReleased@TextEntry@vgui@@MAEXW4MouseCode@2@PAVPanel@2@@Z 10065612 f   vgui:vgui.dll
 0001:00064618       ?mouseDoublePressed@TextEntry@vgui@@MAEXW4MouseCode@2@PAVPanel@2@@Z 10065618 f   vgui:vgui.dll
 0001:0006461e       ?mousePressed@TextEntry@vgui@@MAEXW4MouseCode@2@PAVPanel@2@@Z 1006561e f   vgui:vgui.dll
 0001:00064624       ?cursorExited@TextEntry@vgui@@MAEXPAVPanel@2@@Z 10065624 f   vgui:vgui.dll
 0001:0006462a       ?cursorEntered@TextEntry@vgui@@MAEXPAVPanel@2@@Z 1006562a f   vgui:vgui.dll
 0001:00064630       ?cursorMoved@TextEntry@vgui@@MAEXHHPAVPanel@2@@Z 10065630 f   vgui:vgui.dll
 0001:00064636       ?selectCheck@TextEntry@vgui@@MAEXXZ 10065636 f   vgui:vgui.dll
 0001:0006463c       ?cursorToPixelSpace@TextEntry@vgui@@MAEHH@Z 1006563c f   vgui:vgui.dll
 0001:00064642       ?getSelectedPixelRange@TextEntry@vgui@@MAE_NAAH0@Z 10065642 f   vgui:vgui.dll
 0001:00064648       ?getSelectedRange@TextEntry@vgui@@MAE_NAAH0@Z 10065648 f   vgui:vgui.dll
 0001:0006464e       ?fireActionSignal@TextEntry@vgui@@MAEXXZ 1006564e f   vgui:vgui.dll
 0001:00064654       ?setCharAt@TextEntry@vgui@@MAEXDH@Z 10065654 f   vgui:vgui.dll
 0001:0006465a       ?setTextHidden@TextEntry@vgui@@UAEX_N@Z 1006565a f   vgui:vgui.dll
 0001:00064660       ?setFont@TextEntry@vgui@@UAEXPAVFont@2@@Z 10065660 f   vgui:vgui.dll
 0001:00064666       ?addActionSignal@TextEntry@vgui@@UAEXPAVActionSignal@2@@Z 10065666 f   vgui:vgui.dll
 0001:0006466c       ?doDeleteSelected@TextEntry@vgui@@UAEXXZ 1006566c f   vgui:vgui.dll
 0001:00064672       ?doPasteSelected@TextEntry@vgui@@UAEXXZ 10065672 f   vgui:vgui.dll
 0001:00064678       ?doPaste@TextEntry@vgui@@UAEXXZ 10065678 f   vgui:vgui.dll
 0001:0006467e       ?doCopySelected@TextEntry@vgui@@UAEXXZ 1006567e f   vgui:vgui.dll
 0001:00064684       ?doSelectNone@TextEntry@vgui@@UAEXXZ 10065684 f   vgui:vgui.dll
 0001:0006468a       ?doDelete@TextEntry@vgui@@UAEXXZ 1006568a f   vgui:vgui.dll
 0001:00064690       ?doBackspace@TextEntry@vgui@@UAEXXZ 10065690 f   vgui:vgui.dll
 0001:00064696       ?doInsertChar@TextEntry@vgui@@UAEXD@Z 10065696 f   vgui:vgui.dll
 0001:0006469c       ?doGotoEndOfLine@TextEntry@vgui@@UAEXXZ 1006569c f   vgui:vgui.dll
 0001:000646a2       ?doGotoFirstOfLine@TextEntry@vgui@@UAEXXZ 100656a2 f   vgui:vgui.dll
 0001:000646a8       ?doGotoRight@TextEntry@vgui@@UAEXXZ 100656a8 f   vgui:vgui.dll
 0001:000646ae       ?doGotoLeft@TextEntry@vgui@@UAEXXZ 100656ae f   vgui:vgui.dll
 0001:000646b4       ?resetCursorBlink@TextEntry@vgui@@UAEXXZ 100656b4 f   vgui:vgui.dll
 0001:000646ba       ?getText@TextEntry@vgui@@UAEXHPADH@Z 100656ba f   vgui:vgui.dll
 0001:000646c0       ?setText@TextEntry@vgui@@UAEXPBDH@Z 100656c0 f   vgui:vgui.dll
 0001:000646c6       ?paintBackground@TextEntry@vgui@@MAEXXZ 100656c6 f   vgui:vgui.dll
 0001:000646cc       ?paint@EtchedBorder@vgui@@MAEXPAVPanel@2@@Z 100656cc f   vgui:vgui.dll
 0001:000646d2       ?paint@LoweredBorder@vgui@@MAEXPAVPanel@2@@Z 100656d2 f   vgui:vgui.dll
 0001:000646d8       ??0TextEntry@vgui@@QAE@PBDHHHH@Z 100656d8 f   vgui:vgui.dll
 0001:000646de       ??0LoweredBorder@vgui@@QAE@XZ 100656de f   vgui:vgui.dll
 0001:000646e4       ??0TextGrid@vgui@@QAE@HHHHHH@Z 100656e4 f   vgui:vgui.dll
 0001:000646ea       ??0EtchedBorder@vgui@@QAE@XZ 100656ea f   vgui:vgui.dll
 0001:000646f0       ?readLine@DataInputStream@vgui@@UAEXPADHAA_N@Z 100656f0 f   vgui:vgui.dll
 0001:000646f6       ?readDouble@DataInputStream@vgui@@UAENAA_N@Z 100656f6 f   vgui:vgui.dll
 0001:000646fc       ?readFloat@DataInputStream@vgui@@UAEMAA_N@Z 100656fc f   vgui:vgui.dll
 0001:00064702       ?readULong@DataInputStream@vgui@@UAEKAA_N@Z 10065702 f   vgui:vgui.dll
 0001:00064708       ?readLong@DataInputStream@vgui@@UAEJAA_N@Z 10065708 f   vgui:vgui.dll
 0001:0006470e       ?readUInt@DataInputStream@vgui@@UAEIAA_N@Z 1006570e f   vgui:vgui.dll
 0001:00064714       ?readInt@DataInputStream@vgui@@UAEHAA_N@Z 10065714 f   vgui:vgui.dll
 0001:0006471a       ?readUShort@DataInputStream@vgui@@UAEGAA_N@Z 1006571a f   vgui:vgui.dll
 0001:00064720       ?readShort@DataInputStream@vgui@@UAEFAA_N@Z 10065720 f   vgui:vgui.dll
 0001:00064726       ?readChar@DataInputStream@vgui@@UAEDAA_N@Z 10065726 f   vgui:vgui.dll
 0001:0006472c       ?readBool@DataInputStream@vgui@@UAE_NAA_N@Z 1006572c f   vgui:vgui.dll
 0001:00064732       ?close@DataInputStream@vgui@@UAEXXZ 10065732 f   vgui:vgui.dll
 0001:00064738       ??0Color@vgui@@QAE@W4SchemeColor@Scheme@1@@Z 10065738 f   vgui:vgui.dll
 0001:0006473e       ??0ScrollPanel@vgui@@QAE@HHHH@Z 1006573e f   vgui:vgui.dll
 0001:00064744       ??0HeaderPanel@vgui@@QAE@HHHH@Z 10065744 f   vgui:vgui.dll
 0001:0006474a       ??0Label@vgui@@QAE@PBDHHHH@Z 1006574a f   vgui:vgui.dll
 0001:00064750       ??0TablePanel@vgui@@QAE@HHHHH@Z 10065750 f   vgui:vgui.dll
 0001:00064756       ?vgui_strdup@vgui@@YAPADPBD@Z 10065756 f   vgui:vgui.dll
 0001:0006475c       ?vgui_strcpy@vgui@@YAXPADHPBD@Z 1006575c f   vgui:vgui.dll
 0001:00064762       ??0DataInputStream@vgui@@QAE@PAVInputStream@1@@Z 10065762 f   vgui:vgui.dll
 0001:00064768       ?seekStart@DataInputStream@vgui@@UAEXAA_N@Z 10065768 f   vgui:vgui.dll
 0001:0006476e       ?seekRelative@DataInputStream@vgui@@UAEXHAA_N@Z 1006576e f   vgui:vgui.dll
 0001:00064774       ?seekEnd@DataInputStream@vgui@@UAEXAA_N@Z 10065774 f   vgui:vgui.dll
 0001:0006477a       ?getAvailable@DataInputStream@vgui@@UAEHAA_N@Z 1006577a f   vgui:vgui.dll
 0001:00064780       ?readUChar@DataInputStream@vgui@@UAEXPAEHAA_N@Z 10065780 f   vgui:vgui.dll
 0001:00064786       ?readUChar@DataInputStream@vgui@@UAEEAA_N@Z 10065786 f   vgui:vgui.dll
 0001:0006478c       ?close@DataInputStream@vgui@@UAEXAA_N@Z 1006578c f   vgui:vgui.dll
 0001:00064792       ??0BitmapTGA@vgui@@QAE@PAVInputStream@1@_N@Z 10065792 f   vgui:vgui.dll
 0001:00064798       ??0FileInputStream@vgui@@QAE@PBD_N@Z 10065798 f   vgui:vgui.dll
 0001:0006479e       ??0Slider@vgui@@QAE@HHHH_N@Z 1006579e f   vgui:vgui.dll
 0001:000647a4       ?performLayout@Layout@vgui@@UAEXPAVPanel@2@@Z 100657a4 f   vgui:vgui.dll
 0001:000647aa       ?createLayoutInfo@BorderLayout@vgui@@UAEPAVLayoutInfo@2@W4Alignment@12@@Z 100657aa f   vgui:vgui.dll
 0001:000647b0       ?performLayout@BorderLayout@vgui@@UAEXPAVPanel@2@@Z 100657b0 f   vgui:vgui.dll
 0001:000647b6       ?addModeInfo@SurfaceBase@vgui@@MAEXHHH@Z 100657b6 f   vgui:vgui.dll
 0001:000647bc       ?setEmulatedCursorPos@SurfaceBase@vgui@@UAEXHH@Z 100657bc f   vgui:vgui.dll
 0001:000647c2       ?setEmulatedCursorVisible@SurfaceBase@vgui@@UAEX_N@Z 100657c2 f   vgui:vgui.dll
 0001:000647c8       ?getApp@SurfaceBase@vgui@@UAEPAVApp@2@XZ 100657c8 f   vgui:vgui.dll
 0001:000647ce       ?getModeInfo@SurfaceBase@vgui@@UAE_NHAAH00@Z 100657ce f   vgui:vgui.dll
 0001:000647d4       ?getModeInfoCount@SurfaceBase@vgui@@UAEHXZ 100657d4 f   vgui:vgui.dll
 0001:000647da       ?resetModeInfo@SurfaceBase@vgui@@UAEXXZ 100657da f   vgui:vgui.dll
 0001:000647e0       ?requestSwap@SurfaceBase@vgui@@UAEXXZ 100657e0 f   vgui:vgui.dll
 0001:000647e6       ?getPanel@SurfaceBase@vgui@@UAEPAVPanel@2@XZ 100657e6 f   vgui:vgui.dll
 0001:000647ec       ??0BorderLayout@vgui@@QAE@H@Z 100657ec f   vgui:vgui.dll
 0001:000647f2       ?performLayout@StackLayout@vgui@@UAEXPAVPanel@2@@Z 100657f2 f   vgui:vgui.dll
 0001:000647f8       ??0Font@vgui@@QAE@PBDPAXHHHMH_N222@Z 100657f8 f   vgui:vgui.dll
 0001:000647fe       ??0TextImage@vgui@@QAE@PBD@Z 100657fe f   vgui:vgui.dll
 0001:00064804       ??0Image@vgui@@QAE@XZ      10065804 f   vgui:vgui.dll
 0001:0006480a       ??0Color@vgui@@QAE@XZ      1006580a f   vgui:vgui.dll
 0001:00064810       ?recreateContext@Surface@vgui@@MAE_NXZ 10065810 f   vgui:vgui.dll
 0001:00064816       ?createPlat@Surface@vgui@@MAE_NXZ 10065816 f   vgui:vgui.dll
 0001:0006481c       ?applyChanges@Surface@vgui@@MAEXXZ 1006581c f   vgui:vgui.dll
 0001:00064822       ?popMakeCurrent@Surface@vgui@@MAEXPAVPanel@2@@Z 10065822 f   vgui:vgui.dll
 0001:00064828       ?pushMakeCurrent@Surface@vgui@@MAEXPAVPanel@2@_N@Z 10065828 f   vgui:vgui.dll
 0001:0006482e       ?swapBuffers@Surface@vgui@@MAEXXZ 1006582e f   vgui:vgui.dll
 0001:00064834       ?setCursor@Surface@vgui@@MAEXPAVCursor@2@@Z 10065834 f   vgui:vgui.dll
 0001:0006483a       ?enableMouseCapture@Surface@vgui@@MAEX_N@Z 1006583a f   vgui:vgui.dll
 0001:00064840       ?invalidate@Surface@vgui@@MAEXPAVPanel@2@@Z 10065840 f   vgui:vgui.dll
 0001:00064846       ?drawTexturedRect@Surface@vgui@@MAEXHHHH@Z 10065846 f   vgui:vgui.dll
 0001:0006484c       ?drawSetTexture@Surface@vgui@@MAEXH@Z 1006584c f   vgui:vgui.dll
 0001:00064852       ?drawSetTextureRGBA@Surface@vgui@@MAEXHPBDHH@Z 10065852 f   vgui:vgui.dll
 0001:00064858       ?drawPrintText@Surface@vgui@@MAEXPBDH@Z 10065858 f   vgui:vgui.dll
 0001:0006485e       ?drawSetTextPos@Surface@vgui@@MAEXHH@Z 1006585e f   vgui:vgui.dll
 0001:00064864       ?drawSetTextColor@Surface@vgui@@MAEXHHHH@Z 10065864 f   vgui:vgui.dll
 0001:0006486a       ?drawSetTextFont@Surface@vgui@@MAEXPAVFont@2@@Z 1006586a f   vgui:vgui.dll
 0001:00064870       ?drawOutlinedRect@Surface@vgui@@MAEXHHHH@Z 10065870 f   vgui:vgui.dll
 0001:00064876       ?drawFilledRect@Surface@vgui@@MAEXHHHH@Z 10065876 f   vgui:vgui.dll
 0001:0006487c       ?drawSetColor@Surface@vgui@@MAEXHHHH@Z 1006587c f   vgui:vgui.dll
 0001:00064882       ?createNewTextureID@Surface@vgui@@MAEHXZ 10065882 f   vgui:vgui.dll
 0001:00064888       ?isWithin@Surface@vgui@@UAE_NHH@Z 10065888 f   vgui:vgui.dll
 0001:0006488e       ?hasFocus@Surface@vgui@@UAE_NXZ 1006588e f   vgui:vgui.dll
 0001:00064894       ?createPopup@Surface@vgui@@UAEXPAVPanel@2@@Z 10065894 f   vgui:vgui.dll
 0001:0006489a       ?setAsTopMost@Surface@vgui@@UAEX_N@Z 1006589a f   vgui:vgui.dll
 0001:000648a0       ?setWindowedMode@Surface@vgui@@UAEXXZ 100658a0 f   vgui:vgui.dll
 0001:000648a6       ?setFullscreenMode@Surface@vgui@@UAE_NHHH@Z 100658a6 f   vgui:vgui.dll
 0001:000648ac       ?setTitle@Surface@vgui@@UAEXPBD@Z 100658ac f   vgui:vgui.dll
 0001:000648b2       ?getModeInfoCount@Surface@vgui@@UAEHXZ 100658b2 f   vgui:vgui.dll
 0001:000648b8       ??1SurfaceBase@vgui@@IAE@XZ 100658b8 f   vgui:vgui.dll
 0001:000648be       ?paintBackground@MenuSeparator@vgui@@MAEXXZ 100658be f   vgui:vgui.dll
 0001:000648c4       ?getCursor@BuildGroup@vgui@@MAEPAVCursor@2@PAVPanel@2@@Z 100658c4 f   vgui:vgui.dll
 0001:000648ca       ?keyTyped@BuildGroup@vgui@@MAEXW4KeyCode@2@PAVPanel@2@@Z 100658ca f   vgui:vgui.dll
 0001:000648d0       ?mouseDoublePressed@BuildGroup@vgui@@MAEXW4MouseCode@2@PAVPanel@2@@Z 100658d0 f   vgui:vgui.dll
 0001:000648d6       ?mouseReleased@BuildGroup@vgui@@MAEXW4MouseCode@2@PAVPanel@2@@Z 100658d6 f   vgui:vgui.dll
 0001:000648dc       ?mousePressed@BuildGroup@vgui@@MAEXW4MouseCode@2@PAVPanel@2@@Z 100658dc f   vgui:vgui.dll
 0001:000648e2       ?cursorMoved@BuildGroup@vgui@@MAEXHHPAVPanel@2@@Z 100658e2 f   vgui:vgui.dll
 0001:000648e8       ?panelAdded@BuildGroup@vgui@@MAEXPAVPanel@2@PBD@Z 100658e8 f   vgui:vgui.dll
 0001:000648ee       ?fireCurrentPanelChangeSignal@BuildGroup@vgui@@EAEXXZ 100658ee f   vgui:vgui.dll
 0001:000648f4       ?applySnap@BuildGroup@vgui@@EAEXPAVPanel@2@@Z 100658f4 f   vgui:vgui.dll
 0001:000648fa       ?copyPropertiesToClipboard@BuildGroup@vgui@@UAEXXZ 100658fa f   vgui:vgui.dll
 0001:00064900       ?getCurrentPanel@BuildGroup@vgui@@UAEPAVPanel@2@XZ 10065900 f   vgui:vgui.dll
 0001:00064906       ?addCurrentPanelChangeSignal@BuildGroup@vgui@@UAEXPAVChangeSignal@2@@Z 10065906 f   vgui:vgui.dll
 0001:0006490c       ?isEnabled@BuildGroup@vgui@@UAE_NXZ 1006590c f   vgui:vgui.dll
 0001:00064912       ?setEnabled@BuildGroup@vgui@@UAEX_N@Z 10065912 f   vgui:vgui.dll
 0001:00064918       ?getInstance@App@vgui@@SAPAV12@XZ 10065918 f   vgui:vgui.dll
 0001:0006491e       _htons@4                   1006591e f   wsock32:WSOCK32.dll
 0001:00064924       __fpmath                   10065924 f   LIBCMT:fpinit.obj
 0001:0006493b       __fpclear                  1006593b f   LIBCMT:fpinit.obj
 0001:0006493c       __cfltcvt_init             1006593c f   LIBCMT:fpinit.obj
 0001:00064974       ?_JumpToContinuation@@YGXPAXPAUEHRegistrationNode@@@Z 10065974 f   LIBCMT:trnsctrl.obj
 0001:000649a8       ?_CallMemberFunction0@@YGXPAX0@Z 100659a8 f   LIBCMT:trnsctrl.obj
 0001:000649a8       ?_CallMemberFunction1@@YGXPAX00@Z 100659a8 f   LIBCMT:trnsctrl.obj
 0001:000649af       ?_CallMemberFunction2@@YGXPAX00H@Z 100659af f   LIBCMT:trnsctrl.obj
 0001:000649b6       ?_UnwindNestedFrames@@YGXPAUEHRegistrationNode@@PAUEHExceptionRecord@@@Z 100659b6 f   LIBCMT:trnsctrl.obj
 0001:00064a05       ___CxxFrameHandler         10065a05 f   LIBCMT:trnsctrl.obj
 0001:00064a3b       ?_CallCatchBlock2@@YAPAXPAUEHRegistrationNode@@PBU_s_FuncInfo@@PAXHK@Z 10065a3b f   LIBCMT:trnsctrl.obj
 0001:00064ab4       ?_CallSETranslator@@YAHPAUEHExceptionRecord@@PAUEHRegistrationNode@@PAX2PBU_s_FuncInfo@@H1@Z 10065ab4 f   LIBCMT:trnsctrl.obj
 0001:00064bdf       ?_GetRangeOfTrysToCheck@@YAPBU_s_TryBlockMapEntry@@PBU_s_FuncInfo@@HHPAI1@Z 10065bdf f   LIBCMT:trnsctrl.obj
 0001:00064c5c       __global_unwind2           10065c5c f   LIBCMT:exsup.obj
 0001:00064c9e       __local_unwind2            10065c9e f   LIBCMT:exsup.obj
 0001:00064cf6       __NLG_Return2              10065cf6 f   LIBCMT:exsup.obj
 0001:00064d06       __abnormal_termination     10065d06 f   LIBCMT:exsup.obj
 0001:00064d29       __NLG_Notify1              10065d29 f   LIBCMT:exsup.obj
 0001:00064d32       __NLG_Notify               10065d32 f   LIBCMT:exsup.obj
 0001:00064d45       __NLG_Dispatch             10065d45 f   LIBCMT:exsup.obj
 0001:00064d50       _strcmp                    10065d50 f   LIBCMT:strcmp.obj
 0001:00064de0       __CIsqrt                   10065de0 f   LIBCMT:sqrt.obj
 0001:00064df4       _sqrt                      10065df4 f   LIBCMT:sqrt.obj
 0001:00064e9a       __purecall                 10065e9a f   LIBCMT:purevirt.obj
 0001:00064eb0       _strcpy                    10065eb0 f   LIBCMT:strcat.obj
 0001:00064ec0       _strcat                    10065ec0 f   LIBCMT:strcat.obj
 0001:00064fa0       _sprintf                   10065fa0 f   LIBCMT:sprintf.obj
 0001:00064ff4       __ftol                     10065ff4 f   LIBCMT:ftol.obj
 0001:0006501b       ??3@YAXPAX@Z               1006601b f   LIBCMT:delete.obj
 0001:00065030       _memset                    10066030 f   LIBCMT:memset.obj
 0001:00065088       __cinit                    10066088 f   LIBCMT:crt0dat.obj
 0001:000650b5       _exit                      100660b5 f   LIBCMT:crt0dat.obj
 0001:000650c6       __exit                     100660c6 f   LIBCMT:crt0dat.obj
 0001:000650d7       __cexit                    100660d7 f   LIBCMT:crt0dat.obj
 0001:0006518b       __lockexit                 1006618b f   LIBCMT:crt0dat.obj
 0001:00065194       __unlockexit               10066194 f   LIBCMT:crt0dat.obj
 0001:000651b7       ??2@YAPAXI@Z               100661b7 f   LIBCMT:new.obj
 0001:000651c5       _vsprintf                  100661c5 f   LIBCMT:vsprintf.obj
 0001:00065216       _fclose                    10066216 f   LIBCMT:fclose.obj
 0001:00065247       __fclose_lk                10066247 f   LIBCMT:fclose.obj
 0001:00065293       _ftell                     10066293 f   LIBCMT:ftell.obj
 0001:000652b5       __ftell_lk                 100662b5 f   LIBCMT:ftell.obj
 0001:00065416       _fseek                     10066416 f   LIBCMT:fseek.obj
 0001:00065442       __fseek_lk                 10066442 f   LIBCMT:fseek.obj
 0001:000654cf       _fread                     100664cf f   LIBCMT:fread.obj
 0001:000654fe       __fread_lk                 100664fe f   LIBCMT:fread.obj
 0001:000655e6       __fsopen                   100665e6 f   LIBCMT:fopen.obj
 0001:00065617       _fopen                     10066617 f   LIBCMT:fopen.obj
 0001:0006562a       __snprintf                 1006662a f   LIBCMT:snprintf.obj
 0001:0006567b       _fwrite                    1006667b f   LIBCMT:fwrite.obj
 0001:000656aa       __fwrite_lk                100666aa f   LIBCMT:fwrite.obj
 0001:000657c0       _memcmp                    100667c0 f   LIBCMT:memcmp.obj
 0001:00065870       _memcpy                    10066870 f   LIBCMT:memcpy.obj
 0001:00065ba5       __onexit                   10066ba5 f   LIBCMT:onexit.obj
 0001:00065c23       _atexit                    10066c23 f   LIBCMT:onexit.obj
 0001:00065c35       ___onexitinit              10066c35 f   LIBCMT:onexit.obj
 0001:00065c64       _free                      10066c64 f   LIBCMT:free.obj
 0001:00065cac       _malloc                    10066cac f   LIBCMT:malloc.obj
 0001:00065cbe       __nh_malloc                10066cbe f   LIBCMT:malloc.obj
 0001:00065cea       __heap_alloc               10066cea f   LIBCMT:malloc.obj
 0001:00065d40       _strlen                    10066d40 f   LIBCMT:strlen.obj
 0001:00065dbb       _atof                      10066dbb f   LIBCMT:atof.obj
 0001:00065e20       __chkstk                   10066e20 f   LIBCMT:chkstk.obj
 0001:00065e20       __alloca_probe             10066e20 f   LIBCMT:chkstk.obj
 0001:00065e50       _fmod                      10066e50 f   LIBCMT:87fmod.obj
 0001:00065e5a       __CIfmod                   10066e5a f   LIBCMT:87fmod.obj
 0001:00065e82       _abs                       10066e82 f   LIBCMT:abs.obj
 0001:00065e8d       _sscanf                    10066e8d f   LIBCMT:sscanf.obj
 0001:00065ec1       _fprintf                   10066ec1 f   LIBCMT:fprintf.obj
 0001:00065efd       _ceil                      10066efd f   LIBCMT:ceil.obj
 0001:00065fd0       _memmove                   10066fd0 f   LIBCMT:memmove.obj
 0001:00066310       _strncpy                   10067310 f   LIBCMT:strncpy.obj
 0001:00066410       _strncat                   10067410 f   LIBCMT:strncat.obj
 0001:00066533       _atol                      10067533 f   LIBCMT:atox.obj
 0001:000665be       _atoi                      100675be f   LIBCMT:atox.obj
 0001:000665d0       __CIcos                    100675d0 f   LIBCMT:cos.obj
 0001:000665e4       _cos                       100675e4 f   LIBCMT:cos.obj
 0001:00066680       __CIsin                    10067680 f   LIBCMT:sin.obj
 0001:00066694       _sin                       10067694 f   LIBCMT:sin.obj
 0001:0006672e       _srand                     1006772e f   LIBCMT:rand.obj
 0001:0006673b       _rand                      1006773b f   LIBCMT:rand.obj
 0001:0006675d       _time                      1006775d f   LIBCMT:time.obj
 0001:00066840       _strncmp                   10067840 f   LIBCMT:strncmp.obj
 0001:00066878       _qsort                     10067878 f   LIBCMT:qsort.obj
 0001:00066a46       _isspace                   10067a46 f   LIBCMT:_ctype.obj
 0001:00066a6e       _isalnum                   10067a6e f   LIBCMT:_ctype.obj
 0001:00066aa0       __CIpow                    10067aa0 f   LIBCMT:pow.obj
 0001:00066ab9       _pow                       10067ab9 f   LIBCMT:pow.obj
 0001:00066cc0       __CIacos                   10067cc0 f   LIBCMT:acos.obj
 0001:00066cd4       _acos                      10067cd4 f   LIBCMT:acos.obj
 0001:00066d90       _atan2                     10067d90 f   LIBCMT:87ctriga.obj
 0001:00066d9a       __CIatan2                  10067d9a f   LIBCMT:87ctriga.obj
 0001:00066da4       _toupper                   10067da4 f   LIBCMT:toupper.obj
 0001:00066e13       __toupper_lk               10067e13 f   LIBCMT:toupper.obj
 0001:00066edf       __isctype                  10067edf f   LIBCMT:isctype.obj
 0001:00066f54       _fabs                      10067f54 f   LIBCMT:fabs.obj
 0001:00067010       _strstr                    10068010 f   LIBCMT:strstr.obj
 0001:00067090       __vsnprintf                10068090 f   LIBCMT:vsnprint.obj
 0001:000670e0       ??_L@YGXPAXIHP6EX0@Z1@Z    100680e0 f   LIBCMT:ehvecctr.obj
 0001:00067162       ??_M@YGXPAXIHP6EX0@Z@Z     10068162 f   LIBCMT:ehvecdtr.obj
 0001:000671e2       ?__ArrayUnwind@@YGXPAXIHP6EX0@Z@Z 100681e2 f   LIBCMT:ehvecdtr.obj
 0001:00067256       ??1type_info@@UAE@XZ       10068256 f   LIBCMT:typinfo.obj
 0001:0006727f       ??_Etype_info@@UAEPAXI@Z   1006827f f i LIBCMT:typinfo.obj
 0001:0006727f       ??_Gtype_info@@UAEPAXI@Z   1006827f f i LIBCMT:typinfo.obj
 0001:000672b0       _strchr                    100682b0 f   LIBCMT:strchr.obj
 0001:000672b6       ___from_strstr_to_strchr   100682b6 f   LIBCMT:strchr.obj
 0001:0006736c       __CRT_INIT@12              1006836c f   LIBCMT:dllcrt0.obj
 0001:00067445       __DllMainCRTStartup@12     10068445 f   LIBCMT:dllcrt0.obj
 0001:000674e2       __amsg_exit                100684e2 f   LIBCMT:dllcrt0.obj
 0001:00067515       __setdefaultprecision      10068515 f   LIBCMT:fp8.obj
 0001:00067527       __ms_p5_test_fdiv          10068527 f   LIBCMT:testfdiv.obj
 0001:00067565       __ms_p5_mp_test_fdiv       10068565 f   LIBCMT:testfdiv.obj
 0001:0006758e       __forcdecpt                1006858e f   LIBCMT:cvt.obj
 0001:000675e8       __cropzeros                100685e8 f   LIBCMT:cvt.obj
 0001:00067636       __positive                 10068636 f   LIBCMT:cvt.obj
 0001:0006764e       __fassign                  1006864e f   LIBCMT:cvt.obj
 0001:0006768c       __cftoe                    1006868c f   LIBCMT:cvt.obj
 0001:000677af       __cftof                    100687af f   LIBCMT:cvt.obj
 0001:000678ab       __cftog                    100688ab f   LIBCMT:cvt.obj
 0001:0006793e       __cfltcvt                  1006893e f   LIBCMT:cvt.obj
 0001:000679b4       ___InternalCxxFrameHandler 100689b4 f   LIBCMT:frame.obj
 0001:00067d09       ___FrameUnwindToState      10068d09 f   LIBCMT:frame.obj
 0001:0006812b       ?_DestructExceptionObject@@YAXPAUEHExceptionRecord@@E@Z 1006912b f   LIBCMT:frame.obj
 0001:000681c0       __CallSettingFrame@12      100691c0 f   LIBCMT:lowhelpr.obj
 0001:000681e7       __NLG_Return               100691e7 f   LIBCMT:lowhelpr.obj
 0001:0006820c       __mtinit                   1006920c f   LIBCMT:tidtable.obj
 0001:00068260       __mtterm                   10069260 f   LIBCMT:tidtable.obj
 0001:0006827e       __initptd                  1006927e f   LIBCMT:tidtable.obj
 0001:00068291       __getptd                   10069291 f   LIBCMT:tidtable.obj
 0001:000682f8       __freeptd                  100692f8 f   LIBCMT:tidtable.obj
 0001:00068398       ?terminate@@YAXXZ          10069398 f   LIBCMT:hooks.obj
 0001:000683f9       ?_inconsistency@@YAXXZ     100693f9 f   LIBCMT:hooks.obj
 0001:00068450       __trandisp1                10069450 f   LIBCMT:87disp.obj
 0001:000684b7       __trandisp2                100694b7 f   LIBCMT:87disp.obj
 0001:00068543       __rttospopde               10069543 f   LIBCMT:87disp.obj
 0001:00068548       __rttospop                 10069548 f   LIBCMT:87disp.obj
 0001:0006854a       __rtnospop                 1006954a f   LIBCMT:87disp.obj
 0001:0006854c       __rttosnpop                1006954c f   LIBCMT:87disp.obj
 0001:0006854d       __rtnospopde               1006954d f   LIBCMT:87disp.obj
 0001:00068554       __rtzeropop                10069554 f   LIBCMT:87disp.obj
 0001:00068556       __rtzeronpop               10069556 f   LIBCMT:87disp.obj
 0001:0006855b       __rtonepop                 1006955b f   LIBCMT:87disp.obj
 0001:0006855d       __rtonenpop                1006955d f   LIBCMT:87disp.obj
 0001:00068562       __tosnan1                  10069562 f   LIBCMT:87disp.obj
 0001:0006858d       __nosnan2                  1006958d f   LIBCMT:87disp.obj
 0001:0006858f       __tosnan2                  1006958f f   LIBCMT:87disp.obj
 0001:000685b7       __nan2                     100695b7 f   LIBCMT:87disp.obj
 0001:000685f6       __rtindfpop                100695f6 f   LIBCMT:87disp.obj
 0001:000685f8       __rtindfnpop               100695f8 f   LIBCMT:87disp.obj
 0001:00068609       __rttosnpopde              10069609 f   LIBCMT:87disp.obj
 0001:00068613       __rtchsifneg               10069613 f   LIBCMT:87disp.obj
 0001:00068620       __startTwoArgErrorHandling 10069620 f   LIBCMT:genexcep.obj
 0001:00068637       __startOneArgErrorHandling 10069637 f   LIBCMT:genexcep.obj
 0001:00068680       __twoToTOS                 10069680 f   LIBCMT:common.obj
 0001:00068695       __load_CW                  10069695 f   LIBCMT:common.obj
 0001:000686ac       __convertTOStoQNaN         100696ac f   LIBCMT:common.obj
 0001:000686c5       __fload_withFB             100696c5 f   LIBCMT:common.obj
 0001:00068708       __checkTOS_withFB          10069708 f   LIBCMT:common.obj
 0001:0006871e       __fast_exit                1006971e f   LIBCMT:common.obj
 0001:0006872b       __math_exit                1006972b f   LIBCMT:common.obj
 0001:00068755       __check_overflow_exit      10069755 f   LIBCMT:common.obj
 0001:00068769       __check_range_exit         10069769 f   LIBCMT:common.obj
 0001:0006880c       __flsbuf                   1006980c f   LIBCMT:_flsbuf.obj
 0001:00068924       __output                   10069924 f   LIBCMT:output.obj
 0001:0006912e       __mtinitlocks              1006a12e f   LIBCMT:mlock.obj
 0001:00069157       __mtdeletelocks            1006a157 f   LIBCMT:mlock.obj
 0001:000691c3       __lock                     1006a1c3 f   LIBCMT:mlock.obj
 0001:00069224       __unlock                   1006a224 f   LIBCMT:mlock.obj
 0001:00069239       ___initstdio               1006a239 f   LIBCMT:_file.obj
 0001:000692e1       ___endstdio                1006a2e1 f   LIBCMT:_file.obj
 0001:000692f5       __lock_file                1006a2f5 f   LIBCMT:_file.obj
 0001:00069324       __lock_file2               1006a324 f   LIBCMT:_file.obj
 0001:00069347       __unlock_file              1006a347 f   LIBCMT:_file.obj
 0001:00069376       __unlock_file2             1006a376 f   LIBCMT:_file.obj
 0001:00069399       __close                    1006a399 f   LIBCMT:close.obj
 0001:000693f6       __close_lk                 1006a3f6 f   LIBCMT:close.obj
 0001:00069479       __freebuf                  1006a479 f   LIBCMT:_freebuf.obj
 0001:000694a4       __fflush_lk                1006a4a4 f   LIBCMT:fflush.obj
 0001:000694d2       __flush                    1006a4d2 f   LIBCMT:fflush.obj
 0001:0006952e       __flushall                 1006a52e f   LIBCMT:fflush.obj
 0001:000695db       __dosmaperr                1006a5db f   LIBCMT:dosmap.obj
 0001:0006964e       __errno                    1006a64e f   LIBCMT:dosmap.obj
 0001:00069657       ___doserrno                1006a657 f   LIBCMT:dosmap.obj
 0001:00069660       __ioinit                   1006a660 f   LIBCMT:ioinit.obj
 0001:0006981c       __ioterm                   1006a81c f   LIBCMT:ioinit.obj
 0001:00069870       __lseek                    1006a870 f   LIBCMT:lseek.obj
 0001:000698d5       __lseek_lk                 1006a8d5 f   LIBCMT:lseek.obj
 0001:00069948       __filbuf                   1006a948 f   LIBCMT:_filbuf.obj
 0001:00069a24       __read                     1006aa24 f   LIBCMT:read.obj
 0001:00069a89       __read_lk                  1006aa89 f   LIBCMT:read.obj
 0001:00069c62       __openfile                 1006ac62 f   LIBCMT:_open.obj
 0001:00069dd2       __getstream                1006add2 f   LIBCMT:stream.obj
 0001:00069e9a       __write                    1006ae9a f   LIBCMT:write.obj
 0001:00069eff       __write_lk                 1006aeff f   LIBCMT:write.obj
 0001:0006a08a       _realloc                   1006b08a f   LIBCMT:realloc.obj
 0001:0006a1c2       __msize                    1006b1c2 f   LIBCMT:msize.obj
 0001:0006a207       __heap_init                1006b207 f   LIBCMT:heapinit.obj
 0001:0006a243       __heap_term                1006b243 f   LIBCMT:heapinit.obj
 0001:0006a2b8       ___sbh_heap_init           1006b2b8 f   LIBCMT:sbheap.obj
 0001:0006a2f6       ___sbh_find_block          1006b2f6 f   LIBCMT:sbheap.obj
 0001:0006a321       ___sbh_free_block          1006b321 f   LIBCMT:sbheap.obj
 0001:0006a64c       ___sbh_alloc_block         1006b64c f   LIBCMT:sbheap.obj
 0001:0006a955       ___sbh_alloc_new_region    1006b955 f   LIBCMT:sbheap.obj
 0001:0006aa06       ___sbh_alloc_new_group     1006ba06 f   LIBCMT:sbheap.obj
 0001:0006ab01       ___sbh_resize_block        1006bb01 f   LIBCMT:sbheap.obj
 0001:0006adf7       __callnewh                 1006bdf7 f   LIBCMT:handler.obj
 0001:0006ae12       __fltin2                   1006be12 f   LIBCMT:cfin.obj
 0001:0006aea0       __cintrindisp2             1006bea0 f   LIBCMT:87cdisp.obj
 0001:0006aede       __cintrindisp1             1006bede f   LIBCMT:87cdisp.obj
 0001:0006af1b       __ctrandisp2               1006bf1b f   LIBCMT:87cdisp.obj
 0001:0006b09b       __ctrandisp1               1006c09b f   LIBCMT:87cdisp.obj
 0001:0006b0ce       __fload                    1006c0ce f   LIBCMT:87cdisp.obj
 0001:0006b110       _fdiv_main_routine         1006c110 f   LIBCMT:adj_fdiv.obj
 0001:0006b227       __adj_fdiv_r               1006c227 f   LIBCMT:adj_fdiv.obj
 0001:0006b6c6       __fdivp_sti_st             1006c6c6 f   LIBCMT:adj_fdiv.obj
 0001:0006b6d9       __fdivrp_sti_st            1006c6d9 f   LIBCMT:adj_fdiv.obj
 0001:0006b6ec       __adj_fdiv_m32             1006c6ec f   LIBCMT:adj_fdiv.obj
 0001:0006b738       __adj_fdiv_m64             1006c738 f   LIBCMT:adj_fdiv.obj
 0001:0006b784       __adj_fdiv_m16i            1006c784 f   LIBCMT:adj_fdiv.obj
 0001:0006b7b8       __adj_fdiv_m32i            1006c7b8 f   LIBCMT:adj_fdiv.obj
 0001:0006b7ec       __adj_fdivr_m32            1006c7ec f   LIBCMT:adj_fdiv.obj
 0001:0006b838       __adj_fdivr_m64            1006c838 f   LIBCMT:adj_fdiv.obj
 0001:0006b884       __adj_fdivr_m16i           1006c884 f   LIBCMT:adj_fdiv.obj
 0001:0006b8b8       __adj_fdivr_m32i           1006c8b8 f   LIBCMT:adj_fdiv.obj
 0001:0006b8ec       __safe_fdiv                1006c8ec f   LIBCMT:adj_fdiv.obj
 0001:0006b901       __safe_fdivr               1006c901 f   LIBCMT:adj_fdiv.obj
 0001:0006b916       __fprem_common             1006c916 f   LIBCMT:adj_fdiv.obj
 0001:0006bb1c       __adj_fprem                1006cb1c f   LIBCMT:adj_fdiv.obj
 0001:0006bbce       __fprem1_common            1006cbce f   LIBCMT:adj_fdiv.obj
 0001:0006bdd4       __adj_fprem1               1006cdd4 f   LIBCMT:adj_fdiv.obj
 0001:0006be89       __safe_fprem               1006ce89 f   LIBCMT:adj_fdiv.obj
 0001:0006be8f       __safe_fprem1              1006ce8f f   LIBCMT:adj_fdiv.obj
 0001:0006be95       __adj_fpatan               1006ce95 f   LIBCMT:adj_fdiv.obj
 0001:0006be98       __adj_fptan                1006ce98 f   LIBCMT:adj_fdiv.obj
 0001:0006be9b       __input                    1006ce9b f   LIBCMT:input.obj
 0001:0006c94c       __stbuf                    1006d94c f   LIBCMT:_sftbuf.obj
 0001:0006c9d9       __ftbuf                    1006d9d9 f   LIBCMT:_sftbuf.obj
 0001:0006ca03       __handle_qnan1             1006da03 f   LIBCMT:fpexcept.obj
 0001:0006ca57       __except1                  1006da57 f   LIBCMT:fpexcept.obj
 0001:0006caef       __raise_exc                1006daef f   LIBCMT:fpexcept.obj
 0001:0006cda2       __handle_exc               1006dda2 f   LIBCMT:fpexcept.obj
 0001:0006cfb9       __umatherr                 1006dfb9 f   LIBCMT:fpexcept.obj
 0001:0006d041       __set_errno                1006e041 f   LIBCMT:fpexcept.obj
 0001:0006d08e       __errcode                  1006e08e f   LIBCMT:fpexcept.obj
 0001:0006d0bb       __frnd                     1006e0bb f   LIBCMT:frnd.obj
 0001:0006d0cd       __set_exp                  1006e0cd f   LIBCMT:util.obj
 0001:0006d0f6       __sptype                   1006e0f6 f   LIBCMT:util.obj
 0001:0006d150       __decomp                   1006e150 f   LIBCMT:util.obj
 0001:0006d211       __statfp                   1006e211 f   LIBCMT:fpctrl.obj
 0001:0006d21f       __clrfp                    1006e21f f   LIBCMT:fpctrl.obj
 0001:0006d22e       __ctrlfp                   1006e22e f   LIBCMT:fpctrl.obj
 0001:0006d251       __set_statfp               1006e251 f   LIBCMT:fpctrl.obj
 0001:0006d2b0       __allmul                   1006e2b0 f   LIBCMT:llmul.obj
 0001:0006d2e4       ___loctotime_t             1006e2e4 f   LIBCMT:dtoxtime.obj
 0001:0006d3c1       __fFEXP                    1006e3c1 f   LIBCMT:87tran.obj
 0001:0006d428       __rtinfpopse               1006e428 f   LIBCMT:87tran.obj
 0001:0006d42a       __rtinfnpopse              1006e42a f   LIBCMT:87tran.obj
 0001:0006d43a       __fFLN                     1006e43a f   LIBCMT:87tran.obj
 0001:0006d4ef       __rtinfpop                 1006e4ef f   LIBCMT:87tran.obj
 0001:0006d4f1       __rtinfnpop                1006e4f1 f   LIBCMT:87tran.obj
 0001:0006d50e       __ffexpm1                  1006e50e f   LIBCMT:87tran.obj
 0001:0006d5b7       __powhlp                   1006e5b7 f   LIBCMT:powhlp.obj
 0001:0006d6e7       __d_inttype                1006e6e7 f   LIBCMT:powhlp.obj
 0001:0006d76c       __fFATN2                   1006e76c f   LIBCMT:87triga.obj
 0001:0006d7bc       __rtpiby2                  1006e7bc f   LIBCMT:87triga.obj
 0001:0006d7f2       ___crtLCMapStringA         1006e7f2 f   LIBCMT:a_map.obj
 0001:0006da41       ___crtGetStringTypeA       1006ea41 f   LIBCMT:a_str.obj
 0001:0006db94       __except_handler3          1006eb94 f   LIBCMT:exsup3.obj
 0001:0006dc51       __seh_longjmp_unwind@4     1006ec51 f   LIBCMT:exsup3.obj
 0001:0006dc6c       __setenvp                  1006ec6c f   LIBCMT:stdenvp.obj
 0001:0006dd25       __setargv                  1006ed25 f   LIBCMT:stdargv.obj
 0001:0006df72       ___crtGetEnvironmentStringsA 1006ef72 f   LIBCMT:a_env.obj
 0001:0006e0a4       _DllMain@12                1006f0a4 f   LIBCMT:dllmain.obj
 0001:0006e0aa       __FF_MSGBANNER             1006f0aa f   LIBCMT:crt0msg.obj
 0001:0006e0e3       __NMSG_WRITE               1006f0e3 f   LIBCMT:crt0msg.obj
 0001:0006e236       __control87                1006f236 f   LIBCMT:ieee87.obj
 0001:0006e26b       __controlfp                1006f26b f   LIBCMT:ieee87.obj
 0001:0006e39c       _tolower                   1006f39c f   LIBCMT:tolower.obj
 0001:0006e40b       __tolower_lk               1006f40b f   LIBCMT:tolower.obj
 0001:0006e4d6       __ZeroTail                 1006f4d6 f   LIBCMT:intrncvt.obj
 0001:0006e51f       __IncMan                   1006f51f f   LIBCMT:intrncvt.obj
 0001:0006e575       __RoundMan                 1006f575 f   LIBCMT:intrncvt.obj
 0001:0006e601       __CopyMan                  1006f601 f   LIBCMT:intrncvt.obj
 0001:0006e61c       __FillZeroMan              1006f61c f   LIBCMT:intrncvt.obj
 0001:0006e628       __IsZeroMan                1006f628 f   LIBCMT:intrncvt.obj
 0001:0006e643       __ShrMan                   1006f643 f   LIBCMT:intrncvt.obj
 0001:0006e6d0       __ld12cvt                  1006f6d0 f   LIBCMT:intrncvt.obj
 0001:0006e83c       __ld12tod                  1006f83c f   LIBCMT:intrncvt.obj
 0001:0006e852       __ld12tof                  1006f852 f   LIBCMT:intrncvt.obj
 0001:0006e868       __atodbl                   1006f868 f   LIBCMT:intrncvt.obj
 0001:0006e895       __atoflt                   1006f895 f   LIBCMT:intrncvt.obj
 0001:0006e8c2       __fptostr                  1006f8c2 f   LIBCMT:_fptostr.obj
 0001:0006e939       __fltout2                  1006f939 f   LIBCMT:cfout.obj
 0001:0006e995       ___dtold                   1006f995 f   LIBCMT:cfout.obj
 0001:0006ea4b       __fptrap                   1006fa4b f   LIBCMT:crt0fp.obj
 0001:0006ea54       ?__CxxUnhandledExceptionFilter@@YGJPAU_EXCEPTION_POINTERS@@@Z 1006fa54 f   LIBCMT:unhandld.obj
 0001:0006ea9a       ?__CxxSetUnhandledExceptionFilter@@YAXXZ 1006fa9a f   LIBCMT:unhandld.obj
 0001:0006eaab       ?__CxxRestoreUnhandledExceptionFilter@@YAXXZ 1006faab f   LIBCMT:unhandld.obj
 0001:0006eab8       ?_ValidateRead@@YAHPBXI@Z  1006fab8 f   LIBCMT:validate.obj
 0001:0006ead4       ?_ValidateWrite@@YAHPAXI@Z 1006fad4 f   LIBCMT:validate.obj
 0001:0006eaf0       ?_ValidateExecute@@YAHP6GHXZ@Z 1006faf0 f   LIBCMT:validate.obj
 0001:0006eb08       _calloc                    1006fb08 f   LIBCMT:calloc.obj
 0001:0006eb95       _abort                     1006fb95 f   LIBCMT:abort.obj
 0001:0006ebac       __87except                 1006fbac f   LIBCMT:87except.obj
 0001:0006ec7c       __getbuf                   1006fc7c f   LIBCMT:_getbuf.obj
 0001:0006ecc0       __isatty                   1006fcc0 f   LIBCMT:isatty.obj
 0001:0006ece9       _wctomb                    1006fce9 f   LIBCMT:wctomb.obj
 0001:0006ed42       __wctomb_lk                1006fd42 f   LIBCMT:wctomb.obj
 0001:0006edb0       __aulldiv                  1006fdb0 f   LIBCMT:ulldiv.obj
 0001:0006ee20       __aullrem                  1006fe20 f   LIBCMT:ullrem.obj
 0001:0006ee95       __fcloseall                1006fe95 f   LIBCMT:closeall.obj
 0001:0006ef16       __alloc_osfhnd             1006ff16 f   LIBCMT:osfinfo.obj
 0001:0006f039       __set_osfhnd               10070039 f   LIBCMT:osfinfo.obj
 0001:0006f0b5       __free_osfhnd              100700b5 f   LIBCMT:osfinfo.obj
 0001:0006f134       __get_osfhandle            10070134 f   LIBCMT:osfinfo.obj
 0001:0006f176       __lock_fhandle             10070176 f   LIBCMT:osfinfo.obj
 0001:0006f1d5       __unlock_fhandle           100701d5 f   LIBCMT:osfinfo.obj
 0001:0006f1f7       __commit                   100701f7 f   LIBCMT:commit.obj
 0001:0006f28a       __sopen                    1007028a f   LIBCMT:open.obj
 0001:0006f559       ___strgtold12              10070559 f   LIBCMT:strgtold.obj
 0001:0006fa2a       _mbtowc                    10070a2a f   LIBCMT:mbtowc.obj
 0001:0006fa87       __mbtowc_lk                10070a87 f   LIBCMT:mbtowc.obj
 0001:0006fb50       __allshl                   10070b50 f   LIBCMT:llshl.obj
 0001:0006fb6f       __ungetc_lk                10070b6f f   LIBCMT:ungetc.obj
 0001:0006fbdd       __matherr                  10070bdd f   LIBCMT:matherr.obj
 0001:0006fbe0       ___tzset                   10070be0 f   LIBCMT:tzset.obj
 0001:0006fe95       __isindst                  10070e95 f   LIBCMT:tzset.obj
 0001:000701a2       __fpclass                  100711a2 f   LIBCMT:ieeemisc.obj
 0001:00070240       _strcspn                   10071240 f   LIBCMT:strcspn.obj
 0001:00070280       _strpbrk                   10071280 f   LIBCMT:strpbrk.obj
 0001:000702ba       __setmbcp                  100712ba f   LIBCMT:mbctype.obj
 0001:00070692       ___initmbctable            10071692 f   LIBCMT:mbctype.obj
 0001:000706ae       ___crtMessageBoxA          100716ae f   LIBCMT:crtmbox.obj
 0001:00070737       _raise                     10071737 f   LIBCMT:winsig.obj
 0001:000708f6       ___addl                    100718f6 f   LIBCMT:mantold.obj
 0001:00070917       ___add_12                  10071917 f   LIBCMT:mantold.obj
 0001:00070975       ___shl_12                  10071975 f   LIBCMT:mantold.obj
 0001:000709a3       ___shr_12                  100719a3 f   LIBCMT:mantold.obj
 0001:000709d0       ___mtold12                 100719d0 f   LIBCMT:mantold.obj
 0001:00070a97       _$I10_OUTPUT               10071a97 f   LIBCMT:x10fout.obj
 0001:00070d2a       __chsize_lk                10071d2a f   LIBCMT:chsize.obj
 0001:00070e4f       ___ld12mul                 10071e4f f   LIBCMT:tenpow.obj
 0001:0007106f       ___multtenpow12            1007206f f   LIBCMT:tenpow.obj
 0001:000710eb       __getenv_lk                100720eb f   LIBCMT:getenv.obj
 0001:00071170       __stricmp                  10072170 f   LIBCMT:stricmp.obj
 0001:00071170       _stricmp                   10072170 f   LIBCMT:stricmp.obj
 0001:00071170       __strcmpi                  10072170 f   LIBCMT:stricmp.obj
 0001:00071240       __strnicmp                 10072240 f   LIBCMT:strnicmp.obj
 0001:00071240       _strnicmp                  10072240 f   LIBCMT:strnicmp.obj
 0001:00071341       __setmode_lk               10072341 f   LIBCMT:setmode.obj
 0001:000713a2       __mbsnbicoll               100723a2 f   LIBCMT:mbsnbico.obj
 0001:000713e1       ___wtomb_environ           100723e1 f   LIBCMT:wtombenv.obj
 0001:0007144f       ___crtCompareStringA       1007244f f   LIBCMT:a_cmp.obj
 0001:000716cc       ___crtsetenv               100726cc f   LIBCMT:setenv.obj
 0001:00071912       __mbschr                   10072912 f   LIBCMT:mbschr.obj
 0001:000719a9       __strdup                   100729a9 f   LIBCMT:strdup.obj
 0001:000719e0       _RtlUnwind@16              100729e0 f   kernel32:KERNEL32.dll
 0001:000719e6       _strupr                    100729e6 f   LIBCMT:strupr.obj
 0001:000719e6       __strupr                   100729e6 f   LIBCMT:strupr.obj
 0002:00000000       __imp__LoadLibraryA@4      10074000     kernel32:KERNEL32.dll
 0002:00000004       __imp__FreeLibrary@4       10074004     kernel32:KERNEL32.dll
 0002:00000008       __imp__GetProcAddress@8    10074008     kernel32:KERNEL32.dll
 0002:0000000c       __imp__CompareStringW@24   1007400c     kernel32:KERNEL32.dll
 0002:00000010       __imp__CompareStringA@24   10074010     kernel32:KERNEL32.dll
 0002:00000014       __imp__SetEndOfFile@4      10074014     kernel32:KERNEL32.dll
 0002:00000018       __imp__GetOEMCP@0          10074018     kernel32:KERNEL32.dll
 0002:0000001c       __imp__GetACP@0            1007401c     kernel32:KERNEL32.dll
 0002:00000020       __imp__GetCPInfo@8         10074020     kernel32:KERNEL32.dll
 0002:00000024       __imp__CreateFileA@28      10074024     kernel32:KERNEL32.dll
 0002:00000028       __imp__FlushFileBuffers@4  10074028     kernel32:KERNEL32.dll
 0002:0000002c       __imp__SetStdHandle@8      1007402c     kernel32:KERNEL32.dll
 0002:00000030       __imp__IsBadCodePtr@4      10074030     kernel32:KERNEL32.dll
 0002:00000034       __imp__IsBadReadPtr@8      10074034     kernel32:KERNEL32.dll
 0002:00000038       __imp__SetUnhandledExceptionFilter@4 10074038     kernel32:KERNEL32.dll
 0002:0000003c       __imp__GetEnvironmentStringsW@0 1007403c     kernel32:KERNEL32.dll
 0002:00000040       __imp__GetEnvironmentStrings@0 10074040     kernel32:KERNEL32.dll
 0002:00000044       __imp__FreeEnvironmentStringsW@4 10074044     kernel32:KERNEL32.dll
 0002:00000048       __imp__FreeEnvironmentStringsA@4 10074048     kernel32:KERNEL32.dll
 0002:0000004c       __imp__GetModuleFileNameA@12 1007404c     kernel32:KERNEL32.dll
 0002:00000050       __imp__GetStringTypeW@16   10074050     kernel32:KERNEL32.dll
 0002:00000054       __imp__GetStringTypeA@20   10074054     kernel32:KERNEL32.dll
 0002:00000058       __imp__LCMapStringW@24     10074058     kernel32:KERNEL32.dll
 0002:0000005c       __imp__LCMapStringA@24     1007405c     kernel32:KERNEL32.dll
 0002:00000060       __imp__MultiByteToWideChar@24 10074060     kernel32:KERNEL32.dll
 0002:00000064       __imp__WideCharToMultiByte@32 10074064     kernel32:KERNEL32.dll
 0002:00000068       __imp__RaiseException@16   10074068     kernel32:KERNEL32.dll
 0002:0000006c       __imp__IsBadWritePtr@8     1007406c     kernel32:KERNEL32.dll
 0002:00000070       __imp__VirtualAlloc@16     10074070     kernel32:KERNEL32.dll
 0002:00000074       __imp__VirtualFree@12      10074074     kernel32:KERNEL32.dll
 0002:00000078       __imp__HeapCreate@12       10074078     kernel32:KERNEL32.dll
 0002:0000007c       __imp__HeapDestroy@4       1007407c     kernel32:KERNEL32.dll
 0002:00000080       __imp__HeapSize@12         10074080     kernel32:KERNEL32.dll
 0002:00000084       __imp__HeapReAlloc@16      10074084     kernel32:KERNEL32.dll
 0002:00000088       __imp__WriteFile@20        10074088     kernel32:KERNEL32.dll
 0002:0000008c       __imp__ReadFile@20         1007408c     kernel32:KERNEL32.dll
 0002:00000090       __imp__SetFilePointer@16   10074090     kernel32:KERNEL32.dll
 0002:00000094       __imp__GetStartupInfoA@4   10074094     kernel32:KERNEL32.dll
 0002:00000098       __imp__GetFileType@4       10074098     kernel32:KERNEL32.dll
 0002:0000009c       __imp__GetStdHandle@4      1007409c     kernel32:KERNEL32.dll
 0002:000000a0       __imp__SetHandleCount@4    100740a0     kernel32:KERNEL32.dll
 0002:000000a4       __imp__CloseHandle@4       100740a4     kernel32:KERNEL32.dll
 0002:000000a8       __imp__LeaveCriticalSection@4 100740a8     kernel32:KERNEL32.dll
 0002:000000ac       __imp__EnterCriticalSection@4 100740ac     kernel32:KERNEL32.dll
 0002:000000b0       __imp__DeleteCriticalSection@4 100740b0     kernel32:KERNEL32.dll
 0002:000000b4       __imp__InitializeCriticalSection@4 100740b4     kernel32:KERNEL32.dll
 0002:000000b8       __imp__GetLastError@0      100740b8     kernel32:KERNEL32.dll
 0002:000000bc       __imp__TlsGetValue@4       100740bc     kernel32:KERNEL32.dll
 0002:000000c0       __imp__SetLastError@4      100740c0     kernel32:KERNEL32.dll
 0002:000000c4       __imp__TlsFree@4           100740c4     kernel32:KERNEL32.dll
 0002:000000c8       __imp__TlsAlloc@0          100740c8     kernel32:KERNEL32.dll
 0002:000000cc       __imp__TlsSetValue@8       100740cc     kernel32:KERNEL32.dll
 0002:000000d0       __imp__GetCurrentThreadId@0 100740d0     kernel32:KERNEL32.dll
 0002:000000d4       __imp__GetModuleHandleA@4  100740d4     kernel32:KERNEL32.dll
 0002:000000d8       __imp__GetVersion@0        100740d8     kernel32:KERNEL32.dll
 0002:000000dc       __imp__GetCommandLineA@0   100740dc     kernel32:KERNEL32.dll
 0002:000000e0       __imp__InterlockedIncrement@4 100740e0     kernel32:KERNEL32.dll
 0002:000000e4       __imp__InterlockedDecrement@4 100740e4     kernel32:KERNEL32.dll
 0002:000000e8       __imp__GetLocalTime@4      100740e8     kernel32:KERNEL32.dll
 0002:000000ec       __imp__GetSystemTime@4     100740ec     kernel32:KERNEL32.dll
 0002:000000f0       __imp__GetTimeZoneInformation@4 100740f0     kernel32:KERNEL32.dll
 0002:000000f4       __imp__HeapAlloc@12        100740f4     kernel32:KERNEL32.dll
 0002:000000f8       __imp__HeapFree@12         100740f8     kernel32:KERNEL32.dll
 0002:000000fc       __imp__GetCurrentProcess@0 100740fc     kernel32:KERNEL32.dll
 0002:00000100       __imp__TerminateProcess@8  10074100     kernel32:KERNEL32.dll
 0002:00000104       __imp__ExitProcess@4       10074104     kernel32:KERNEL32.dll
 0002:00000108       __imp__RtlUnwind@16        10074108     kernel32:KERNEL32.dll
 0002:0000010c       __imp__SetEnvironmentVariableA@8 1007410c     kernel32:KERNEL32.dll
 0002:00000110       \177KERNEL32_NULL_THUNK_DATA 10074110     kernel32:KERNEL32.dll
 0002:00000114       __imp__glDepthRange@16     10074114     opengl32:OPENGL32.dll
 0002:00000118       \177OPENGL32_NULL_THUNK_DATA 10074118     opengl32:OPENGL32.dll
 0002:0000011c       __imp__SystemParametersInfoA@16 1007411c     user32:USER32.dll
 0002:00000120       __imp__SetCursorPos@8      10074120     user32:USER32.dll
 0002:00000124       __imp__GetCursorPos@4      10074124     user32:USER32.dll
 0002:00000128       \177USER32_NULL_THUNK_DATA 10074128     user32:USER32.dll
 0002:0000012c       __imp__joyGetDevCapsA@12   1007412c     winmm:WINMM.dll
 0002:00000130       __imp__joyGetNumDevs@0     10074130     winmm:WINMM.dll
 0002:00000134       __imp__joyGetPosEx@8       10074134     winmm:WINMM.dll
 0002:00000138       \177WINMM_NULL_THUNK_DATA  10074138     winmm:WINMM.dll
 0002:0000013c       __imp__htons@4             1007413c     wsock32:WSOCK32.dll
 0002:00000140       \177WSOCK32_NULL_THUNK_DATA 10074140     wsock32:WSOCK32.dll
 0002:00000144       __imp_?getInset@Panel@vgui@@UAEXAAH000@Z 10074144     vgui:vgui.dll
 0002:00000148       __imp_?setPaintEnabled@Panel@vgui@@UAEX_N@Z 10074148     vgui:vgui.dll
 0002:0000014c       __imp_?setPaintBackgroundEnabled@Panel@vgui@@UAEX_N@Z 1007414c     vgui:vgui.dll
 0002:00000150       __imp_?setPaintBorderEnabled@Panel@vgui@@UAEX_N@Z 10074150     vgui:vgui.dll
 0002:00000154       __imp_?setBorder@Panel@vgui@@UAEXPAVBorder@2@@Z 10074154     vgui:vgui.dll
 0002:00000158       __imp_?setAutoFocusNavEnabled@Panel@vgui@@UAEX_N@Z 10074158     vgui:vgui.dll
 0002:0000015c       __imp_?isAutoFocusNavEnabled@Panel@vgui@@UAE_NXZ 1007415c     vgui:vgui.dll
 0002:00000160       __imp_?addFocusChangeSignal@Panel@vgui@@UAEXPAVFocusChangeSignal@2@@Z 10074160     vgui:vgui.dll
 0002:00000164       __imp_?requestFocusNext@Panel@vgui@@UAEXXZ 10074164     vgui:vgui.dll
 0002:00000168       __imp_?requestFocusPrev@Panel@vgui@@UAEXXZ 10074168     vgui:vgui.dll
 0002:0000016c       __imp_?setFocusNavGroup@Panel@vgui@@UAEXPAVFocusNavGroup@2@@Z 1007416c     vgui:vgui.dll
 0002:00000170       __imp_?invalidateLayout@Panel@vgui@@UAEX_N@Z 10074170     vgui:vgui.dll
 0002:00000174       __imp_?setLayout@Panel@vgui@@UAEXPAVLayout@2@@Z 10074174     vgui:vgui.dll
 0002:00000178       __imp_?getChild@Panel@vgui@@UAEPAV12@H@Z 10074178     vgui:vgui.dll
 0002:0000017c       __imp_?getChildCount@Panel@vgui@@UAEHXZ 1007417c     vgui:vgui.dll
 0002:00000180       __imp_?hasFocus@Panel@vgui@@UAE_NXZ 10074180     vgui:vgui.dll
 0002:00000184       __imp_?requestFocus@Panel@vgui@@UAEXXZ 10074184     vgui:vgui.dll
 0002:00000188       __imp_?getMinimumSize@Panel@vgui@@UAEXAAH0@Z 10074188     vgui:vgui.dll
 0002:0000018c       __imp_?setMinimumSize@Panel@vgui@@UAEXHH@Z 1007418c     vgui:vgui.dll
 0002:00000190       __imp_?getCursor@Panel@vgui@@UAEPAVCursor@2@XZ 10074190     vgui:vgui.dll
 0002:00000194       __imp_?setCursor@Panel@vgui@@UAEXPAVCursor@2@@Z 10074194     vgui:vgui.dll
 0002:00000198       __imp_?setCursor@Panel@vgui@@UAEXW4SchemeCursor@Scheme@2@@Z 10074198     vgui:vgui.dll
 0002:0000019c       __imp_?screenToLocal@Panel@vgui@@UAEXAAH0@Z 1007419c     vgui:vgui.dll
 0002:000001a0       __imp_?localToScreen@Panel@vgui@@UAEXAAH0@Z 100741a0     vgui:vgui.dll
 0002:000001a4       __imp_?isWithinTraverse@Panel@vgui@@UAEPAV12@HH@Z 100741a4     vgui:vgui.dll
 0002:000001a8       __imp_?isWithin@Panel@vgui@@UAE_NHH@Z 100741a8     vgui:vgui.dll
 0002:000001ac       __imp_?removeRepaintSignal@Panel@vgui@@UAEXPAVRepaintSignal@2@@Z 100741ac     vgui:vgui.dll
 0002:000001b0       __imp_?addRepaintSignal@Panel@vgui@@UAEXPAVRepaintSignal@2@@Z 100741b0     vgui:vgui.dll
 0002:000001b4       __imp_?removeInputSignal@Panel@vgui@@UAEXPAVInputSignal@2@@Z 100741b4     vgui:vgui.dll
 0002:000001b8       __imp_?addInputSignal@Panel@vgui@@UAEXPAVInputSignal@2@@Z 100741b8     vgui:vgui.dll
 0002:000001bc       __imp_?wasKeyReleased@Panel@vgui@@UAE_NW4KeyCode@2@@Z 100741bc     vgui:vgui.dll
 0002:000001c0       __imp_?wasKeyTyped@Panel@vgui@@UAE_NW4KeyCode@2@@Z 100741c0     vgui:vgui.dll
 0002:000001c4       __imp_?isKeyDown@Panel@vgui@@UAE_NW4KeyCode@2@@Z 100741c4     vgui:vgui.dll
 0002:000001c8       __imp_?wasKeyPressed@Panel@vgui@@UAE_NW4KeyCode@2@@Z 100741c8     vgui:vgui.dll
 0002:000001cc       __imp_?wasMouseReleased@Panel@vgui@@UAE_NW4MouseCode@2@@Z 100741cc     vgui:vgui.dll
 0002:000001d0       __imp_?isMouseDown@Panel@vgui@@UAE_NW4MouseCode@2@@Z 100741d0     vgui:vgui.dll
 0002:000001d4       __imp_?wasMouseDoublePressed@Panel@vgui@@UAE_NW4MouseCode@2@@Z 100741d4     vgui:vgui.dll
 0002:000001d8       __imp_?wasMousePressed@Panel@vgui@@UAE_NW4MouseCode@2@@Z 100741d8     vgui:vgui.dll
 0002:000001dc       __imp_?removeChild@Panel@vgui@@UAEXPAV12@@Z 100741dc     vgui:vgui.dll
 0002:000001e0       __imp_?insertChildAt@Panel@vgui@@UAEXPAV12@H@Z 100741e0     vgui:vgui.dll
 0002:000001e4       __imp_?addChild@Panel@vgui@@UAEXPAV12@@Z 100741e4     vgui:vgui.dll
 0002:000001e8       __imp_?setParent@Panel@vgui@@UAEXPAV12@@Z 100741e8     vgui:vgui.dll
 0002:000001ec       __imp_?getClipRect@Panel@vgui@@UAEXAAH000@Z 100741ec     vgui:vgui.dll
 0002:000001f0       __imp_?getAbsExtents@Panel@vgui@@UAEXAAH000@Z 100741f0     vgui:vgui.dll
 0002:000001f4       __imp_?repaintAll@Panel@vgui@@UAEXXZ 100741f4     vgui:vgui.dll
 0002:000001f8       __imp_?repaint@Panel@vgui@@UAEXXZ 100741f8     vgui:vgui.dll
 0002:000001fc       __imp_?isVisibleUp@Panel@vgui@@UAE_NXZ 100741fc     vgui:vgui.dll
 0002:00000200       __imp_?isVisible@Panel@vgui@@UAE_NXZ 10074200     vgui:vgui.dll
 0002:00000204       __imp_?setVisible@Panel@vgui@@UAEX_N@Z 10074204     vgui:vgui.dll
 0002:00000208       __imp_?getParent@Panel@vgui@@UAEPAV12@XZ 10074208     vgui:vgui.dll
 0002:0000020c       __imp_?getTall@Panel@vgui@@UAEHXZ 1007420c     vgui:vgui.dll
 0002:00000210       __imp_?getWide@Panel@vgui@@UAEHXZ 10074210     vgui:vgui.dll
 0002:00000214       __imp_?getBounds@Panel@vgui@@UAEXAAH000@Z 10074214     vgui:vgui.dll
 0002:00000218       __imp_?setBounds@Panel@vgui@@UAEXHHHH@Z 10074218     vgui:vgui.dll
 0002:0000021c       __imp_?getSize@Panel@vgui@@UAEXAAH0@Z 1007421c     vgui:vgui.dll
 0002:00000220       __imp_?setSize@Panel@vgui@@UAEXHH@Z 10074220     vgui:vgui.dll
 0002:00000224       __imp_?getPos@Panel@vgui@@UAEXAAH0@Z 10074224     vgui:vgui.dll
 0002:00000228       __imp_?setPos@Panel@vgui@@UAEXHH@Z 10074228     vgui:vgui.dll
 0002:0000022c       __imp_?recomputeMinimumSize@Label@vgui@@MAEXXZ 1007422c     vgui:vgui.dll
 0002:00000230       __imp_?computeAlignment@Label@vgui@@MAEXAAH00000000000@Z 10074230     vgui:vgui.dll
 0002:00000234       __imp_?setContentFitted@Label@vgui@@UAEX_N@Z 10074234     vgui:vgui.dll
 0002:00000238       __imp_?setContentAlignment@Label@vgui@@UAEXW4Alignment@12@@Z 10074238     vgui:vgui.dll
 0002:0000023c       __imp_?setTextAlignment@Label@vgui@@UAEXW4Alignment@12@@Z 1007423c     vgui:vgui.dll
 0002:00000240       __imp_?getContentSize@Label@vgui@@UAEXAAH0@Z 10074240     vgui:vgui.dll
 0002:00000244       __imp_?getTextSize@Label@vgui@@UAEXAAH0@Z 10074244     vgui:vgui.dll
 0002:00000248       __imp_?setFont@Label@vgui@@UAEXW4SchemeFont@Scheme@2@@Z 10074248     vgui:vgui.dll
 0002:0000024c       __imp_?setFont@Label@vgui@@UAEXPAVFont@2@@Z 1007424c     vgui:vgui.dll
 0002:00000250       __imp_?setText@Label@vgui@@UAEXHPBD@Z 10074250     vgui:vgui.dll
 0002:00000254       __imp_?setText@Label@vgui@@UAAXPBDZZ 10074254     vgui:vgui.dll
 0002:00000258       __imp_?setImage@Label@vgui@@UAEXPAVImage@2@@Z 10074258     vgui:vgui.dll
 0002:0000025c       __imp_?paint@Label@vgui@@MAEXXZ 1007425c     vgui:vgui.dll
 0002:00000260       __imp_?setFgColor@Label@vgui@@UAEXW4SchemeColor@Scheme@2@@Z 10074260     vgui:vgui.dll
 0002:00000264       __imp_?setFgColor@Label@vgui@@UAEXHHHH@Z 10074264     vgui:vgui.dll
 0002:00000268       __imp_?createPropertyPanel@Label@vgui@@UAEPAVPanel@2@XZ 10074268     vgui:vgui.dll
 0002:0000026c       __imp_?init@Label@vgui@@AAEXHPBD_N@Z 1007426c     vgui:vgui.dll
 0002:00000270       __imp_??0Panel@vgui@@QAE@HHHH@Z 10074270     vgui:vgui.dll
 0002:00000274       __imp_?doPaint@Image@vgui@@UAEXPAVPanel@2@@Z 10074274     vgui:vgui.dll
 0002:00000278       __imp_?paint@Image@vgui@@MAEXPAVPanel@2@@Z 10074278     vgui:vgui.dll
 0002:0000027c       __imp_?drawTexturedRect@Image@vgui@@MAEXHHHH@Z 1007427c     vgui:vgui.dll
 0002:00000280       __imp_?drawSetTexture@Image@vgui@@MAEXH@Z 10074280     vgui:vgui.dll
 0002:00000284       __imp_?drawSetTextureRGBA@Image@vgui@@MAEXHPBDHH@Z 10074284     vgui:vgui.dll
 0002:00000288       __imp_?drawPrintChar@Image@vgui@@MAEXD@Z 10074288     vgui:vgui.dll
 0002:0000028c       __imp_?drawPrintChar@Image@vgui@@MAEXHHD@Z 1007428c     vgui:vgui.dll
 0002:00000290       __imp_?drawPrintText@Image@vgui@@MAEXPBDH@Z 10074290     vgui:vgui.dll
 0002:00000294       __imp_?drawPrintText@Image@vgui@@MAEXHHPBDH@Z 10074294     vgui:vgui.dll
 0002:00000298       __imp_?drawSetTextPos@Image@vgui@@MAEXHH@Z 10074298     vgui:vgui.dll
 0002:0000029c       __imp_?drawSetTextColor@Image@vgui@@MAEXW4SchemeColor@Scheme@2@@Z 1007429c     vgui:vgui.dll
 0002:000002a0       __imp_?drawSetTextColor@Image@vgui@@MAEXHHHH@Z 100742a0     vgui:vgui.dll
 0002:000002a4       __imp_?drawSetTextFont@Image@vgui@@MAEXW4SchemeFont@Scheme@2@@Z 100742a4     vgui:vgui.dll
 0002:000002a8       __imp_?drawSetTextFont@Image@vgui@@MAEXPAVFont@2@@Z 100742a8     vgui:vgui.dll
 0002:000002ac       __imp_?drawOutlinedRect@Image@vgui@@MAEXHHHH@Z 100742ac     vgui:vgui.dll
 0002:000002b0       __imp_?drawFilledRect@Image@vgui@@MAEXHHHH@Z 100742b0     vgui:vgui.dll
 0002:000002b4       __imp_?drawSetColor@Image@vgui@@MAEXW4SchemeColor@Scheme@2@@Z 100742b4     vgui:vgui.dll
 0002:000002b8       __imp_?drawSetColor@Image@vgui@@MAEXHHHH@Z 100742b8     vgui:vgui.dll
 0002:000002bc       __imp_?setSize@Image@vgui@@MAEXHH@Z 100742bc     vgui:vgui.dll
 0002:000002c0       __imp_?getColor@Image@vgui@@UAEXAAVColor@2@@Z 100742c0     vgui:vgui.dll
 0002:000002c4       __imp_?setColor@Image@vgui@@UAEXVColor@2@@Z 100742c4     vgui:vgui.dll
 0002:000002c8       __imp_?getSize@Image@vgui@@UAEXAAH0@Z 100742c8     vgui:vgui.dll
 0002:000002cc       __imp_?getPos@Image@vgui@@UAEXAAH0@Z 100742cc     vgui:vgui.dll
 0002:000002d0       __imp_?setPos@Image@vgui@@UAEXHH@Z 100742d0     vgui:vgui.dll
 0002:000002d4       __imp_?getInset@Border@vgui@@UAEXAAH000@Z 100742d4     vgui:vgui.dll
 0002:000002d8       __imp_?setInset@Border@vgui@@UAEXHHHH@Z 100742d8     vgui:vgui.dll
 0002:000002dc       __imp_?drawPrintChar@Border@vgui@@MAEXHHD@Z 100742dc     vgui:vgui.dll
 0002:000002e0       __imp_?drawPrintText@Border@vgui@@MAEXHHPBDH@Z 100742e0     vgui:vgui.dll
 0002:000002e4       __imp_?drawSetTextPos@Border@vgui@@MAEXHH@Z 100742e4     vgui:vgui.dll
 0002:000002e8       __imp_?drawOutlinedRect@Border@vgui@@MAEXHHHH@Z 100742e8     vgui:vgui.dll
 0002:000002ec       __imp_?drawFilledRect@Border@vgui@@MAEXHHHH@Z 100742ec     vgui:vgui.dll
 0002:000002f0       __imp_??0Color@vgui@@QAE@HHHH@Z 100742f0     vgui:vgui.dll
 0002:000002f4       __imp_?init@LineBorder@vgui@@EAEXHVColor@2@@Z 100742f4     vgui:vgui.dll
 0002:000002f8       __imp_?paint@LineBorder@vgui@@MAEXPAVPanel@2@@Z 100742f8     vgui:vgui.dll
 0002:000002fc       __imp_?setImage@ImagePanel@vgui@@UAEXPAVImage@2@@Z 100742fc     vgui:vgui.dll
 0002:00000300       __imp_?paintBackground@ImagePanel@vgui@@MAEXXZ 10074300     vgui:vgui.dll
 0002:00000304       __imp_??0Panel@vgui@@QAE@XZ 10074304     vgui:vgui.dll
 0002:00000308       __imp_?setRGBA@Bitmap@vgui@@MAEXHHEEEE@Z 10074308     vgui:vgui.dll
 0002:0000030c       __imp_?paint@Bitmap@vgui@@UAEXPAVPanel@2@@Z 1007430c     vgui:vgui.dll
 0002:00000310       __imp_?setSize@Bitmap@vgui@@MAEXHH@Z 10074310     vgui:vgui.dll
 0002:00000314       __imp_?loadTGA@BitmapTGA@vgui@@EAE_NPAVInputStream@2@_N@Z 10074314     vgui:vgui.dll
 0002:00000318       __imp_?setButtonController@Button@vgui@@MAEXPAVButtonController@2@@Z 10074318     vgui:vgui.dll
 0002:0000031c       __imp_?fireActionSignal@Button@vgui@@UAEXXZ 1007431c     vgui:vgui.dll
 0002:00000320       __imp_?isMouseClickEnabled@Button@vgui@@UAE_NW4MouseCode@2@@Z 10074320     vgui:vgui.dll
 0002:00000324       __imp_?setMouseClickEnabled@Button@vgui@@UAEXW4MouseCode@2@_N@Z 10074324     vgui:vgui.dll
 0002:00000328       __imp_?setButtonBorderEnabled@Button@vgui@@UAEX_N@Z 10074328     vgui:vgui.dll
 0002:0000032c       __imp_?isArmed@Button@vgui@@UAE_NXZ 1007432c     vgui:vgui.dll
 0002:00000330       __imp_?setButtonGroup@Button@vgui@@UAEXPAVButtonGroup@2@@Z 10074330     vgui:vgui.dll
 0002:00000334       __imp_?addActionSignal@Button@vgui@@UAEXPAVActionSignal@2@@Z 10074334     vgui:vgui.dll
 0002:00000338       __imp_?doClick@Button@vgui@@UAEXXZ 10074338     vgui:vgui.dll
 0002:0000033c       __imp_?isSelected@Button@vgui@@UAE_NXZ 1007433c     vgui:vgui.dll
 0002:00000340       __imp_?setArmed@Button@vgui@@UAEX_N@Z 10074340     vgui:vgui.dll
 0002:00000344       __imp_?setSelectedDirect@Button@vgui@@UAEX_N@Z 10074344     vgui:vgui.dll
 0002:00000348       __imp_?setSelected@Button@vgui@@UAEX_N@Z 10074348     vgui:vgui.dll
 0002:0000034c       __imp_?paintBackground@Button@vgui@@MAEXXZ 1007434c     vgui:vgui.dll
 0002:00000350       __imp_?createPropertyPanel@Button@vgui@@UAEPAVPanel@2@XZ 10074350     vgui:vgui.dll
 0002:00000354       __imp_??0LineBorder@vgui@@QAE@VColor@1@@Z 10074354     vgui:vgui.dll
 0002:00000358       __imp_??0Button@vgui@@QAE@PBDHHHH@Z 10074358     vgui:vgui.dll
 0002:0000035c       __imp_?getDefaultCursor@Cursor@vgui@@UAE?AW4DefaultCursor@12@XZ 1007435c     vgui:vgui.dll
 0002:00000360       __imp_?getBitmap@Cursor@vgui@@UAEPAVBitmap@2@XZ 10074360     vgui:vgui.dll
 0002:00000364       __imp_?privateInit@Cursor@vgui@@EAEXPAVBitmap@2@HH@Z 10074364     vgui:vgui.dll
 0002:00000368       __imp_?getHotspot@Cursor@vgui@@UAEXAAH0@Z 10074368     vgui:vgui.dll
 0002:0000036c       __imp_?internalTick@App@vgui@@MAEXXZ 1007436c     vgui:vgui.dll
 0002:00000370       __imp_?platTick@App@vgui@@MAEXXZ 10074370     vgui:vgui.dll
 0002:00000374       __imp_?surfaceBaseDeleted@App@vgui@@MAEXPAVSurfaceBase@2@@Z 10074374     vgui:vgui.dll
 0002:00000378       __imp_?surfaceBaseCreated@App@vgui@@MAEXPAVSurfaceBase@2@@Z 10074378     vgui:vgui.dll
 0002:0000037c       __imp_?setMouseFocus@App@vgui@@EAEXPAVPanel@2@@Z 1007437c     vgui:vgui.dll
 0002:00000380       __imp_?updateMouseFocus@App@vgui@@EAEXHHPAVSurfaceBase@2@@Z 10074380     vgui:vgui.dll
 0002:00000384       __imp_?init@App@vgui@@EAEXXZ 10074384     vgui:vgui.dll
 0002:00000388       __imp_?internalKeyReleased@App@vgui@@UAEXW4KeyCode@2@PAVSurfaceBase@2@@Z 10074388     vgui:vgui.dll
 0002:0000038c       __imp_?internalKeyTyped@App@vgui@@UAEXW4KeyCode@2@PAVSurfaceBase@2@@Z 1007438c     vgui:vgui.dll
 0002:00000390       __imp_?internalKeyPressed@App@vgui@@UAEXW4KeyCode@2@PAVSurfaceBase@2@@Z 10074390     vgui:vgui.dll
 0002:00000394       __imp_?internalMouseWheeled@App@vgui@@UAEXHPAVSurfaceBase@2@@Z 10074394     vgui:vgui.dll
 0002:00000398       __imp_?internalMouseReleased@App@vgui@@UAEXW4MouseCode@2@PAVSurfaceBase@2@@Z 10074398     vgui:vgui.dll
 0002:0000039c       __imp_?internalMouseDoublePressed@App@vgui@@UAEXW4MouseCode@2@PAVSurfaceBase@2@@Z 1007439c     vgui:vgui.dll
 0002:000003a0       __imp_?internalMousePressed@App@vgui@@UAEXW4MouseCode@2@PAVSurfaceBase@2@@Z 100743a0     vgui:vgui.dll
 0002:000003a4       __imp_?internalCursorMoved@App@vgui@@UAEXHHPAVSurfaceBase@2@@Z 100743a4     vgui:vgui.dll
 0002:000003a8       __imp_?run@App@vgui@@UAEXXZ 100743a8     vgui:vgui.dll
 0002:000003ac       __imp_?setMinimumTickMillisInterval@App@vgui@@UAEXH@Z 100743ac     vgui:vgui.dll
 0002:000003b0       __imp_?getCursorOveride@App@vgui@@UAEPAVCursor@2@XZ 100743b0     vgui:vgui.dll
 0002:000003b4       __imp_?setCursorOveride@App@vgui@@UAEXPAVCursor@2@@Z 100743b4     vgui:vgui.dll
 0002:000003b8       __imp_?getRegistryInteger@App@vgui@@UAE_NPBDAAH@Z 100743b8     vgui:vgui.dll
 0002:000003bc       __imp_?setRegistryInteger@App@vgui@@UAE_NPBDH@Z 100743bc     vgui:vgui.dll
 0002:000003c0       __imp_?getRegistryString@App@vgui@@UAE_NPBDPADH@Z 100743c0     vgui:vgui.dll
 0002:000003c4       __imp_?setRegistryString@App@vgui@@UAE_NPBD0@Z 100743c4     vgui:vgui.dll
 0002:000003c8       __imp_?internalSetMouseArena@App@vgui@@UAEXHHHH_N@Z 100743c8     vgui:vgui.dll
 0002:000003cc       __imp_?reset@App@vgui@@UAEXXZ 100743cc     vgui:vgui.dll
 0002:000003d0       __imp_?getClipboardText@App@vgui@@UAEHHPADH@Z 100743d0     vgui:vgui.dll
 0002:000003d4       __imp_?setClipboardText@App@vgui@@UAEXPBDH@Z 100743d4     vgui:vgui.dll
 0002:000003d8       __imp_?getClipboardTextCount@App@vgui@@UAEHXZ 100743d8     vgui:vgui.dll
 0002:000003dc       __imp_?getKeyCodeText@App@vgui@@UAEXW4KeyCode@2@PADH@Z 100743dc     vgui:vgui.dll
 0002:000003e0       __imp_?getKeyCodeChar@App@vgui@@UAEDW4KeyCode@2@_N@Z 100743e0     vgui:vgui.dll
 0002:000003e4       __imp_?getTimeMillis@App@vgui@@UAEJXZ 100743e4     vgui:vgui.dll
 0002:000003e8       __imp_?enableBuildMode@App@vgui@@UAEXXZ 100743e8     vgui:vgui.dll
 0002:000003ec       __imp_?getScheme@App@vgui@@UAEPAVScheme@2@XZ 100743ec     vgui:vgui.dll
 0002:000003f0       __imp_?setScheme@App@vgui@@UAEXPAVScheme@2@@Z 100743f0     vgui:vgui.dll
 0002:000003f4       __imp_?repaintAll@App@vgui@@UAEXXZ 100743f4     vgui:vgui.dll
 0002:000003f8       __imp_?getFocus@App@vgui@@UAEPAVPanel@2@XZ 100743f8     vgui:vgui.dll
 0002:000003fc       __imp_?requestFocus@App@vgui@@UAEXPAVPanel@2@@Z 100743fc     vgui:vgui.dll
 0002:00000400       __imp_?setMouseArena@App@vgui@@UAEXHHHH_N@Z 10074400     vgui:vgui.dll
 0002:00000404       __imp_?setMouseArena@App@vgui@@UAEXPAVPanel@2@@Z 10074404     vgui:vgui.dll
 0002:00000408       __imp_?setMouseCapture@App@vgui@@UAEXPAVPanel@2@@Z 10074408     vgui:vgui.dll
 0002:0000040c       __imp_?getCursorPos@App@vgui@@UAEXAAH0@Z 1007440c     vgui:vgui.dll
 0002:00000410       __imp_?setCursorPos@App@vgui@@UAEXHH@Z 10074410     vgui:vgui.dll
 0002:00000414       __imp_?addTickSignal@App@vgui@@UAEXPAVTickSignal@2@@Z 10074414     vgui:vgui.dll
 0002:00000418       __imp_?wasKeyReleased@App@vgui@@UAE_NW4KeyCode@2@PAVPanel@2@@Z 10074418     vgui:vgui.dll
 0002:0000041c       __imp_?wasKeyTyped@App@vgui@@UAE_NW4KeyCode@2@PAVPanel@2@@Z 1007441c     vgui:vgui.dll
 0002:00000420       __imp_?isKeyDown@App@vgui@@UAE_NW4KeyCode@2@PAVPanel@2@@Z 10074420     vgui:vgui.dll
 0002:00000424       __imp_?wasKeyPressed@App@vgui@@UAE_NW4KeyCode@2@PAVPanel@2@@Z 10074424     vgui:vgui.dll
 0002:00000428       __imp_?wasMouseReleased@App@vgui@@UAE_NW4MouseCode@2@PAVPanel@2@@Z 10074428     vgui:vgui.dll
 0002:0000042c       __imp_?isMouseDown@App@vgui@@UAE_NW4MouseCode@2@PAVPanel@2@@Z 1007442c     vgui:vgui.dll
 0002:00000430       __imp_?wasMouseDoublePressed@App@vgui@@UAE_NW4MouseCode@2@PAVPanel@2@@Z 10074430     vgui:vgui.dll
 0002:00000434       __imp_?wasMousePressed@App@vgui@@UAE_NW4MouseCode@2@PAVPanel@2@@Z 10074434     vgui:vgui.dll
 0002:00000438       __imp_?externalTick@App@vgui@@UAEXXZ 10074438     vgui:vgui.dll
 0002:0000043c       __imp_?stop@App@vgui@@UAEXXZ 1007443c     vgui:vgui.dll
 0002:00000440       __imp_?start@App@vgui@@UAEXXZ 10074440     vgui:vgui.dll
 0002:00000444       __imp_?setFont@TextImage@vgui@@UAEXW4SchemeFont@Scheme@2@@Z 10074444     vgui:vgui.dll
 0002:00000448       __imp_?setFont@TextImage@vgui@@UAEXPAVFont@2@@Z 10074448     vgui:vgui.dll
 0002:0000044c       __imp_?setText@TextImage@vgui@@UAEXHPBD@Z 1007444c     vgui:vgui.dll
 0002:00000450       __imp_?setText@TextImage@vgui@@UAEXPBD@Z 10074450     vgui:vgui.dll
 0002:00000454       __imp_?getFont@TextImage@vgui@@UAEPAVFont@2@XZ 10074454     vgui:vgui.dll
 0002:00000458       __imp_?getTextSizeWrapped@TextImage@vgui@@UAEXAAH0@Z 10074458     vgui:vgui.dll
 0002:0000045c       __imp_?getTextSize@TextImage@vgui@@UAEXAAH0@Z 1007445c     vgui:vgui.dll
 0002:00000460       __imp_?init@TextImage@vgui@@EAEXHPBD@Z 10074460     vgui:vgui.dll
 0002:00000464       __imp_?paint@TextImage@vgui@@MAEXPAVPanel@2@@Z 10074464     vgui:vgui.dll
 0002:00000468       __imp_?setSize@TextImage@vgui@@UAEXHH@Z 10074468     vgui:vgui.dll
 0002:0000046c       __imp_??0ImagePanel@vgui@@QAE@PAVImage@1@@Z 1007446c     vgui:vgui.dll
 0002:00000470       __imp_??0Label@vgui@@QAE@PBD@Z 10074470     vgui:vgui.dll
 0002:00000474       __imp_?fireMinimizingSignal@Frame@vgui@@UAEXXZ 10074474     vgui:vgui.dll
 0002:00000478       __imp_?fireClosingSignal@Frame@vgui@@UAEXXZ 10074478     vgui:vgui.dll
 0002:0000047c       __imp_?setCloseButtonVisible@Frame@vgui@@UAEX_N@Z 1007447c     vgui:vgui.dll
 0002:00000480       __imp_?setMaximizeButtonVisible@Frame@vgui@@UAEX_N@Z 10074480     vgui:vgui.dll
 0002:00000484       __imp_?setMinimizeButtonVisible@Frame@vgui@@UAEX_N@Z 10074484     vgui:vgui.dll
 0002:00000488       __imp_?setTrayButtonVisible@Frame@vgui@@UAEX_N@Z 10074488     vgui:vgui.dll
 0002:0000048c       __imp_?setMenuButtonVisible@Frame@vgui@@UAEX_N@Z 1007448c     vgui:vgui.dll
 0002:00000490       __imp_?addFrameSignal@Frame@vgui@@UAEXPAVFrameSignal@2@@Z 10074490     vgui:vgui.dll
 0002:00000494       __imp_?isSizeable@Frame@vgui@@UAE_NXZ 10074494     vgui:vgui.dll
 0002:00000498       __imp_?isMoveable@Frame@vgui@@UAE_NXZ 10074498     vgui:vgui.dll
 0002:0000049c       __imp_?setSizeable@Frame@vgui@@UAEX_N@Z 1007449c     vgui:vgui.dll
 0002:000004a0       __imp_?setMoveable@Frame@vgui@@UAEX_N@Z 100744a0     vgui:vgui.dll
 0002:000004a4       __imp_?getTitle@Frame@vgui@@UAEXPADH@Z 100744a4     vgui:vgui.dll
 0002:000004a8       __imp_?setTitle@Frame@vgui@@UAEXPBD@Z 100744a8     vgui:vgui.dll
 0002:000004ac       __imp_?getClient@Frame@vgui@@UAEPAVPanel@2@XZ 100744ac     vgui:vgui.dll
 0002:000004b0       __imp_?isInternal@Frame@vgui@@UAE_NXZ 100744b0     vgui:vgui.dll
 0002:000004b4       __imp_?setInternal@Frame@vgui@@UAEX_N@Z 100744b4     vgui:vgui.dll
 0002:000004b8       __imp_?paintBackground@Frame@vgui@@UAEXXZ 100744b8     vgui:vgui.dll
 0002:000004bc       __imp_?setVisible@Frame@vgui@@UAEX_N@Z 100744bc     vgui:vgui.dll
 0002:000004c0       __imp_?setSize@Frame@vgui@@UAEXHH@Z 100744c0     vgui:vgui.dll
 0002:000004c4       __imp_?getTextImage@TextPanel@vgui@@UAEPAVTextImage@2@XZ 100744c4     vgui:vgui.dll
 0002:000004c8       __imp_?setFont@TextPanel@vgui@@UAEXW4SchemeFont@Scheme@2@@Z 100744c8     vgui:vgui.dll
 0002:000004cc       __imp_?setFont@TextPanel@vgui@@UAEXPAVFont@2@@Z 100744cc     vgui:vgui.dll
 0002:000004d0       __imp_?setText@TextPanel@vgui@@UAEXPBD@Z 100744d0     vgui:vgui.dll
 0002:000004d4       __imp_?paint@TextPanel@vgui@@MAEXXZ 100744d4     vgui:vgui.dll
 0002:000004d8       __imp_?setFgColor@TextPanel@vgui@@UAEXW4SchemeColor@Scheme@2@@Z 100744d8     vgui:vgui.dll
 0002:000004dc       __imp_?setFgColor@TextPanel@vgui@@UAEXHHHH@Z 100744dc     vgui:vgui.dll
 0002:000004e0       __imp_?setSize@TextPanel@vgui@@UAEXHH@Z 100744e0     vgui:vgui.dll
 0002:000004e4       __imp_?applyPersistanceText@Panel@vgui@@UAEXPBD@Z 100744e4     vgui:vgui.dll
 0002:000004e8       __imp_?close@FileInputStream@vgui@@UAEXAA_N@Z 100744e8     vgui:vgui.dll
 0002:000004ec       __imp_?readUChar@FileInputStream@vgui@@UAEEAA_N@Z 100744ec     vgui:vgui.dll
 0002:000004f0       __imp_?readUChar@FileInputStream@vgui@@UAEXPAEHAA_N@Z 100744f0     vgui:vgui.dll
 0002:000004f4       __imp_?getAvailable@FileInputStream@vgui@@UAEHAA_N@Z 100744f4     vgui:vgui.dll
 0002:000004f8       __imp_?getPaintSize@Panel@vgui@@UAEXAAH0@Z 100744f8     vgui:vgui.dll
 0002:000004fc       __imp_?seekRelative@FileInputStream@vgui@@UAEXHAA_N@Z 100744fc     vgui:vgui.dll
 0002:00000500       __imp_?seekStart@FileInputStream@vgui@@UAEXAA_N@Z 10074500     vgui:vgui.dll
 0002:00000504       __imp_?getMiniApp@DesktopIcon@vgui@@UAEPAVMiniApp@2@XZ 10074504     vgui:vgui.dll
 0002:00000508       __imp_?setDesktop@DesktopIcon@vgui@@UAEXPAVDesktop@2@@Z 10074508     vgui:vgui.dll
 0002:0000050c       __imp_?setImage@DesktopIcon@vgui@@UAEXPAVImage@2@@Z 1007450c     vgui:vgui.dll
 0002:00000510       __imp_?doActivate@DesktopIcon@vgui@@UAEXXZ 10074510     vgui:vgui.dll
 0002:00000514       __imp_?paintBackground@DesktopIcon@vgui@@MAEXXZ 10074514     vgui:vgui.dll
 0002:00000518       __imp_?setName@MiniApp@vgui@@MAEXPBD@Z 10074518     vgui:vgui.dll
 0002:0000051c       __imp_?getName@MiniApp@vgui@@UAEXPADH@Z 1007451c     vgui:vgui.dll
 0002:00000520       __imp_?recomputeScroll@ScrollPanel@vgui@@UAEXXZ 10074520     vgui:vgui.dll
 0002:00000524       __imp_?validate@ScrollPanel@vgui@@UAEXXZ 10074524     vgui:vgui.dll
 0002:00000528       __imp_?getVerticalScrollBar@ScrollPanel@vgui@@UAEPAVScrollBar@2@XZ 10074528     vgui:vgui.dll
 0002:0000052c       __imp_?getHorizontalScrollBar@ScrollPanel@vgui@@UAEPAVScrollBar@2@XZ 1007452c     vgui:vgui.dll
 0002:00000530       __imp_?recomputeClientSize@ScrollPanel@vgui@@UAEXXZ 10074530     vgui:vgui.dll
 0002:00000534       __imp_?getScrollValue@ScrollPanel@vgui@@UAEXAAH0@Z 10074534     vgui:vgui.dll
 0002:00000538       __imp_?setScrollValue@ScrollPanel@vgui@@UAEXHH@Z 10074538     vgui:vgui.dll
 0002:0000053c       __imp_?getClientClip@ScrollPanel@vgui@@UAEPAVPanel@2@XZ 1007453c     vgui:vgui.dll
 0002:00000540       __imp_?getClient@ScrollPanel@vgui@@UAEPAVPanel@2@XZ 10074540     vgui:vgui.dll
 0002:00000544       __imp_?setScrollBarAutoVisible@ScrollPanel@vgui@@UAEX_N0@Z 10074544     vgui:vgui.dll
 0002:00000548       __imp_?setScrollBarVisible@ScrollPanel@vgui@@UAEX_N0@Z 10074548     vgui:vgui.dll
 0002:0000054c       __imp_?setSize@ScrollPanel@vgui@@MAEXHH@Z 1007454c     vgui:vgui.dll
 0002:00000550       __imp_?fireIntChangeSignal@ScrollBar@vgui@@UAEXXZ 10074550     vgui:vgui.dll
 0002:00000554       __imp_?validate@ScrollBar@vgui@@UAEXXZ 10074554     vgui:vgui.dll
 0002:00000558       __imp_?setButtonPressedScrollValue@ScrollBar@vgui@@UAEXH@Z 10074558     vgui:vgui.dll
 0002:0000055c       __imp_?doButtonPressed@ScrollBar@vgui@@UAEXH@Z 1007455c     vgui:vgui.dll
 0002:00000560       __imp_?getSlider@ScrollBar@vgui@@UAEPAVSlider@2@XZ 10074560     vgui:vgui.dll
 0002:00000564       __imp_?setSlider@ScrollBar@vgui@@UAEXPAVSlider@2@@Z 10074564     vgui:vgui.dll
 0002:00000568       __imp_?getButton@ScrollBar@vgui@@UAEPAVButton@2@H@Z 10074568     vgui:vgui.dll
 0002:0000056c       __imp_?setButton@ScrollBar@vgui@@UAEXPAVButton@2@H@Z 1007456c     vgui:vgui.dll
 0002:00000570       __imp_?hasFullRange@ScrollBar@vgui@@UAE_NXZ 10074570     vgui:vgui.dll
 0002:00000574       __imp_?isVertical@ScrollBar@vgui@@UAE_NXZ 10074574     vgui:vgui.dll
 0002:00000578       __imp_?setRangeWindowEnabled@ScrollBar@vgui@@UAEX_N@Z 10074578     vgui:vgui.dll
 0002:0000057c       __imp_?setRangeWindow@ScrollBar@vgui@@UAEXH@Z 1007457c     vgui:vgui.dll
 0002:00000580       __imp_?setBuildGroup@Panel@vgui@@UAEXPAVBuildGroup@2@PBD@Z 10074580     vgui:vgui.dll
 0002:00000584       __imp_?getPreferredSize@Panel@vgui@@UAEXAAH0@Z 10074584     vgui:vgui.dll
 0002:00000588       __imp_?getValue@ScrollBar@vgui@@UAEHXZ 10074588     vgui:vgui.dll
 0002:0000058c       __imp_?setValue@ScrollBar@vgui@@UAEXH@Z 1007458c     vgui:vgui.dll
 0002:00000590       __imp_?performLayout@ScrollBar@vgui@@MAEXXZ 10074590     vgui:vgui.dll
 0002:00000594       __imp_?setSize@ScrollBar@vgui@@UAEXHH@Z 10074594     vgui:vgui.dll
 0002:00000598       __imp_?fireIntChangeSignal@Slider@vgui@@MAEXXZ 10074598     vgui:vgui.dll
 0002:0000059c       __imp_?privateMouseReleased@Slider@vgui@@UAEXW4MouseCode@2@PAVPanel@2@@Z 1007459c     vgui:vgui.dll
 0002:000005a0       __imp_?privateMousePressed@Slider@vgui@@UAEXW4MouseCode@2@PAVPanel@2@@Z 100745a0     vgui:vgui.dll
 0002:000005a4       __imp_?privateCursorMoved@Slider@vgui@@UAEXHHPAVPanel@2@@Z 100745a4     vgui:vgui.dll
 0002:000005a8       __imp_?recomputeValueFromNobPos@Slider@vgui@@EAEXXZ 100745a8     vgui:vgui.dll
 0002:000005ac       __imp_?recomputeNobPosFromValue@Slider@vgui@@EAEXXZ 100745ac     vgui:vgui.dll
 0002:000005b0       __imp_?setButtonOffset@Slider@vgui@@UAEXH@Z 100745b0     vgui:vgui.dll
 0002:000005b4       __imp_?hasFullRange@Slider@vgui@@UAE_NXZ 100745b4     vgui:vgui.dll
 0002:000005b8       __imp_?getNobPos@Slider@vgui@@UAEXAAH0@Z 100745b8     vgui:vgui.dll
 0002:000005bc       __imp_?setRangeWindowEnabled@Slider@vgui@@UAEX_N@Z 100745bc     vgui:vgui.dll
 0002:000005c0       __imp_?setRangeWindow@Slider@vgui@@UAEXH@Z 100745c0     vgui:vgui.dll
 0002:000005c4       __imp_?getRange@Slider@vgui@@UAEXAAH0@Z 100745c4     vgui:vgui.dll
 0002:000005c8       __imp_?setRange@Slider@vgui@@UAEXHH@Z 100745c8     vgui:vgui.dll
 0002:000005cc       __imp_?addIntChangeSignal@Slider@vgui@@UAEXPAVIntChangeSignal@2@@Z 100745cc     vgui:vgui.dll
 0002:000005d0       __imp_?isVertical@Slider@vgui@@UAE_NXZ 100745d0     vgui:vgui.dll
 0002:000005d4       __imp_?getValue@Slider@vgui@@UAEHXZ 100745d4     vgui:vgui.dll
 0002:000005d8       __imp_?setValue@Slider@vgui@@UAEXH@Z 100745d8     vgui:vgui.dll
 0002:000005dc       __imp_?paintBackground@Slider@vgui@@MAEXXZ 100745dc     vgui:vgui.dll
 0002:000005e0       __imp_?setSize@Slider@vgui@@UAEXHH@Z 100745e0     vgui:vgui.dll
 0002:000005e4       __imp_?getId@Font@vgui@@UAEHXZ 100745e4     vgui:vgui.dll
 0002:000005e8       __imp_?getTall@Font@vgui@@UAEHXZ 100745e8     vgui:vgui.dll
 0002:000005ec       __imp_?getTextSize@Font@vgui@@UAEXPBDAAH1@Z 100745ec     vgui:vgui.dll
 0002:000005f0       __imp_?getCharABCwide@Font@vgui@@UAEXHAAH00@Z 100745f0     vgui:vgui.dll
 0002:000005f4       __imp_?getCharRGBA@Font@vgui@@UAEXHHHHHPAE@Z 100745f4     vgui:vgui.dll
 0002:000005f8       __imp_?init@Font@vgui@@EAEXPBDPAXHHHMH_N222@Z 100745f8     vgui:vgui.dll
 0002:000005fc       __imp_?privateKeyTyped@TablePanel@vgui@@EAEXW4KeyCode@2@PAVPanel@2@@Z 100745fc     vgui:vgui.dll
 0002:00000600       __imp_?privateMouseDoublePressed@TablePanel@vgui@@EAEXW4MouseCode@2@PAVPanel@2@@Z 10074600     vgui:vgui.dll
 0002:00000604       __imp_?privateMousePressed@TablePanel@vgui@@EAEXW4MouseCode@2@PAVPanel@2@@Z 10074604     vgui:vgui.dll
 0002:00000608       __imp_?stopCellEditing@TablePanel@vgui@@UAEXXZ 10074608     vgui:vgui.dll
 0002:0000060c       __imp_?setEditableCell@TablePanel@vgui@@UAEXHH@Z 1007460c     vgui:vgui.dll
 0002:00000610       __imp_?setCellSectionEnabled@TablePanel@vgui@@UAEX_N@Z 10074610     vgui:vgui.dll
 0002:00000614       __imp_?setRowSelectionEnabled@TablePanel@vgui@@UAEX_N@Z 10074614     vgui:vgui.dll
 0002:00000618       __imp_?setColumnSelectionEnabled@TablePanel@vgui@@UAEX_N@Z 10074618     vgui:vgui.dll
 0002:0000061c       __imp_?setHeaderPanel@TablePanel@vgui@@UAEXPAVHeaderPanel@2@@Z 1007461c     vgui:vgui.dll
 0002:00000620       __imp_?getSelectedCell@TablePanel@vgui@@UAEXAAH0@Z 10074620     vgui:vgui.dll
 0002:00000624       __imp_?setSelectedCell@TablePanel@vgui@@UAEXHH@Z 10074624     vgui:vgui.dll
 0002:00000628       __imp_?setColumnExtents@TablePanel@vgui@@UAEXHHH@Z 10074628     vgui:vgui.dll
 0002:0000062c       __imp_?getColumnCount@TablePanel@vgui@@UAEHXZ 1007462c     vgui:vgui.dll
 0002:00000630       __imp_?setGridSize@TablePanel@vgui@@UAEXHH@Z 10074630     vgui:vgui.dll
 0002:00000634       __imp_?setGridVisible@TablePanel@vgui@@UAEX_N0@Z 10074634     vgui:vgui.dll
 0002:00000638       __imp_?setColumnCount@TablePanel@vgui@@UAEXH@Z 10074638     vgui:vgui.dll
 0002:0000063c       __imp_?setCellEditingEnabled@TablePanel@vgui@@UAEX_N@Z 1007463c     vgui:vgui.dll
 0002:00000640       __imp_?paint@TablePanel@vgui@@MAEXXZ 10074640     vgui:vgui.dll
 0002:00000644       __imp_?getVirtualSize@TablePanel@vgui@@UAEXAAH0@Z 10074644     vgui:vgui.dll
 0002:00000648       __imp_?isWithinTraverse@TablePanel@vgui@@MAEPAVPanel@2@HH@Z 10074648     vgui:vgui.dll
 0002:0000064c       __imp_?privateMouseReleased@HeaderPanel@vgui@@UAEXW4MouseCode@2@PAVPanel@2@@Z 1007464c     vgui:vgui.dll
 0002:00000650       __imp_?privateMousePressed@HeaderPanel@vgui@@UAEXW4MouseCode@2@PAVPanel@2@@Z 10074650     vgui:vgui.dll
 0002:00000654       __imp_?privateCursorMoved@HeaderPanel@vgui@@UAEXHHPAVPanel@2@@Z 10074654     vgui:vgui.dll
 0002:00000658       __imp_?fireChangeSignal@HeaderPanel@vgui@@UAEXXZ 10074658     vgui:vgui.dll
 0002:0000065c       __imp_?addChangeSignal@HeaderPanel@vgui@@UAEXPAVChangeSignal@2@@Z 1007465c     vgui:vgui.dll
 0002:00000660       __imp_?getSectionExtents@HeaderPanel@vgui@@UAEXHAAH0@Z 10074660     vgui:vgui.dll
 0002:00000664       __imp_?getSectionCount@HeaderPanel@vgui@@UAEHXZ 10074664     vgui:vgui.dll
 0002:00000668       __imp_?setSliderPos@HeaderPanel@vgui@@UAEXHH@Z 10074668     vgui:vgui.dll
 0002:0000066c       __imp_?addSectionPanel@HeaderPanel@vgui@@UAEXPAVPanel@2@@Z 1007466c     vgui:vgui.dll
 0002:00000670       __imp_?performLayout@HeaderPanel@vgui@@MAEXXZ 10074670     vgui:vgui.dll
 0002:00000674       __imp_?printf@TextGrid@vgui@@UAAHPBDZZ 10074674     vgui:vgui.dll
 0002:00000678       __imp_?vprintf@TextGrid@vgui@@UAEHPBDPAD@Z 10074678     vgui:vgui.dll
 0002:0000067c       __imp_?setXY@TextGrid@vgui@@UAEXHH@Z 1007467c     vgui:vgui.dll
 0002:00000680       __imp_?newLine@TextGrid@vgui@@UAEXXZ 10074680     vgui:vgui.dll
 0002:00000684       __imp_?setGridSize@TextGrid@vgui@@UAEXHH@Z 10074684     vgui:vgui.dll
 0002:00000688       __imp_?paintBackground@TextGrid@vgui@@MAEXXZ 10074688     vgui:vgui.dll
 0002:0000068c       __imp_??0TextPanel@vgui@@QAE@PBDHHHH@Z 1007468c     vgui:vgui.dll
 0002:00000690       __imp_??0Label@vgui@@QAE@PBDHH@Z 10074690     vgui:vgui.dll
 0002:00000694       __imp_?keyFocusTicked@TextEntry@vgui@@MAEXPAVPanel@2@@Z 10074694     vgui:vgui.dll
 0002:00000698       __imp_?keyReleased@TextEntry@vgui@@MAEXW4KeyCode@2@PAVPanel@2@@Z 10074698     vgui:vgui.dll
 0002:0000069c       __imp_?keyTyped@TextEntry@vgui@@MAEXW4KeyCode@2@PAVPanel@2@@Z 1007469c     vgui:vgui.dll
 0002:000006a0       __imp_?keyPressed@TextEntry@vgui@@MAEXW4KeyCode@2@PAVPanel@2@@Z 100746a0     vgui:vgui.dll
 0002:000006a4       __imp_?mouseWheeled@TextEntry@vgui@@MAEXHPAVPanel@2@@Z 100746a4     vgui:vgui.dll
 0002:000006a8       __imp_?mouseReleased@TextEntry@vgui@@MAEXW4MouseCode@2@PAVPanel@2@@Z 100746a8     vgui:vgui.dll
 0002:000006ac       __imp_?mouseDoublePressed@TextEntry@vgui@@MAEXW4MouseCode@2@PAVPanel@2@@Z 100746ac     vgui:vgui.dll
 0002:000006b0       __imp_?mousePressed@TextEntry@vgui@@MAEXW4MouseCode@2@PAVPanel@2@@Z 100746b0     vgui:vgui.dll
 0002:000006b4       __imp_?cursorExited@TextEntry@vgui@@MAEXPAVPanel@2@@Z 100746b4     vgui:vgui.dll
 0002:000006b8       __imp_?cursorEntered@TextEntry@vgui@@MAEXPAVPanel@2@@Z 100746b8     vgui:vgui.dll
 0002:000006bc       __imp_?cursorMoved@TextEntry@vgui@@MAEXHHPAVPanel@2@@Z 100746bc     vgui:vgui.dll
 0002:000006c0       __imp_?selectCheck@TextEntry@vgui@@MAEXXZ 100746c0     vgui:vgui.dll
 0002:000006c4       __imp_?cursorToPixelSpace@TextEntry@vgui@@MAEHH@Z 100746c4     vgui:vgui.dll
 0002:000006c8       __imp_?getSelectedPixelRange@TextEntry@vgui@@MAE_NAAH0@Z 100746c8     vgui:vgui.dll
 0002:000006cc       __imp_?getSelectedRange@TextEntry@vgui@@MAE_NAAH0@Z 100746cc     vgui:vgui.dll
 0002:000006d0       __imp_?fireActionSignal@TextEntry@vgui@@MAEXXZ 100746d0     vgui:vgui.dll
 0002:000006d4       __imp_?setCharAt@TextEntry@vgui@@MAEXDH@Z 100746d4     vgui:vgui.dll
 0002:000006d8       __imp_?setTextHidden@TextEntry@vgui@@UAEX_N@Z 100746d8     vgui:vgui.dll
 0002:000006dc       __imp_?setFont@TextEntry@vgui@@UAEXPAVFont@2@@Z 100746dc     vgui:vgui.dll
 0002:000006e0       __imp_?addActionSignal@TextEntry@vgui@@UAEXPAVActionSignal@2@@Z 100746e0     vgui:vgui.dll
 0002:000006e4       __imp_?doDeleteSelected@TextEntry@vgui@@UAEXXZ 100746e4     vgui:vgui.dll
 0002:000006e8       __imp_?doPasteSelected@TextEntry@vgui@@UAEXXZ 100746e8     vgui:vgui.dll
 0002:000006ec       __imp_?doPaste@TextEntry@vgui@@UAEXXZ 100746ec     vgui:vgui.dll
 0002:000006f0       __imp_?doCopySelected@TextEntry@vgui@@UAEXXZ 100746f0     vgui:vgui.dll
 0002:000006f4       __imp_?doSelectNone@TextEntry@vgui@@UAEXXZ 100746f4     vgui:vgui.dll
 0002:000006f8       __imp_?doDelete@TextEntry@vgui@@UAEXXZ 100746f8     vgui:vgui.dll
 0002:000006fc       __imp_?doBackspace@TextEntry@vgui@@UAEXXZ 100746fc     vgui:vgui.dll
 0002:00000700       __imp_?doInsertChar@TextEntry@vgui@@UAEXD@Z 10074700     vgui:vgui.dll
 0002:00000704       __imp_?doGotoEndOfLine@TextEntry@vgui@@UAEXXZ 10074704     vgui:vgui.dll
 0002:00000708       __imp_?doGotoFirstOfLine@TextEntry@vgui@@UAEXXZ 10074708     vgui:vgui.dll
 0002:0000070c       __imp_?doGotoRight@TextEntry@vgui@@UAEXXZ 1007470c     vgui:vgui.dll
 0002:00000710       __imp_?doGotoLeft@TextEntry@vgui@@UAEXXZ 10074710     vgui:vgui.dll
 0002:00000714       __imp_?resetCursorBlink@TextEntry@vgui@@UAEXXZ 10074714     vgui:vgui.dll
 0002:00000718       __imp_?getText@TextEntry@vgui@@UAEXHPADH@Z 10074718     vgui:vgui.dll
 0002:0000071c       __imp_?setText@TextEntry@vgui@@UAEXPBDH@Z 1007471c     vgui:vgui.dll
 0002:00000720       __imp_?paintBackground@TextEntry@vgui@@MAEXXZ 10074720     vgui:vgui.dll
 0002:00000724       __imp_?paint@EtchedBorder@vgui@@MAEXPAVPanel@2@@Z 10074724     vgui:vgui.dll
 0002:00000728       __imp_?paint@LoweredBorder@vgui@@MAEXPAVPanel@2@@Z 10074728     vgui:vgui.dll
 0002:0000072c       __imp_??0TextEntry@vgui@@QAE@PBDHHHH@Z 1007472c     vgui:vgui.dll
 0002:00000730       __imp_??0LoweredBorder@vgui@@QAE@XZ 10074730     vgui:vgui.dll
 0002:00000734       __imp_??0TextGrid@vgui@@QAE@HHHHHH@Z 10074734     vgui:vgui.dll
 0002:00000738       __imp_??0EtchedBorder@vgui@@QAE@XZ 10074738     vgui:vgui.dll
 0002:0000073c       __imp_?readLine@DataInputStream@vgui@@UAEXPADHAA_N@Z 1007473c     vgui:vgui.dll
 0002:00000740       __imp_?readDouble@DataInputStream@vgui@@UAENAA_N@Z 10074740     vgui:vgui.dll
 0002:00000744       __imp_?readFloat@DataInputStream@vgui@@UAEMAA_N@Z 10074744     vgui:vgui.dll
 0002:00000748       __imp_?readULong@DataInputStream@vgui@@UAEKAA_N@Z 10074748     vgui:vgui.dll
 0002:0000074c       __imp_?readLong@DataInputStream@vgui@@UAEJAA_N@Z 1007474c     vgui:vgui.dll
 0002:00000750       __imp_?readUInt@DataInputStream@vgui@@UAEIAA_N@Z 10074750     vgui:vgui.dll
 0002:00000754       __imp_?readInt@DataInputStream@vgui@@UAEHAA_N@Z 10074754     vgui:vgui.dll
 0002:00000758       __imp_?readUShort@DataInputStream@vgui@@UAEGAA_N@Z 10074758     vgui:vgui.dll
 0002:0000075c       __imp_?readShort@DataInputStream@vgui@@UAEFAA_N@Z 1007475c     vgui:vgui.dll
 0002:00000760       __imp_?readChar@DataInputStream@vgui@@UAEDAA_N@Z 10074760     vgui:vgui.dll
 0002:00000764       __imp_?readBool@DataInputStream@vgui@@UAE_NAA_N@Z 10074764     vgui:vgui.dll
 0002:00000768       __imp_?close@DataInputStream@vgui@@UAEXXZ 10074768     vgui:vgui.dll
 0002:0000076c       __imp_??0Color@vgui@@QAE@W4SchemeColor@Scheme@1@@Z 1007476c     vgui:vgui.dll
 0002:00000770       __imp_??0ScrollPanel@vgui@@QAE@HHHH@Z 10074770     vgui:vgui.dll
 0002:00000774       __imp_??0HeaderPanel@vgui@@QAE@HHHH@Z 10074774     vgui:vgui.dll
 0002:00000778       __imp_??0Label@vgui@@QAE@PBDHHHH@Z 10074778     vgui:vgui.dll
 0002:0000077c       __imp_??0TablePanel@vgui@@QAE@HHHHH@Z 1007477c     vgui:vgui.dll
 0002:00000780       __imp_?vgui_strdup@vgui@@YAPADPBD@Z 10074780     vgui:vgui.dll
 0002:00000784       __imp_?vgui_strcpy@vgui@@YAXPADHPBD@Z 10074784     vgui:vgui.dll
 0002:00000788       __imp_??0DataInputStream@vgui@@QAE@PAVInputStream@1@@Z 10074788     vgui:vgui.dll
 0002:0000078c       __imp_?seekStart@DataInputStream@vgui@@UAEXAA_N@Z 1007478c     vgui:vgui.dll
 0002:00000790       __imp_?seekRelative@DataInputStream@vgui@@UAEXHAA_N@Z 10074790     vgui:vgui.dll
 0002:00000794       __imp_?seekEnd@DataInputStream@vgui@@UAEXAA_N@Z 10074794     vgui:vgui.dll
 0002:00000798       __imp_?getAvailable@DataInputStream@vgui@@UAEHAA_N@Z 10074798     vgui:vgui.dll
 0002:0000079c       __imp_?readUChar@DataInputStream@vgui@@UAEXPAEHAA_N@Z 1007479c     vgui:vgui.dll
 0002:000007a0       __imp_?readUChar@DataInputStream@vgui@@UAEEAA_N@Z 100747a0     vgui:vgui.dll
 0002:000007a4       __imp_?close@DataInputStream@vgui@@UAEXAA_N@Z 100747a4     vgui:vgui.dll
 0002:000007a8       __imp_??0BitmapTGA@vgui@@QAE@PAVInputStream@1@_N@Z 100747a8     vgui:vgui.dll
 0002:000007ac       __imp_??0FileInputStream@vgui@@QAE@PBD_N@Z 100747ac     vgui:vgui.dll
 0002:000007b0       __imp_??0Slider@vgui@@QAE@HHHH_N@Z 100747b0     vgui:vgui.dll
 0002:000007b4       __imp_?performLayout@Layout@vgui@@UAEXPAVPanel@2@@Z 100747b4     vgui:vgui.dll
 0002:000007b8       __imp_?createLayoutInfo@BorderLayout@vgui@@UAEPAVLayoutInfo@2@W4Alignment@12@@Z 100747b8     vgui:vgui.dll
 0002:000007bc       __imp_?performLayout@BorderLayout@vgui@@UAEXPAVPanel@2@@Z 100747bc     vgui:vgui.dll
 0002:000007c0       __imp_?addModeInfo@SurfaceBase@vgui@@MAEXHHH@Z 100747c0     vgui:vgui.dll
 0002:000007c4       __imp_?setEmulatedCursorPos@SurfaceBase@vgui@@UAEXHH@Z 100747c4     vgui:vgui.dll
 0002:000007c8       __imp_?setEmulatedCursorVisible@SurfaceBase@vgui@@UAEX_N@Z 100747c8     vgui:vgui.dll
 0002:000007cc       __imp_?getApp@SurfaceBase@vgui@@UAEPAVApp@2@XZ 100747cc     vgui:vgui.dll
 0002:000007d0       __imp_?getModeInfo@SurfaceBase@vgui@@UAE_NHAAH00@Z 100747d0     vgui:vgui.dll
 0002:000007d4       __imp_?getModeInfoCount@SurfaceBase@vgui@@UAEHXZ 100747d4     vgui:vgui.dll
 0002:000007d8       __imp_?resetModeInfo@SurfaceBase@vgui@@UAEXXZ 100747d8     vgui:vgui.dll
 0002:000007dc       __imp_?requestSwap@SurfaceBase@vgui@@UAEXXZ 100747dc     vgui:vgui.dll
 0002:000007e0       __imp_?getPanel@SurfaceBase@vgui@@UAEPAVPanel@2@XZ 100747e0     vgui:vgui.dll
 0002:000007e4       __imp_??0BorderLayout@vgui@@QAE@H@Z 100747e4     vgui:vgui.dll
 0002:000007e8       __imp_?performLayout@StackLayout@vgui@@UAEXPAVPanel@2@@Z 100747e8     vgui:vgui.dll
 0002:000007ec       __imp_??0Font@vgui@@QAE@PBDPAXHHHMH_N222@Z 100747ec     vgui:vgui.dll
 0002:000007f0       __imp_??0TextImage@vgui@@QAE@PBD@Z 100747f0     vgui:vgui.dll
 0002:000007f4       __imp_??0Image@vgui@@QAE@XZ 100747f4     vgui:vgui.dll
 0002:000007f8       __imp_??0Color@vgui@@QAE@XZ 100747f8     vgui:vgui.dll
 0002:000007fc       __imp_?recreateContext@Surface@vgui@@MAE_NXZ 100747fc     vgui:vgui.dll
 0002:00000800       __imp_?createPlat@Surface@vgui@@MAE_NXZ 10074800     vgui:vgui.dll
 0002:00000804       __imp_?applyChanges@Surface@vgui@@MAEXXZ 10074804     vgui:vgui.dll
 0002:00000808       __imp_?popMakeCurrent@Surface@vgui@@MAEXPAVPanel@2@@Z 10074808     vgui:vgui.dll
 0002:0000080c       __imp_?pushMakeCurrent@Surface@vgui@@MAEXPAVPanel@2@_N@Z 1007480c     vgui:vgui.dll
 0002:00000810       __imp_?swapBuffers@Surface@vgui@@MAEXXZ 10074810     vgui:vgui.dll
 0002:00000814       __imp_?setCursor@Surface@vgui@@MAEXPAVCursor@2@@Z 10074814     vgui:vgui.dll
 0002:00000818       __imp_?enableMouseCapture@Surface@vgui@@MAEX_N@Z 10074818     vgui:vgui.dll
 0002:0000081c       __imp_?invalidate@Surface@vgui@@MAEXPAVPanel@2@@Z 1007481c     vgui:vgui.dll
 0002:00000820       __imp_?drawTexturedRect@Surface@vgui@@MAEXHHHH@Z 10074820     vgui:vgui.dll
 0002:00000824       __imp_?drawSetTexture@Surface@vgui@@MAEXH@Z 10074824     vgui:vgui.dll
 0002:00000828       __imp_?drawSetTextureRGBA@Surface@vgui@@MAEXHPBDHH@Z 10074828     vgui:vgui.dll
 0002:0000082c       __imp_?drawPrintText@Surface@vgui@@MAEXPBDH@Z 1007482c     vgui:vgui.dll
 0002:00000830       __imp_?drawSetTextPos@Surface@vgui@@MAEXHH@Z 10074830     vgui:vgui.dll
 0002:00000834       __imp_?drawSetTextColor@Surface@vgui@@MAEXHHHH@Z 10074834     vgui:vgui.dll
 0002:00000838       __imp_?drawSetTextFont@Surface@vgui@@MAEXPAVFont@2@@Z 10074838     vgui:vgui.dll
 0002:0000083c       __imp_?drawOutlinedRect@Surface@vgui@@MAEXHHHH@Z 1007483c     vgui:vgui.dll
 0002:00000840       __imp_?drawFilledRect@Surface@vgui@@MAEXHHHH@Z 10074840     vgui:vgui.dll
 0002:00000844       __imp_?drawSetColor@Surface@vgui@@MAEXHHHH@Z 10074844     vgui:vgui.dll
 0002:00000848       __imp_?createNewTextureID@Surface@vgui@@MAEHXZ 10074848     vgui:vgui.dll
 0002:0000084c       __imp_?isWithin@Surface@vgui@@UAE_NHH@Z 1007484c     vgui:vgui.dll
 0002:00000850       __imp_?hasFocus@Surface@vgui@@UAE_NXZ 10074850     vgui:vgui.dll
 0002:00000854       __imp_?createPopup@Surface@vgui@@UAEXPAVPanel@2@@Z 10074854     vgui:vgui.dll
 0002:00000858       __imp_?setAsTopMost@Surface@vgui@@UAEX_N@Z 10074858     vgui:vgui.dll
 0002:0000085c       __imp_?setWindowedMode@Surface@vgui@@UAEXXZ 1007485c     vgui:vgui.dll
 0002:00000860       __imp_?setFullscreenMode@Surface@vgui@@UAE_NHHH@Z 10074860     vgui:vgui.dll
 0002:00000864       __imp_?setTitle@Surface@vgui@@UAEXPBD@Z 10074864     vgui:vgui.dll
 0002:00000868       __imp_?getModeInfoCount@Surface@vgui@@UAEHXZ 10074868     vgui:vgui.dll
 0002:0000086c       __imp_??1SurfaceBase@vgui@@IAE@XZ 1007486c     vgui:vgui.dll
 0002:00000870       __imp_?paintBackground@MenuSeparator@vgui@@MAEXXZ 10074870     vgui:vgui.dll
 0002:00000874       __imp_?getCursor@BuildGroup@vgui@@MAEPAVCursor@2@PAVPanel@2@@Z 10074874     vgui:vgui.dll
 0002:00000878       __imp_?keyTyped@BuildGroup@vgui@@MAEXW4KeyCode@2@PAVPanel@2@@Z 10074878     vgui:vgui.dll
 0002:0000087c       __imp_?mouseDoublePressed@BuildGroup@vgui@@MAEXW4MouseCode@2@PAVPanel@2@@Z 1007487c     vgui:vgui.dll
 0002:00000880       __imp_?mouseReleased@BuildGroup@vgui@@MAEXW4MouseCode@2@PAVPanel@2@@Z 10074880     vgui:vgui.dll
 0002:00000884       __imp_?mousePressed@BuildGroup@vgui@@MAEXW4MouseCode@2@PAVPanel@2@@Z 10074884     vgui:vgui.dll
 0002:00000888       __imp_?cursorMoved@BuildGroup@vgui@@MAEXHHPAVPanel@2@@Z 10074888     vgui:vgui.dll
 0002:0000088c       __imp_?panelAdded@BuildGroup@vgui@@MAEXPAVPanel@2@PBD@Z 1007488c     vgui:vgui.dll
 0002:00000890       __imp_?fireCurrentPanelChangeSignal@BuildGroup@vgui@@EAEXXZ 10074890     vgui:vgui.dll
 0002:00000894       __imp_?applySnap@BuildGroup@vgui@@EAEXPAVPanel@2@@Z 10074894     vgui:vgui.dll
 0002:00000898       __imp_?copyPropertiesToClipboard@BuildGroup@vgui@@UAEXXZ 10074898     vgui:vgui.dll
 0002:0000089c       __imp_?getCurrentPanel@BuildGroup@vgui@@UAEPAVPanel@2@XZ 1007489c     vgui:vgui.dll
 0002:000008a0       __imp_?addCurrentPanelChangeSignal@BuildGroup@vgui@@UAEXPAVChangeSignal@2@@Z 100748a0     vgui:vgui.dll
 0002:000008a4       __imp_?isEnabled@BuildGroup@vgui@@UAE_NXZ 100748a4     vgui:vgui.dll
 0002:000008a8       __imp_?setEnabled@BuildGroup@vgui@@UAEX_N@Z 100748a8     vgui:vgui.dll
 0002:000008ac       __imp_?getInstance@App@vgui@@SAPAV12@XZ 100748ac     vgui:vgui.dll
 0002:000008b0       __imp_?seekEnd@FileInputStream@vgui@@UAEXAA_N@Z 100748b0     vgui:vgui.dll
 0002:000008b4       __imp_?setPreferredSize@Panel@vgui@@UAEXHH@Z 100748b4     vgui:vgui.dll
 0002:000008b8       __imp_?isBuildGroupEnabled@Panel@vgui@@UAE_NXZ 100748b8     vgui:vgui.dll
 0002:000008bc       __imp_?removeAllChildren@Panel@vgui@@UAEXXZ 100748bc     vgui:vgui.dll
 0002:000008c0       __imp_?setFgColor@Panel@vgui@@UAEXVColor@2@@Z 100748c0     vgui:vgui.dll
 0002:000008c4       __imp_?setFgColor@Panel@vgui@@UAEXHHHH@Z 100748c4     vgui:vgui.dll
 0002:000008c8       __imp_?setFgColor@Panel@vgui@@UAEXW4SchemeColor@Scheme@2@@Z 100748c8     vgui:vgui.dll
 0002:000008cc       __imp_?setBgColor@Panel@vgui@@UAEXVColor@2@@Z 100748cc     vgui:vgui.dll
 0002:000008d0       __imp_?setBgColor@Panel@vgui@@UAEXHHHH@Z 100748d0     vgui:vgui.dll
 0002:000008d4       __imp_?setBgColor@Panel@vgui@@UAEXW4SchemeColor@Scheme@2@@Z 100748d4     vgui:vgui.dll
 0002:000008d8       __imp_?getFgColor@Panel@vgui@@UAEXAAVColor@2@@Z 100748d8     vgui:vgui.dll
 0002:000008dc       __imp_?getFgColor@Panel@vgui@@UAEXAAH000@Z 100748dc     vgui:vgui.dll
 0002:000008e0       __imp_?getBgColor@Panel@vgui@@UAEXAAVColor@2@@Z 100748e0     vgui:vgui.dll
 0002:000008e4       __imp_?getBgColor@Panel@vgui@@UAEXAAH000@Z 100748e4     vgui:vgui.dll
 0002:000008e8       __imp_?setAsMouseCapture@Panel@vgui@@UAEX_N@Z 100748e8     vgui:vgui.dll
 0002:000008ec       __imp_?setAsMouseArena@Panel@vgui@@UAEX_N@Z 100748ec     vgui:vgui.dll
 0002:000008f0       __imp_?getApp@Panel@vgui@@UAEPAVApp@2@XZ 100748f0     vgui:vgui.dll
 0002:000008f4       __imp_?getVirtualSize@Panel@vgui@@UAEXAAH0@Z 100748f4     vgui:vgui.dll
 0002:000008f8       __imp_?setLayoutInfo@Panel@vgui@@UAEXPAVLayoutInfo@2@@Z 100748f8     vgui:vgui.dll
 0002:000008fc       __imp_?getLayoutInfo@Panel@vgui@@UAEPAVLayoutInfo@2@XZ 100748fc     vgui:vgui.dll
 0002:00000900       __imp_?isCursorNone@Panel@vgui@@UAE_NXZ 10074900     vgui:vgui.dll
 0002:00000904       __imp_?solveTraverse@Panel@vgui@@UAEXXZ 10074904     vgui:vgui.dll
 0002:00000908       __imp_?paintTraverse@Panel@vgui@@MAEX_N@Z 10074908     vgui:vgui.dll
 0002:0000090c       __imp_?paintTraverse@Panel@vgui@@UAEXXZ 1007490c     vgui:vgui.dll
 0002:00000910       __imp_?setSurfaceBaseTraverse@Panel@vgui@@UAEXPAVSurfaceBase@2@@Z 10074910     vgui:vgui.dll
 0002:00000914       __imp_?performLayout@Panel@vgui@@MAEXXZ 10074914     vgui:vgui.dll
 0002:00000918       __imp_?internalPerformLayout@Panel@vgui@@MAEXXZ 10074918     vgui:vgui.dll
 0002:0000091c       __imp_?drawSetColor@Panel@vgui@@MAEXHHHH@Z 1007491c     vgui:vgui.dll
 0002:00000920       __imp_?drawSetColor@Panel@vgui@@MAEXW4SchemeColor@Scheme@2@@Z 10074920     vgui:vgui.dll
 0002:00000924       __imp_?drawFilledRect@Panel@vgui@@MAEXHHHH@Z 10074924     vgui:vgui.dll
 0002:00000928       __imp_?drawOutlinedRect@Panel@vgui@@MAEXHHHH@Z 10074928     vgui:vgui.dll
 0002:0000092c       __imp_?drawSetTextFont@Panel@vgui@@MAEXPAVFont@2@@Z 1007492c     vgui:vgui.dll
 0002:00000930       __imp_?drawSetTextFont@Panel@vgui@@MAEXW4SchemeFont@Scheme@2@@Z 10074930     vgui:vgui.dll
 0002:00000934       __imp_?drawSetTextColor@Panel@vgui@@MAEXHHHH@Z 10074934     vgui:vgui.dll
 0002:00000938       __imp_?drawSetTextColor@Panel@vgui@@MAEXW4SchemeColor@Scheme@2@@Z 10074938     vgui:vgui.dll
 0002:0000093c       __imp_?drawSetTextPos@Panel@vgui@@MAEXHH@Z 1007493c     vgui:vgui.dll
 0002:00000940       __imp_?drawPrintText@Panel@vgui@@MAEXHHPBDH@Z 10074940     vgui:vgui.dll
 0002:00000944       __imp_?drawPrintText@Panel@vgui@@MAEXPBDH@Z 10074944     vgui:vgui.dll
 0002:00000948       __imp_?drawPrintChar@Panel@vgui@@MAEXHHD@Z 10074948     vgui:vgui.dll
 0002:0000094c       __imp_?drawPrintChar@Panel@vgui@@MAEXD@Z 1007494c     vgui:vgui.dll
 0002:00000950       __imp_?drawSetTextureRGBA@Panel@vgui@@MAEXHPBDHH@Z 10074950     vgui:vgui.dll
 0002:00000954       __imp_?drawSetTexture@Panel@vgui@@MAEXH@Z 10074954     vgui:vgui.dll
 0002:00000958       __imp_?drawTexturedRect@Panel@vgui@@MAEXHHHH@Z 10074958     vgui:vgui.dll
 0002:0000095c       __imp_?solve@Panel@vgui@@MAEXXZ 1007495c     vgui:vgui.dll
 0002:00000960       __imp_?paintBackground@Panel@vgui@@MAEXXZ 10074960     vgui:vgui.dll
 0002:00000964       __imp_?paint@Panel@vgui@@MAEXXZ 10074964     vgui:vgui.dll
 0002:00000968       __imp_?paintBuildOverlay@Panel@vgui@@MAEXXZ 10074968     vgui:vgui.dll
 0002:0000096c       __imp_?internalCursorMoved@Panel@vgui@@MAEXHH@Z 1007496c     vgui:vgui.dll
 0002:00000970       __imp_?internalCursorEntered@Panel@vgui@@MAEXXZ 10074970     vgui:vgui.dll
 0002:00000974       __imp_?internalCursorExited@Panel@vgui@@MAEXXZ 10074974     vgui:vgui.dll
 0002:00000978       __imp_?internalMousePressed@Panel@vgui@@MAEXW4MouseCode@2@@Z 10074978     vgui:vgui.dll
 0002:0000097c       __imp_?internalMouseDoublePressed@Panel@vgui@@MAEXW4MouseCode@2@@Z 1007497c     vgui:vgui.dll
 0002:00000980       __imp_?internalMouseReleased@Panel@vgui@@MAEXW4MouseCode@2@@Z 10074980     vgui:vgui.dll
 0002:00000984       __imp_?internalMouseWheeled@Panel@vgui@@MAEXH@Z 10074984     vgui:vgui.dll
 0002:00000988       __imp_?internalKeyPressed@Panel@vgui@@MAEXW4KeyCode@2@@Z 10074988     vgui:vgui.dll
 0002:0000098c       __imp_?internalKeyTyped@Panel@vgui@@MAEXW4KeyCode@2@@Z 1007498c     vgui:vgui.dll
 0002:00000990       __imp_?internalKeyReleased@Panel@vgui@@MAEXW4KeyCode@2@@Z 10074990     vgui:vgui.dll
 0002:00000994       __imp_?internalKeyFocusTicked@Panel@vgui@@MAEXXZ 10074994     vgui:vgui.dll
 0002:00000998       __imp_?internalFocusChanged@Panel@vgui@@MAEX_N@Z 10074998     vgui:vgui.dll
 0002:0000099c       __imp_?internalSetCursor@Panel@vgui@@MAEXXZ 1007499c     vgui:vgui.dll
 0002:000009a0       __imp_?init@Color@vgui@@EAEXXZ 100749a0     vgui:vgui.dll
 0002:000009a4       __imp_?setColor@Color@vgui@@UAEXW4SchemeColor@Scheme@2@@Z 100749a4     vgui:vgui.dll
 0002:000009a8       __imp_?setColor@Color@vgui@@UAEXHHHH@Z 100749a8     vgui:vgui.dll
 0002:000009ac       __imp_?getColor@Color@vgui@@UAEXAAW4SchemeColor@Scheme@2@@Z 100749ac     vgui:vgui.dll
 0002:000009b0       __imp_?getColor@Color@vgui@@UAEXAAH000@Z 100749b0     vgui:vgui.dll
 0002:000009b4       __imp_??AColor@vgui@@UAEHH@Z 100749b4     vgui:vgui.dll
 0002:000009b8       __imp_?setColor@Scheme@vgui@@UAEXW4SchemeColor@12@HHHH@Z 100749b8     vgui:vgui.dll
 0002:000009bc       __imp_?getColor@Scheme@vgui@@UAEXW4SchemeColor@12@AAH111@Z 100749bc     vgui:vgui.dll
 0002:000009c0       __imp_?setFont@Scheme@vgui@@UAEXW4SchemeFont@12@PAVFont@2@@Z 100749c0     vgui:vgui.dll
 0002:000009c4       __imp_?getFont@Scheme@vgui@@UAEPAVFont@2@W4SchemeFont@12@@Z 100749c4     vgui:vgui.dll
 0002:000009c8       __imp_?setCursor@Scheme@vgui@@UAEXW4SchemeCursor@12@PAVCursor@2@@Z 100749c8     vgui:vgui.dll
 0002:000009cc       __imp_?getCursor@Scheme@vgui@@UAEPAVCursor@2@W4SchemeCursor@12@@Z 100749cc     vgui:vgui.dll
 0002:000009d0       __imp_?getSurfaceBase@Panel@vgui@@UAEPAVSurfaceBase@2@XZ 100749d0     vgui:vgui.dll
 0002:000009d4       __imp_?isEnabled@Panel@vgui@@UAE_NXZ 100749d4     vgui:vgui.dll
 0002:000009d8       __imp_?addIntChangeSignal@ScrollBar@vgui@@UAEXPAVIntChangeSignal@2@@Z 100749d8     vgui:vgui.dll
 0002:000009dc       __imp_?setEnabled@Panel@vgui@@UAEX_N@Z 100749dc     vgui:vgui.dll
 0002:000009e0       __imp_?repaintParent@Panel@vgui@@UAEXXZ 100749e0     vgui:vgui.dll
 0002:000009e4       __imp_?createPropertyPanel@Panel@vgui@@UAEPAV12@XZ 100749e4     vgui:vgui.dll
 0002:000009e8       __imp_?setRange@ScrollBar@vgui@@UAEXHH@Z 100749e8     vgui:vgui.dll
 0002:000009ec       __imp_?getPersistanceText@Panel@vgui@@UAEXPADH@Z 100749ec     vgui:vgui.dll
 0002:000009f0       __imp_?close@FileInputStream@vgui@@UAEXXZ 100749f0     vgui:vgui.dll
 0002:000009f4       \177vgui_NULL_THUNK_DATA   100749f4     vgui:vgui.dll
 0002:00000a00       __real@8@3ffe8000000000000000 10074a00     crossbow.obj
 0002:00000a08       __real@8@3ffec000000000000000 10074a08     crossbow.obj
 0002:00000a10       __real@8@4001a000000000000000 10074a10     crossbow.obj
 0002:00000a18       __real@8@3fff8000000000000000 10074a18     crossbow.obj
 0002:00000a20       __real@8@3ffbccccccccccccd000 10074a20     crossbow.obj
 0002:00000a28       __real@4@4003a000000000000000 10074a28     crossbow.obj
 0002:00000a2c       __real@4@00000000000000000000 10074a2c     crossbow.obj
 0002:00000a30       __real@8@4000aaaaaaaaaaaaa800 10074a30     crossbow.obj
 0002:00000a38       __real@8@4000c000000000000000 10074a38     crossbow.obj
 0002:00000a40       ??_7CCrossbow@@6B@         10074a40     crossbow.obj
 0002:00000ba8       ??_7CCrossbowAmmo@@6B@     10074ba8     crossbow.obj
 0002:00000c90       ??_7CBasePlayerWeapon@@6B@ 10074c90     crossbow.obj
 0002:00000df8       ??_7CBasePlayerAmmo@@6B@   10074df8     crossbow.obj
 0002:00000ee0       ??_7CBasePlayerItem@@6B@   10074ee0     crossbow.obj
 0002:00001010       ??_7CBaseEntity@@6B@       10075010     crossbow.obj
 0002:000010f4       ??_7CBaseAnimating@@6B@    100750f4     crossbow.obj
 0002:000011dc       ??_7CBaseDelay@@6B@        100751dc     crossbow.obj
 0002:000012c0       __real@8@3ffcccccccccccccd000 100752c0     crowbar.obj
 0002:000012c8       __real@8@3ffd8000000000000000 100752c8     crowbar.obj
 0002:000012d0       ??_7CCrowbar@@6B@          100752d0     crowbar.obj
 0002:00001438       __real@4@3ffbcccccd0000000000 10075438     egon.obj
 0002:0000143c       __real@4@40008000000000000000 1007543c     egon.obj
 0002:00001440       __real@4@3fff8000000000000000 10075440     egon.obj
 0002:00001444       __real@4@4000c000000000000000 10075444     egon.obj
 0002:00001448       __real@8@40008000000000000000 10075448     egon.obj
 0002:00001450       ??_7CEgon@@6B@             10075450     egon.obj
 0002:000015b8       ??_7CEgonAmmo@@6B@         100755b8     egon.obj
 0002:000016a0       ??_7Scheme@vgui@@6B@       100756a0     ev_hldm.obj
 0002:000016b8       ??_7Color@vgui@@6B@        100756b8     ev_hldm.obj
 0002:000016d0       ??_7Panel@vgui@@6B@        100756d0     ev_hldm.obj
 0002:000018cc       ??_7Label@vgui@@6B@        100758cc     ev_hldm.obj
 0002:00001af8       ??_7Image@vgui@@6B@        10075af8     ev_hldm.obj
 0002:00001b58       ??_7Border@vgui@@6B@       10075b58     ev_hldm.obj
 0002:00001bc0       ??_7LineBorder@vgui@@6B@   10075bc0     ev_hldm.obj
 0002:00001c2c       ??_7ImagePanel@vgui@@6B@   10075c2c     ev_hldm.obj
 0002:00001e2c       ??_7Bitmap@vgui@@6B@       10075e2c     ev_hldm.obj
 0002:00001e90       ??_7BitmapTGA@vgui@@6B@    10075e90     ev_hldm.obj
 0002:00001ef8       ??_7InputSignal@vgui@@6B@  10075ef8     ev_hldm.obj
 0002:00001f24       ??_7Button@vgui@@6B@       10075f24     ev_hldm.obj
 0002:00002184       __real@4@40038000000000000000 10076184     ev_hldm.obj
 0002:00002188       __real@8@3ffd9999999999999800 10076188     ev_hldm.obj
 0002:00002190       __real@8@4005c800000000000000 10076190     ev_hldm.obj
 0002:00002198       __real@8@4006ff00000000000000 10076198     ev_hldm.obj
 0002:000021a0       __real@4@4002a000000000000000 100761a0     ev_hldm.obj
 0002:000021a8       __real@8@3ff6a3d70a3d70a3d800 100761a8     ev_hldm.obj
 0002:000021b0       __real@4@4005c800000000000000 100761b0     ev_hldm.obj
 0002:000021b8       __real@8@4002a000000000000000 100761b8     ev_hldm.obj
 0002:000021c0       __real@8@4004a000000000000000 100761c0     ev_hldm.obj
 0002:000021c8       __real@4@40018000000000000000 100761c8     gauss.obj
 0002:000021cc       __real@4@3fffc000000000000000 100761cc     gauss.obj
 0002:000021d0       __real@8@3ffc9999999999999800 100761d0     gauss.obj
 0002:000021d8       __real@4@40069600000000000000 100761d8     gauss.obj
 0002:000021dc       __real@4@4008fa00000000000000 100761dc     gauss.obj
 0002:000021e0       __real@4@4006c800000000000000 100761e0     gauss.obj
 0002:000021e4       ??_7CGauss@@6B@            100761e4     gauss.obj
 0002:0000234c       ??_7CGaussAmmo@@6B@        1007634c     gauss.obj
 0002:00002438       __real@8@4000a000000000000000 10076438     handgrenade.obj
 0002:00002440       __real@4@4007fa00000000000000 10076440     handgrenade.obj
 0002:00002444       __real@4@4005b400000000000000 10076444     handgrenade.obj
 0002:00002448       __real@8@3fff8e38e38e38e39000 10076448     handgrenade.obj
 0002:00002450       __real@8@c002a000000000000000 10076450     handgrenade.obj
 0002:00002458       __real@8@3ffee38e38e38e38e000 10076458     handgrenade.obj
 0002:00002460       ??_7CHandGrenade@@6B@      10076460     handgrenade.obj
 0002:000025c8       ??_7CBasePlayer@@6B@       100765c8     hl_weapons.obj
 0002:000027d4       __real@4@4008c400000000000000 100767d4     hl_weapons.obj
 0002:000027d8       __real@4@4003f000000000000000 100767d8     hl_weapons.obj
 0002:000027dc       ??_7CBaseMonster@@6B@      100767dc     hl_weapons.obj
 0002:000029d0       ??_7CBaseToggle@@6B@       100769d0     hl_weapons.obj
 0002:00002ab8       ??_7CGlock@@6B@            10076ab8     hl_weapons.obj
 0002:00002c20       ??_7CPython@@6B@           10076c20     hl_weapons.obj
 0002:00002d88       ??_7CMP5@@6B@              10076d88     hl_weapons.obj
 0002:00002ef0       ??_7CShotgun@@6B@          10076ef0     hl_weapons.obj
 0002:00003058       ??_7CRpg@@6B@              10077058     hl_weapons.obj
 0002:000031c0       ??_7CHgun@@6B@             100771c0     hl_weapons.obj
 0002:00003328       ??_7CSatchel@@6B@          10077328     hl_weapons.obj
 0002:00003490       ??_7CTripmine@@6B@         10077490     hl_weapons.obj
 0002:000035f8       ??_7CSqueak@@6B@           100775f8     hl_weapons.obj
 0002:00003760       __real@8@00000000000000000000 10077760     hl_weapons.obj
 0002:00003768       __real@8@bff583126e978d4fe000 10077768     hl_weapons.obj
 0002:00003770       __real@8@bfff8000000000000000 10077770     hl_weapons.obj
 0002:00003778       __real@8@4008fa00000000000000 10077778     hl_weapons.obj
 0002:00003780       __real@8@4000f000000000000000 10077780     hl_wpn_glock.obj
 0002:00003788       __real@8@3ffe9999999999999800 10077788     hl_wpn_glock.obj
 0002:00003790       __real@8@4000c400000000000000 10077790     hl_wpn_glock.obj
 0002:00003798       ??_7CGlockAmmo@@6B@        10077798     hl_wpn_glock.obj
 0002:00003880       __real@8@40008c00000000000000 10077880     hornetgun.obj
 0002:00003888       __real@8@3ffee000000000000000 10077888     hornetgun.obj
 0002:00003890       __real@4@4001a000000000000000 10077890     mp5.obj
 0002:00003894       ??_7CMP5AmmoClip@@6B@      10077894     mp5.obj
 0002:0000397c       ??_7CMP5Chainammo@@6B@     1007797c     mp5.obj
 0002:00003a64       ??_7CMP5AmmoGrenade@@6B@   10077a64     mp5.obj
 0002:00003b4c       __real@4@4004a000000000000000 10077b4c     python.obj
 0002:00003b50       __real@8@3ffee666666666666800 10077b50     python.obj
 0002:00003b58       __real@8@3ffeb333333333333000 10077b58     python.obj
 0002:00003b60       ??_7CPythonAmmo@@6B@       10077b60     python.obj
 0002:00003c48       __real@8@3fffc000000000000000 10077c48     rpg.obj
 0002:00003c50       __real@8@4001c000000000000000 10077c50     rpg.obj
 0002:00003c58       ??_7CRpgAmmo@@6B@          10077c58     rpg.obj
 0002:00003d40       __real@4@40028000000000000000 10077d40     satchel.obj
 0002:00003d44       ??_7CSatchelCharge@@6B@    10077d44     satchel.obj
 0002:00003f3c       ??_7CGrenade@@6B@          10077f3c     satchel.obj
 0002:00004138       __real@8@3ffef333333333333000 10078138     shotgun.obj
 0002:00004140       __real@8@40008e38e38e38e39000 10078140     shotgun.obj
 0002:00004148       __real@8@3ffeccccccccccccd000 10078148     shotgun.obj
 0002:00004150       ??_7CShotgunAmmo@@6B@      10078150     shotgun.obj
 0002:00004238       __real@8@40018c00000000000000 10078238     squeakgrenade.obj
 0002:00004240       __real@8@4000d555555555555800 10078240     tripmine.obj
 0002:00004248       ??_7ScrollBar2@vgui@@6B@   10078248     vgui_scrollbar2.obj
 0002:00004484       ??_7Slider2@vgui@@6B@      10078484     vgui_scrollbar2.obj
 0002:000046c4       ??_7IntChangeSignal@vgui@@6B@ 100786c4     vgui_scrollbar2.obj
 0002:000046c8       ??_7ActionSignal@vgui@@6B@ 100786c8     vgui_scrollbar2.obj
 0002:000046cc       ??_7ScrollBarButton@@6B@   100786cc     vgui_scrollbar2.obj
 0002:0000492c       ??_7FooDefaultScrollBarIntChangeSignal@?%C:\Users\YaLTeR\Documents\BunnyMod Pro\game_shared\vgui_scrollbar2.cpp17164584@@6B@ 1007892c     vgui_scrollbar2.obj
 0002:00004930       ??_7FooDefaultButtonSignal@?%C:\Users\YaLTeR\Documents\BunnyMod Pro\game_shared\vgui_scrollbar2.cpp17164584@@6B@ 10078930     vgui_scrollbar2.obj
 0002:00004934       ??_7Cursor@vgui@@6B@       10078934     vgui_slider2.obj
 0002:00004944       ??_7App@vgui@@6B@          10078944     vgui_slider2.obj
 0002:00004a20       ??_7FooDefaultSliderSignal@?%C:\Users\YaLTeR\Documents\BunnyMod Pro\game_shared\vgui_slider2.cpp770010870@@6B@ 10078a20     vgui_slider2.obj
 0002:00004a4c       ??_7TextImage@vgui@@6B@    10078a4c     voice_status.obj
 0002:00004acc       ??_7CVoiceStatus@@6BCDefaultInputSignal@vgui@@@ 10078acc     voice_status.obj
 0002:00004af8       ??_7CVoiceStatus@@6BCHudBase@@@ 10078af8     voice_status.obj
 0002:00004b18       ??_7CHudBase@@6B@          10078b18     voice_status.obj
 0002:00004b34       ??_7CDefaultInputSignal@vgui@@6B@ 10078b34     voice_status.obj
 0002:00004b60       ??_7Frame@vgui@@6B@        10078b60     ammo.obj
 0002:00004da0       ??_7TextPanel@vgui@@6B@    10078da0     ammo.obj
 0002:00004fac       ??_7InputStream@vgui@@6B@  10078fac     ammo.obj
 0002:00004fc8       ??_7FileInputStream@vgui@@6B@ 10078fc8     ammo.obj
 0002:00004fe8       ??_7DesktopIcon@vgui@@6B@  10078fe8     ammo.obj
 0002:000051f4       ??_7MiniApp@vgui@@6B@      100791f4     ammo.obj
 0002:00005200       ??_7ScrollPanel@vgui@@6B@  10079200     ammo.obj
 0002:00005428       ??_7ScrollBar@vgui@@6B@    10079428     ammo.obj
 0002:00005664       ??_7Slider@vgui@@6B@       10079664     ammo.obj
 0002:000058a4       ??_7Font@vgui@@6B@         100798a4     ammo.obj
 0002:000058c0       __real@8@4003a000000000000000 100798c0     ammo.obj
 0002:000058c8       __real@4@4006ff00000000000000 100798c8     ammohistory.obj
 0002:000058cc       __real@4@4005a000000000000000 100798cc     ammohistory.obj
 0002:000058d0       __real@4@40068000000000000000 100798d0     battery.obj
 0002:000058d8       __real@8@3ff8a3d70a3d70a3d800 100798d8     battery.obj
 0002:000058e0       ??_7CHudAmmo@@6B@          100798e0     cdll_int.obj
 0002:000058fc       ??_7CHudHealth@@6B@        100798fc     cdll_int.obj
 0002:00005918       ??_7CHudSpectator@@6B@     10079918     cdll_int.obj
 0002:00005934       ??_7CHudGeiger@@6B@        10079934     cdll_int.obj
 0002:00005950       ??_7CHudBattery@@6B@       10079950     cdll_int.obj
 0002:0000596c       ??_7CHudTrain@@6B@         1007996c     cdll_int.obj
 0002:00005988       ??_7CHudFlashlight@@6B@    10079988     cdll_int.obj
 0002:000059a4       ??_7CHudMessage@@6B@       100799a4     cdll_int.obj
 0002:000059c0       ??_7CHudStatusBar@@6B@     100799c0     cdll_int.obj
 0002:000059dc       ??_7CHudDeathNotice@@6B@   100799dc     cdll_int.obj
 0002:000059f8       ??_7CHudSayText@@6B@       100799f8     cdll_int.obj
 0002:00005a14       ??_7CHudMenu@@6B@          10079a14     cdll_int.obj
 0002:00005a30       ??_7CHudAmmoSecondary@@6B@ 10079a30     cdll_int.obj
 0002:00005a4c       ??_7CHudTextMessage@@6B@   10079a4c     cdll_int.obj
 0002:00005a68       ??_7CHudStatusIcons@@6B@   10079a68     cdll_int.obj
 0002:00005a84       ??_7CHudCustom@@6B@        10079a84     cdll_int.obj
 0002:00005aa0       __real@8@400f8000000000000000 10079aa0     com_weapons.obj
 0002:00005aa8       __real@4@40079b00000000000000 10079aa8     custom_hud.obj
 0002:00005ab0       __real@8@4000c666666666666800 10079ab0     custom_hud.obj
 0002:00005ab8       __real@4@bfff8000000000000000 10079ab8     custom_hud.obj
 0002:00005ac0       __real@8@40019000000000000000 10079ac0     custom_hud.obj
 0002:00005ac8       __real@8@4000e000000000000000 10079ac8     custom_hud.obj
 0002:00005ad0       __real@4@4001e000000000000000 10079ad0     custom_hud.obj
 0002:00005ad4       __real@4@3ffe8000000000000000 10079ad4     death.obj
 0002:00005ad8       __real@4@40048000000000000000 10079ad8     death.obj
 0002:00005adc       __real@4@4007f000000000000000 10079adc     death.obj
 0002:00005ae0       __real@8@40018000000000000000 10079ae0     entity.obj
 0002:00005ae8       __real@8@4003f000000000000000 10079ae8     entity.obj
 0002:00005af0       __real@8@40028000000000000000 10079af0     entity.obj
 0002:00005af8       __real@8@4001b000000000000000 10079af8     entity.obj
 0002:00005b00       __real@4@4003c800000000000000 10079b00     ev_common.obj
 0002:00005b04       ??_7CGameStudioModelRenderer@@6B@ 10079b04     GameStudioModelRenderer.obj
 0002:00005b68       __real@4@4004c800000000000000 10079b68     health.obj
 0002:00005b70       __real@8@3ffdccccccccccccd000 10079b70     health.obj
 0002:00005b78       __real@8@40078000000000000000 10079b78     health.obj
 0002:00005b80       ??_7TablePanel@vgui@@6B@   10079b80     hud.obj
 0002:00005dd0       ??_7HeaderPanel@vgui@@6B@  10079dd0     hud.obj
 0002:00005ff0       ??_7TextGrid@vgui@@6B@     10079ff0     hud.obj
 0002:00006200       ??_7IVoiceStatusHelper@@6B@ 1007a200     hud.obj
 0002:00006214       ??_7CHLVoiceStatusHelper@@6B@ 1007a214     hud.obj
 0002:00006228       __real@4@4008a000000000000000 1007a228     hud_spectator.obj
 0002:0000622c       __real@4@400b8000000000000000 1007a22c     hud_spectator.obj
 0002:00006230       __real@4@400c8000000000000000 1007a230     hud_spectator.obj
 0002:00006234       __real@4@c0038000000000000000 1007a234     hud_spectator.obj
 0002:00006238       __real@4@4007b400000000000000 1007a238     in_camera.obj
 0002:00006240       __real@8@4007b400000000000000 1007a240     in_camera.obj
 0002:00006248       __real@8@4006b400000000000000 1007a248     in_camera.obj
 0002:00006250       __real@4@c004c800000000000000 1007a250     input.obj
 0002:00006258       __real@8@400cdac0000000000000 1007a258     inputw32.obj
 0002:00006260       __real@8@40079600000000000000 1007a260     inputw32.obj
 0002:00006268       __real@8@4008c800000000000000 1007a268     inputw32.obj
 0002:00006270       __real@8@400e8000000000000000 1007a270     inputw32.obj
 0002:00006278       __real@8@3ff1d1b71758e2196800 1007a278     message.obj
 0002:00006280       __real@8@3ffc8000000000000000 1007a280     parsemsg.obj
 0002:00006288       __real@8@3fffb400000000000000 1007a288     parsemsg.obj
 0002:00006290       __real@8@3ff7b400000000000000 1007a290     parsemsg.obj
 0002:00006298       __real@8@4006b60b60b60b60b800 1007a298     pm_math.obj
 0002:000062a0       __real@8@3ff98efa351294e9c800 1007a2a0     pm_math.obj
 0002:000062a8       __real@8@c006b400000000000000 1007a2a8     pm_math.obj
 0002:000062b0       __real@4@c006b400000000000000 1007a2b0     pm_math.obj
 0002:000062b4       __real@4@4006b400000000000000 1007a2b4     pm_math.obj
 0002:000062b8       __real@8@4000c90fdaa22168c000 1007a2b8     pm_math.obj
 0002:000062c0       __real@4@4006dc00000000000000 1007a2c0     pm_shared.obj
 0002:000062c4       __real@4@40058000000000000000 1007a2c4     pm_shared.obj
 0002:000062c8       __real@8@3ffdb333333333333000 1007a2c8     pm_shared.obj
 0002:000062d0       __real@8@bffbccccccccccccd000 1007a2d0     pm_shared.obj
 0002:000062d8       __real@4@40048800000000000000 1007a2d8     pm_shared.obj
 0002:000062dc       __real@4@4004f000000000000000 1007a2dc     pm_shared.obj
 0002:000062e0       __real@8@4004c800000000000000 1007a2e0     pm_shared.obj
 0002:000062e8       __real@8@3ffaccccccccccccd000 1007a2e8     pm_shared.obj
 0002:000062f0       __real@4@4003e000000000000000 1007a2f0     pm_shared.obj
 0002:000062f4       __real@4@4002c000000000000000 1007a2f4     pm_shared.obj
 0002:000062f8       __real@8@3ffdaa7ef9db22d0e800 1007a2f8     pm_shared.obj
 0002:00006300       __real@4@400c9c40000000000000 1007a300     pm_shared.obj
 0002:00006304       __real@4@4008e100000000000000 1007a304     pm_shared.obj
 0002:00006308       __real@8@3ffea666666666666800 1007a308     pm_shared.obj
 0002:00006310       __real@4@3fffd9999a0000000000 1007a310     pm_shared.obj
 0002:00006318       __real@8@3fffccccccccccccd000 1007a318     pm_shared.obj
 0002:00006320       __real@4@4007af00000000000000 1007a320     pm_shared.obj
 0002:00006328       __real@8@3ffbcccccd0000000000 1007a328     pm_shared.obj
 0002:00006330       __real@8@3ff8d4fdf3b645a1c800 1007a330     pm_shared.obj
 0002:00006338       __real@4@40079100000000000000 1007a338     pm_shared.obj
 0002:0000633c       __real@4@40089100000000000000 1007a33c     pm_shared.obj
 0002:00006340       __real@8@3ff583126e978d4fe000 1007a340     pm_shared.obj
 0002:00006348       __real@8@4001c90fdaa22168c000 1007a348     ruler.obj
 0002:00006350       __real@8@bfffc90fdaa22168c000 1007a350     ruler.obj
 0002:00006358       __real@4@40049000000000000000 1007a358     statusbar.obj
 0002:00006360       __real@8@3fffc90fdaa22168c000 1007a360     studio_util.obj
 0002:00006368       __real@8@3feb8637bd05af6c6800 1007a368     studio_util.obj
 0002:00006370       ??_7CStudioModelRenderer@@6B@ 1007a370     StudioModelRenderer.obj
 0002:000063d8       __real@8@40058000000000000000 1007a3d8     StudioModelRenderer.obj
 0002:000063e0       __real@8@3fe08000000000000000 1007a3e0     StudioModelRenderer.obj
 0002:000063e8       __real@8@bff8a3d70a3d70a3d800 1007a3e8     StudioModelRenderer.obj
 0002:000063f0       __real@8@3fff8020c49ba5e35000 1007a3f0     StudioModelRenderer.obj
 0002:000063f8       __real@8@3ffcf0f0f0f0f0f0f000 1007a3f8     StudioModelRenderer.obj
 0002:00006400       __real@4@c005f000000000000000 1007a400     StudioModelRenderer.obj
 0002:00006404       __real@4@4005f000000000000000 1007a404     StudioModelRenderer.obj
 0002:00006408       ??_7CCheckButton2@vgui@@6BCDefaultInputSignal@1@@ 1007a408     vgui_checkbutton2.obj
 0002:00006434       ??_7CCheckButton2@vgui@@6BPanel@1@@ 1007a434     vgui_checkbutton2.obj
 0002:00006630       __real@4@4004a800000000000000 1007a630     vgui_ClassMenu.obj
 0002:00006634       __real@4@4005f800000000000000 1007a634     vgui_ClassMenu.obj
 0002:00006638       __real@4@4003c000000000000000 1007a638     vgui_ClassMenu.obj
 0002:0000663c       __real@4@4006b000000000000000 1007a63c     vgui_ClassMenu.obj
 0002:00006640       __real@4@4007d400000000000000 1007a640     vgui_ClassMenu.obj
 0002:00006644       __real@4@40079c00000000000000 1007a644     vgui_ClassMenu.obj
 0002:00006648       ??_7CClassMenuPanel@@6B@   1007a648     vgui_ClassMenu.obj
 0002:00006860       ??_7CMenuHandler_StringCommandClassSelect@@6B@ 1007a860     vgui_ClassMenu.obj
 0002:00006864       ??_7CMenuHandler_StringCommand@@6B@ 1007a864     vgui_ClassMenu.obj
 0002:00006868       ??_7CMenuHandler_TextWindow@@6B@ 1007a868     vgui_ClassMenu.obj
 0002:0000686c       ??_7CHandler_MenuButtonOver@@6B@ 1007a86c     vgui_ClassMenu.obj
 0002:00006898       ??_7ClassButton@@6B@       1007a898     vgui_ClassMenu.obj
 0002:00006b00       ??_7CTransparentPanel@@6B@ 1007ab00     vgui_ClassMenu.obj
 0002:00006cfc       ??_7CMenuPanel@@6B@        1007acfc     vgui_ClassMenu.obj
 0002:00006f0c       ??_7TextEntry@vgui@@6BInputSignal@1@@ 1007af0c     vgui_ConsolePanel.obj
 0002:00006f38       ??_7TextEntry@vgui@@6BPanel@1@@ 1007af38     vgui_ConsolePanel.obj
 0002:00007194       ??_7EtchedBorder@vgui@@6B@ 1007b194     vgui_ConsolePanel.obj
 0002:000071fc       ??_7LoweredBorder@vgui@@6B@ 1007b1fc     vgui_ConsolePanel.obj
 0002:00007264       ??_7ConsolePanel@@6B@      1007b264     vgui_ConsolePanel.obj
 0002:00007470       ??_7Handler@?%C:\Users\YaLTeR\Documents\BunnyMod Pro\cl_dll\vgui_ConsolePanel.cpp44189526@@6B@ 1007b470     vgui_ConsolePanel.obj
 0002:00007474       ??_7DataInputStream@vgui@@6BInputStream@1@@ 1007b474     vgui_ControlConfigPanel.obj
 0002:00007490       ??_7DataInputStream@vgui@@6B01@@ 1007b490     vgui_ControlConfigPanel.obj
 0002:000074c0       ??_8DataInputStream@vgui@@7B@ 1007b4c0     vgui_ControlConfigPanel.obj
 0002:000074c8       ??_7ControlConfigPanel@@6B@ 1007b4c8     vgui_ControlConfigPanel.obj
 0002:000076c4       ??_7FooTablePanel@?%C:\Users\YaLTeR\Documents\BunnyMod Pro\cl_dll\vgui_ControlConfigPanel.cpp251234646@@6B@ 1007b6c4     vgui_ControlConfigPanel.obj
 0002:00007914       ??_7CommandButton@@6B@     1007b914     vgui_CustomObjects.obj
 0002:00007b7c       ??_7CHandler_CommandButtonHighlight@@6B@ 1007bb7c     vgui_CustomObjects.obj
 0002:00007ba8       ??_7CHandler_ButtonHighlight@@6B@ 1007bba8     vgui_CustomObjects.obj
 0002:00007bd4       ??_7CImageLabel@@6B@       1007bbd4     vgui_CustomObjects.obj
 0002:00007e08       ??_7CTFScrollButton@@6B@   1007be08     vgui_CustomObjects.obj
 0002:00008070       ??_7CTFScrollPanel@@6B@    1007c070     vgui_CustomObjects.obj
 0002:00008298       ??_7CTFSlider@@6B@         1007c298     vgui_CustomObjects.obj
 0002:000084d8       ??_7CGrid@vgui@@6B@        1007c4d8     vgui_grid.obj
 0002:000086d8       ??_7Layout@vgui@@6B@       1007c6d8     vgui_int.obj
 0002:000086dc       ??_7BorderLayout@vgui@@6B@ 1007c6dc     vgui_int.obj
 0002:000086e4       ??_7SurfaceBase@vgui@@6B@  1007c6e4     vgui_int.obj
 0002:0000876c       ??_7CListBox@vgui@@6B@     1007c76c     vgui_listbox.obj
 0002:0000896c       ??_7ListBoxSignal@CListBox@vgui@@6B@ 1007c96c     vgui_listbox.obj
 0002:00008970       ??_7MemoryInputStream@@6B@ 1007c970     vgui_loadtga.obj
 0002:0000898c       ??_7StackLayout@vgui@@6B@  1007c98c     vgui_MOTDWindow.obj
 0002:00008990       __real@4@4006a000000000000000 1007c990     vgui_MOTDWindow.obj
 0002:00008994       __real@4@4004c000000000000000 1007c994     vgui_MOTDWindow.obj
 0002:00008998       __real@4@4005e000000000000000 1007c998     vgui_MOTDWindow.obj
 0002:0000899c       ??_7CMessageWindowPanel@@6B@ 1007c99c     vgui_MOTDWindow.obj
 0002:00008bb4       ??_7CSchemeManager@@6B@    1007cbb4     vgui_SchemeManager.obj
 0002:00008bb8       __real@4@4003b000000000000000 1007cbb8     vgui_ScorePanel.obj
 0002:00008bbc       ??_7ScorePanel@@6BCDefaultInputSignal@vgui@@@ 1007cbbc     vgui_ScorePanel.obj
 0002:00008be8       ??_7ScorePanel@@6BPanel@vgui@@@ 1007cbe8     vgui_ScorePanel.obj
 0002:00008de4       ??_7CMenuHandler_StringCommandWatch@@6B@ 1007cde4     vgui_ScorePanel.obj
 0002:00008de8       ??_7CLabelHeader@@6B@      1007cde8     vgui_ScorePanel.obj
 0002:00009018       ??_7CTextImage2@@6B@       1007d018     vgui_ScorePanel.obj
 0002:00009078       ??_7HitTestPanel@ScorePanel@@6B@ 1007d078     vgui_ScorePanel.obj
 0002:00009274       __real@4@4002f000000000000000 1007d274     vgui_ScorePanel.obj
 0002:00009278       __real@4@40088e80000000000000 1007d278     vgui_ServerBrowser.obj
 0002:0000927c       __real@4@4007c800000000000000 1007d27c     vgui_ServerBrowser.obj
 0002:00009280       __real@4@40039000000000000000 1007d280     vgui_ServerBrowser.obj
 0002:00009284       ??_7ServerBrowser@@6B@     1007d284     vgui_ServerBrowser.obj
 0002:00009480       ??_7CBrowser_InputSignal@?%C:\Users\YaLTeR\Documents\BunnyMod Pro\cl_dll\vgui_ServerBrowser.cpp176781033@@6B@ 1007d480     vgui_ServerBrowser.obj
 0002:000094ac       ??_7ServerBrowserTablePanel@?%C:\Users\YaLTeR\Documents\BunnyMod Pro\cl_dll\vgui_ServerBrowser.cpp176781033@@6B@ 1007d4ac     vgui_ServerBrowser.obj
 0002:000096fc       ??_7ConnectHandler@?%C:\Users\YaLTeR\Documents\BunnyMod Pro\cl_dll\vgui_ServerBrowser.cpp176781033@@6B@ 1007d6fc     vgui_ServerBrowser.obj
 0002:00009700       ??_7RefreshHandler@?%C:\Users\YaLTeR\Documents\BunnyMod Pro\cl_dll\vgui_ServerBrowser.cpp176781033@@6B@ 1007d700     vgui_ServerBrowser.obj
 0002:00009704       ??_7StopHandler@?%C:\Users\YaLTeR\Documents\BunnyMod Pro\cl_dll\vgui_ServerBrowser.cpp176781033@@6B@ 1007d704     vgui_ServerBrowser.obj
 0002:00009708       ??_7CancelHandler@?%C:\Users\YaLTeR\Documents\BunnyMod Pro\cl_dll\vgui_ServerBrowser.cpp176781033@@6B@ 1007d708     vgui_ServerBrowser.obj
 0002:0000970c       ??_7CSBLabel@@6B@          1007d70c     vgui_ServerBrowser.obj
 0002:00009938       ??_7LabelSortInputHandler@@6B@ 1007d938     vgui_ServerBrowser.obj
 0002:00009964       ??_7SpectatorPanel@@6B@    1007d964     vgui_SpectatorPanel.obj
 0002:00009b64       __real@4@4006f000000000000000 1007db64     vgui_SpectatorPanel.obj
 0002:00009b68       __real@4@40069d00000000000000 1007db68     vgui_SpectatorPanel.obj
 0002:00009b6c       __real@4@4006a400000000000000 1007db6c     vgui_SpectatorPanel.obj
 0002:00009b70       __real@4@40049c00000000000000 1007db70     vgui_SpectatorPanel.obj
 0002:00009b74       __real@4@4005fc00000000000000 1007db74     vgui_SpectatorPanel.obj
 0002:00009b78       __real@4@4001c000000000000000 1007db78     vgui_SpectatorPanel.obj
 0002:00009b7c       __real@4@4005c000000000000000 1007db7c     vgui_SpectatorPanel.obj
 0002:00009b80       __real@4@40078000000000000000 1007db80     vgui_SpectatorPanel.obj
 0002:00009b84       ??_7ColorButton@@6B@       1007db84     vgui_SpectatorPanel.obj
 0002:00009dec       ??_7CSpectatorHandler_Command@@6B@ 1007ddec     vgui_SpectatorPanel.obj
 0002:00009df0       __real@4@4002e000000000000000 1007ddf0     vgui_SpectatorPanel.obj
 0002:00009dfc       ??_7Surface@vgui@@6B@      1007ddfc     vgui_TeamFortressViewport.obj
 0002:00009e8c       ??_7MenuSeparator@vgui@@6B@ 1007de8c     vgui_TeamFortressViewport.obj
 0002:0000a0b8       ??_7BuildGroup@vgui@@6B@   1007e0b8     vgui_TeamFortressViewport.obj
 0002:0000a0f0       ??_7CCommandMenu@@6B@      1007e0f0     vgui_TeamFortressViewport.obj
 0002:0000a2ec       ??_7CMenuHandler_PopupSubMenuInput@@6B@ 1007e2ec     vgui_TeamFortressViewport.obj
 0002:0000a318       ??_7TeamFortressViewport@@6B@ 1007e318     vgui_TeamFortressViewport.obj
 0002:0000a514       ??_7CViewPortInputHandler@@6B@ 1007e514     vgui_TeamFortressViewport.obj
 0002:0000a540       ??_7SpectButton@@6B@       1007e540     vgui_TeamFortressViewport.obj
 0002:0000a7a8       ??_7CMenuHandler_ToggleCvar@@6B@ 1007e7a8     vgui_TeamFortressViewport.obj
 0002:0000a7ac       ??_7MapButton@@6B@         1007e7ac     vgui_TeamFortressViewport.obj
 0002:0000aa14       ??_7TeamOnlyCommandButton@@6B@ 1007ea14     vgui_TeamFortressViewport.obj
 0002:0000ac7c       ??_7ToggleCommandButton@@6BInputSignal@vgui@@@ 1007ec7c     vgui_TeamFortressViewport.obj
 0002:0000aca8       ??_7ToggleCommandButton@@6BCommandButton@@@ 1007eca8     vgui_TeamFortressViewport.obj
 0002:0000af10       ??_7SpectToggleButton@@6BInputSignal@vgui@@@ 1007ef10     vgui_TeamFortressViewport.obj
 0002:0000af3c       ??_7SpectToggleButton@@6BCommandButton@@@ 1007ef3c     vgui_TeamFortressViewport.obj
 0002:0000b1a4       ??_7TeamButton@@6B@        1007f1a4     vgui_TeamFortressViewport.obj
 0002:0000b40c       ??_7FeignButton@@6B@       1007f40c     vgui_TeamFortressViewport.obj
 0002:0000b674       ??_7SpectateButton@@6B@    1007f674     vgui_TeamFortressViewport.obj
 0002:0000b8dc       ??_7DisguiseButton@@6B@    1007f8dc     vgui_TeamFortressViewport.obj
 0002:0000bb44       ??_7DetpackButton@@6B@     1007fb44     vgui_TeamFortressViewport.obj
 0002:0000bdac       ??_7BuildButton@@6B@       1007fdac     vgui_TeamFortressViewport.obj
 0002:0000c014       __real@4@4005d000000000000000 10080014     vgui_TeamFortressViewport.obj
 0002:0000c018       __real@4@4006ea00000000000000 10080018     vgui_teammenu.obj
 0002:0000c01c       __real@4@4006b200000000000000 1008001c     vgui_teammenu.obj
 0002:0000c020       ??_7CTeamMenuPanel@@6B@    10080020     vgui_teammenu.obj
 0002:0000c238       __real@4@c001e000000000000000 10080238     view.obj
 0002:0000c240       __real@8@c000c000000000000000 10080240     view.obj
 0002:0000c248       __real@4@4005dc00000000000000 10080248     view.obj
 0002:0000c250       __real@8@3ffa8000000000000000 10080250     view.obj
 0002:0000c258       __real@4@3ff8a3d70a0000000000 10080258     view.obj
 0002:0000c25c       __real@4@4003b400000000000000 1008025c     view.obj
 0002:0000c260       __real@4@4002c800000000000000 10080260     view.obj
 0002:0000c264       __real@4@40038800000000000000 10080264     view.obj
 0002:0000c268       __real@4@c0028000000000000000 10080268     view.obj
 0002:0000c26c       __real@4@c000c000000000000000 1008026c     view.obj
 0002:0000c270       __real@4@4004cd00000000000000 10080270     view.obj
 0002:0000c274       __real@4@40049b00000000000000 10080274     view.obj
 0002:0000c278       __real@4@3ffee666660000000000 10080278     view.obj
 0002:0000c2b0       ??_7type_info@@6B@         100802b0     LIBCMT:typinfo.obj
 0002:0000c2b8       __real@8@4015800bf60000000000 100802b8     LIBCMT:testfdiv.obj
 0002:0000c2c0       __real@8@4014bffffc0000000000 100802c0     LIBCMT:testfdiv.obj
 0002:0000c2c8       ??_C@_0BK@JEGK@IsProcessorFeaturePresent?$AA@ 100802c8     LIBCMT:testfdiv.obj
 0002:0000c2e4       ??_C@_08OBID@KERNEL32?$AA@ 100802e4     LIBCMT:testfdiv.obj
 0002:0000c2f0       ??_C@_05OFLO@e?$CL000?$AA@ 100802f0     LIBCMT:cvt.obj
 0002:0000c378       __DEFAULT_CW_in_mem        10080378     LIBCMT:common.obj
 0002:0000c37a       __pi_by_2_to_61            1008037a     LIBCMT:common.obj
 0002:0000c3b4       ___lookuptable             100803b4     LIBCMT:output.obj
 0002:0000c410       ??_C@_1O@POHA@?$AA?$CI?$AAn?$AAu?$AAl?$AAl?$AA?$CJ?$AA?$AA@ 10080410     LIBCMT:output.obj
 0002:0000c420       ??_C@_06ONKE@?$CInull?$CJ?$AA@ 10080420     LIBCMT:output.obj
 0002:0000c460       ??_C@_03GAFO@_yn?$AA@      10080460     LIBCMT:fpexcept.obj
 0002:0000c464       ??_C@_03GNLD@_y1?$AA@      10080464     LIBCMT:fpexcept.obj
 0002:0000c468       ??_C@_03MHCE@_y0?$AA@      10080468     LIBCMT:fpexcept.obj
 0002:0000c46c       ??_C@_05PAK@frexp?$AA@     1008046c     LIBCMT:fpexcept.obj
 0002:0000c474       ??_C@_04JKCH@fmod?$AA@     10080474     LIBCMT:fpexcept.obj
 0002:0000c47c       ??_C@_06GGHF@_hypot?$AA@   1008047c     LIBCMT:fpexcept.obj
 0002:0000c484       ??_C@_05JNMC@_cabs?$AA@    10080484     LIBCMT:fpexcept.obj
 0002:0000c48c       ??_C@_05MEKH@ldexp?$AA@    1008048c     LIBCMT:fpexcept.obj
 0002:0000c494       ??_C@_04KAOJ@modf?$AA@     10080494     LIBCMT:fpexcept.obj
 0002:0000c49c       ??_C@_04EHAJ@fabs?$AA@     1008049c     LIBCMT:fpexcept.obj
 0002:0000c4a4       ??_C@_05MFBN@floor?$AA@    100804a4     LIBCMT:fpexcept.obj
 0002:0000c4ac       ??_C@_04JJMP@ceil?$AA@     100804ac     LIBCMT:fpexcept.obj
 0002:0000c4b4       ??_C@_03JLPI@tan?$AA@      100804b4     LIBCMT:fpexcept.obj
 0002:0000c4b8       ??_C@_03DLFL@cos?$AA@      100804b8     LIBCMT:fpexcept.obj
 0002:0000c4bc       ??_C@_03JAMN@sin?$AA@      100804bc     LIBCMT:fpexcept.obj
 0002:0000c4c0       ??_C@_04LMBE@sqrt?$AA@     100804c0     LIBCMT:fpexcept.obj
 0002:0000c4c8       ??_C@_05BFPO@atan2?$AA@    100804c8     LIBCMT:fpexcept.obj
 0002:0000c4d0       ??_C@_04EAGN@atan?$AA@     100804d0     LIBCMT:fpexcept.obj
 0002:0000c4d8       ??_C@_04OAMO@acos?$AA@     100804d8     LIBCMT:fpexcept.obj
 0002:0000c4e0       ??_C@_04ELFI@asin?$AA@     100804e0     LIBCMT:fpexcept.obj
 0002:0000c4e8       ??_C@_04LFAD@tanh?$AA@     100804e8     LIBCMT:fpexcept.obj
 0002:0000c4f0       ??_C@_04PFKD@cosh?$AA@     100804f0     LIBCMT:fpexcept.obj
 0002:0000c4f8       ??_C@_04NPAI@sinh?$AA@     100804f8     LIBCMT:fpexcept.obj
 0002:0000c500       ??_C@_05IJHH@log10?$AA@    10080500     LIBCMT:fpexcept.obj
 0002:0000c508       ??_C@_03BGKD@log?$AA@      10080508     LIBCMT:fpexcept.obj
 0002:0000c50c       ??_C@_03EGFG@pow?$AA@      1008050c     LIBCMT:fpexcept.obj
 0002:0000c510       ??_C@_03CDGJ@exp?$AA@      10080510     LIBCMT:fpexcept.obj
 0002:0000c514       ??_C@_01A@?$AA?$AA@        10080514     LIBCMT:a_map.obj
 0002:0000c518       ??_C@_13A@?$AA?$AA?$AA?$AA@ 10080518     LIBCMT:a_map.obj
 0002:0000c544       ??_C@_0P@GGKG@runtime?5error?5?$AA@ 10080544     LIBCMT:crt0msg.obj
 0002:0000c554       ??_C@_02PIMC@?$AN?6?$AA@   10080554     LIBCMT:crt0msg.obj
 0002:0000c558       ??_C@_0O@DELO@TLOSS?5error?$AN?6?$AA@ 10080558     LIBCMT:crt0msg.obj
 0002:0000c568       ??_C@_0N@OMLL@SING?5error?$AN?6?$AA@ 10080568     LIBCMT:crt0msg.obj
 0002:0000c578       ??_C@_0P@OJAK@DOMAIN?5error?$AN?6?$AA@ 10080578     LIBCMT:crt0msg.obj
 0002:0000c588       ??_C@_0CF@EANP@R6028?$AN?6?9?5unable?5to?5initialize?5he@ 10080588     LIBCMT:crt0msg.obj
 0002:0000c5b0       ??_C@_0DF@ECGN@R6027?$AN?6?9?5not?5enough?5space?5for?5lo@ 100805b0     LIBCMT:crt0msg.obj
 0002:0000c5e8       ??_C@_0DF@FKAC@R6026?$AN?6?9?5not?5enough?5space?5for?5st@ 100805e8     LIBCMT:crt0msg.obj
 0002:0000c620       ??_C@_0CG@DPMN@R6025?$AN?6?9?5pure?5virtual?5function?5c@ 10080620     LIBCMT:crt0msg.obj
 0002:0000c648       ??_C@_0DF@CKIP@R6024?$AN?6?9?5not?5enough?5space?5for?5_o@ 10080648     LIBCMT:crt0msg.obj
 0002:0000c680       ??_C@_0CJ@GGOE@R6019?$AN?6?9?5unable?5to?5open?5console?5@ 10080680     LIBCMT:crt0msg.obj
 0002:0000c6ac       ??_C@_0CB@LBOB@R6018?$AN?6?9?5unexpected?5heap?5error?$AN?6@ 100806ac     LIBCMT:crt0msg.obj
 0002:0000c6d0       ??_C@_0CN@FPEG@R6017?$AN?6?9?5unexpected?5multithread?5@ 100806d0     LIBCMT:crt0msg.obj
 0002:0000c700       ??_C@_0CM@OBIC@R6016?$AN?6?9?5not?5enough?5space?5for?5th@ 10080700     LIBCMT:crt0msg.obj
 0002:0000c72c       ??_C@_0CB@HPAL@?$AN?6abnormal?5program?5termination?$AN?6@ 1008072c     LIBCMT:crt0msg.obj
 0002:0000c750       ??_C@_0CM@JOOB@R6009?$AN?6?9?5not?5enough?5space?5for?5en@ 10080750     LIBCMT:crt0msg.obj
 0002:0000c77c       ??_C@_0CK@OIBL@R6008?$AN?6?9?5not?5enough?5space?5for?5ar@ 1008077c     LIBCMT:crt0msg.obj
 0002:0000c7a8       ??_C@_0CF@LKPB@R6002?$AN?6?9?5floating?5point?5not?5load@ 100807a8     LIBCMT:crt0msg.obj
 0002:0000c7d0       ??_C@_0CF@JPDF@Microsoft?5Visual?5C?$CL?$CL?5Runtime?5Lib@ 100807d0     LIBCMT:crt0msg.obj
 0002:0000c7f8       ??_C@_02JJJH@?6?6?$AA@     100807f8     LIBCMT:crt0msg.obj
 0002:0000c7fc       ??_C@_0BK@DEOK@Runtime?5Error?$CB?6?6Program?3?5?$AA@ 100807fc     LIBCMT:crt0msg.obj
 0002:0000c818       ??_C@_03NAME@?4?4?4?$AA@   10080818     LIBCMT:crt0msg.obj
 0002:0000c81c       ??_C@_0BH@NNCD@?$DMprogram?5name?5unknown?$DO?$AA@ 1008081c     LIBCMT:crt0msg.obj
 0002:0000c834       ___dnames                  10080834     LIBCMT:timeset.obj
 0002:0000c84c       ___mnames                  1008084c     LIBCMT:timeset.obj
 0002:0000c874       ??_C@_02JHIA@TZ?$AA@       10080874     LIBCMT:tzset.obj
 0002:0000c878       ??_C@_0BD@NJFP@GetLastActivePopup?$AA@ 10080878     LIBCMT:crtmbox.obj
 0002:0000c88c       ??_C@_0BA@GILI@GetActiveWindow?$AA@ 1008088c     LIBCMT:crtmbox.obj
 0002:0000c89c       ??_C@_0M@PKCK@MessageBoxA?$AA@ 1008089c     LIBCMT:crtmbox.obj
 0002:0000c8a8       ??_C@_0L@HKL@user32?4dll?$AA@ 100808a8     LIBCMT:crtmbox.obj
 0002:0000c8b4       ??_C@_06PAPI@1?$CDQNAN?$AA@ 100808b4     LIBCMT:x10fout.obj
 0002:0000c8bc       ??_C@_05BGNL@1?$CDINF?$AA@ 100808bc     LIBCMT:x10fout.obj
 0002:0000c8c4       ??_C@_05EDPF@1?$CDIND?$AA@ 100808c4     LIBCMT:x10fout.obj
 0002:0000c8cc       ??_C@_06LKFM@1?$CDSNAN?$AA@ 100808cc     LIBCMT:x10fout.obj
 0002:0000c8d4       ??_C@_07CJME@H?3mm?3ss?$AA@ 100808d4     LIBCMT:strftime.obj
 0002:0000c8dc       ??_C@_0BE@MHI@dddd?0?5MMMM?5dd?0?5yyyy?$AA@ 100808dc     LIBCMT:strftime.obj
 0002:0000c8f0       ??_C@_06HCAD@M?1d?1yy?$AA@ 100808f0     LIBCMT:strftime.obj
 0002:0000c8f8       ??_C@_02DBLP@PM?$AA@       100808f8     LIBCMT:strftime.obj
 0002:0000c8fc       ??_C@_02ENLM@AM?$AA@       100808fc     LIBCMT:strftime.obj
 0002:0000c900       ??_C@_08LIDF@December?$AA@ 10080900     LIBCMT:strftime.obj
 0002:0000c90c       ??_C@_08NJLI@November?$AA@ 1008090c     LIBCMT:strftime.obj
 0002:0000c918       ??_C@_07IAMM@October?$AA@  10080918     LIBCMT:strftime.obj
 0002:0000c920       ??_C@_09MKGD@September?$AA@ 10080920     LIBCMT:strftime.obj
 0002:0000c92c       ??_C@_06PADP@August?$AA@   1008092c     LIBCMT:strftime.obj
 0002:0000c934       ??_C@_04PIJO@July?$AA@     10080934     LIBCMT:strftime.obj
 0002:0000c93c       ??_C@_04ICFP@June?$AA@     1008093c     LIBCMT:strftime.obj
 0002:0000c944       ??_C@_05JFGC@April?$AA@    10080944     LIBCMT:strftime.obj
 0002:0000c94c       ??_C@_05FGPD@March?$AA@    1008094c     LIBCMT:strftime.obj
 0002:0000c954       ??_C@_08PGBA@February?$AA@ 10080954     LIBCMT:strftime.obj
 0002:0000c960       ??_C@_07BPKJ@January?$AA@  10080960     LIBCMT:strftime.obj
 0002:0000c968       ??_C@_03PGJO@Dec?$AA@      10080968     LIBCMT:strftime.obj
 0002:0000c96c       ??_C@_03PDLM@Nov?$AA@      1008096c     LIBCMT:strftime.obj
 0002:0000c970       ??_C@_03BLHK@Oct?$AA@      10080970     LIBCMT:strftime.obj
 0002:0000c974       ??_C@_03DPFM@Sep?$AA@      10080974     LIBCMT:strftime.obj
 0002:0000c978       ??_C@_03CMCH@Aug?$AA@      10080978     LIBCMT:strftime.obj
 0002:0000c97c       ??_C@_03OBKI@Jul?$AA@      1008097c     LIBCMT:strftime.obj
 0002:0000c980       ??_C@_03LEIG@Jun?$AA@      10080980     LIBCMT:strftime.obj
 0002:0000c984       ??_C@_03MGHB@May?$AA@      10080984     LIBCMT:strftime.obj
 0002:0000c988       ??_C@_03MJJM@Apr?$AA@      10080988     LIBCMT:strftime.obj
 0002:0000c98c       ??_C@_03GNHA@Mar?$AA@      1008098c     LIBCMT:strftime.obj
 0002:0000c990       ??_C@_03PICE@Feb?$AA@      10080990     LIBCMT:strftime.obj
 0002:0000c994       ??_C@_03IEIF@Jan?$AA@      10080994     LIBCMT:strftime.obj
 0002:0000c998       ??_C@_08FAKH@Saturday?$AA@ 10080998     LIBCMT:strftime.obj
 0002:0000c9a4       ??_C@_06ONCK@Friday?$AA@   100809a4     LIBCMT:strftime.obj
 0002:0000c9ac       ??_C@_08CCFO@Thursday?$AA@ 100809ac     LIBCMT:strftime.obj
 0002:0000c9b8       ??_C@_09PBIN@Wednesday?$AA@ 100809b8     LIBCMT:strftime.obj
 0002:0000c9c4       ??_C@_07BMBC@Tuesday?$AA@  100809c4     LIBCMT:strftime.obj
 0002:0000c9cc       ??_C@_06CHLK@Monday?$AA@   100809cc     LIBCMT:strftime.obj
 0002:0000c9d4       ??_C@_06OOEM@Sunday?$AA@   100809d4     LIBCMT:strftime.obj
 0002:0000c9dc       ??_C@_03MPKK@Sat?$AA@      100809dc     LIBCMT:strftime.obj
 0002:0000c9e0       ??_C@_03FINJ@Fri?$AA@      100809e0     LIBCMT:strftime.obj
 0002:0000c9e4       ??_C@_03HIKC@Thu?$AA@      100809e4     LIBCMT:strftime.obj
 0002:0000c9e8       ??_C@_03HECK@Wed?$AA@      100809e8     LIBCMT:strftime.obj
 0002:0000c9ec       ??_C@_03ECCP@Tue?$AA@      100809ec     LIBCMT:strftime.obj
 0002:0000c9f0       ??_C@_03PIEP@Mon?$AA@      100809f0     LIBCMT:strftime.obj
 0002:0000c9f4       ??_C@_03FHEP@Sun?$AA@      100809f4     LIBCMT:strftime.obj
 0002:0000ca10       ??_R1A@?0A@A@type_info@@8  10080a10     LIBCMT:typinfo.obj
 0002:0000ca28       ??_R2type_info@@8          10080a28     LIBCMT:typinfo.obj
 0002:0000ca30       ??_R3type_info@@8          10080a30     LIBCMT:typinfo.obj
 0002:0000ca40       ??_R4type_info@@6B@        10080a40     LIBCMT:typinfo.obj
 0002:0000dd70       __IMPORT_DESCRIPTOR_KERNEL32 10081d70     kernel32:KERNEL32.dll
 0002:0000dd84       __IMPORT_DESCRIPTOR_USER32 10081d84     user32:USER32.dll
 0002:0000dd98       __IMPORT_DESCRIPTOR_WINMM  10081d98     winmm:WINMM.dll
 0002:0000ddac       __IMPORT_DESCRIPTOR_vgui   10081dac     vgui:vgui.dll
 0002:0000ddc0       __IMPORT_DESCRIPTOR_WSOCK32 10081dc0     wsock32:WSOCK32.dll
 0002:0000ddd4       __IMPORT_DESCRIPTOR_OPENGL32 10081dd4     opengl32:OPENGL32.dll
 0002:0000dde8       __NULL_IMPORT_DESCRIPTOR   10081de8     kernel32:KERNEL32.dll
 0003:00000000       ___xc_a                    10090000     LIBCMT:crt0init.obj
 0003:00000098       ___xc_z                    10090098     LIBCMT:crt0init.obj
 0003:0000009c       ___xi_a                    1009009c     LIBCMT:crt0init.obj
 0003:000000b0       ___xi_z                    100900b0     LIBCMT:crt0init.obj
 0003:000000b4       ___xp_a                    100900b4     LIBCMT:crt0init.obj
 0003:000000bc       ___xp_z                    100900bc     LIBCMT:crt0init.obj
 0003:000000c0       ___xt_a                    100900c0     LIBCMT:crt0init.obj
 0003:000000c8       ___xt_z                    100900c8     LIBCMT:crt0init.obj
 0003:00000234       ??_C@_0BL@JCJE@models?1w_crossbow_clip?4mdl?$AA@ 10090234     crossbow.obj
 0003:00000250       ??_C@_0BD@DCKL@items?19mmclip1?4wav?$AA@ 10090250     crossbow.obj
 0003:00000264       ??_C@_05JCNA@bolts?$AA@    10090264     crossbow.obj
 0003:0000051c       ??_C@_0BH@FNIA@models?1w_chainammo?4mdl?$AA@ 1009051c     egon.obj
 0003:00000534       ??_C@_07POLL@uranium?$AA@  10090534     egon.obj
 0003:0000053c       ?g_fireAnims1@@3PAHA       1009053c     ev_hldm.obj
 0003:0000054c       ?g_fireAnims2@@3PAHA       1009054c     ev_hldm.obj
 0003:00000e90       ??_C@_0BH@HIFD@models?1w_gaussammo?4mdl?$AA@ 10090e90     gauss.obj
 0003:000012dc       ??_C@_0BF@LOAJ@models?1w_9mmclip?4mdl?$AA@ 100912dc     hl_wpn_glock.obj
 0003:000012f4       ??_C@_03IEOM@9mm?$AA@      100912f4     hl_wpn_glock.obj
 0003:0000158c       ??_C@_0BH@GGOB@models?1w_9mmARclip?4mdl?$AA@ 1009158c     mp5.obj
 0003:000015a4       ??_C@_0BH@DCNA@models?1w_ARgrenade?4mdl?$AA@ 100915a4     mp5.obj
 0003:000015bc       ??_C@_0L@GNNC@ARgrenades?$AA@ 100915bc     mp5.obj
 0003:00001734       ??_C@_0BI@GIKK@models?1w_357ammobox?4mdl?$AA@ 10091734     python.obj
 0003:0000174c       ??_C@_03MIAK@357?$AA@      1009174c     python.obj
 0003:0000186c       ??_C@_0BF@FJPG@models?1w_rpgammo?4mdl?$AA@ 1009186c     rpg.obj
 0003:00001884       ??_C@_07DPNP@rockets?$AA@  10091884     rpg.obj
 0003:00001b04       ??_C@_09JDJH@classname?$AA@ 10091b04     satchel.obj
 0003:00001cf4       ??_C@_0BF@DNNJ@models?1w_shotbox?4mdl?$AA@ 10091cf4     shotgun.obj
 0003:00001d0c       ??_C@_08NGBJ@buckshot?$AA@ 10091d0c     shotgun.obj
 0003:00001fac       ?g_pBanMgrFilename@@3PBDB  10091fac     voice_banmgr.obj
 0003:0000251c       ?startAmmo@@3HA            1009251c     ammo.obj
 0003:00002790       ??_C@_08PDDB@?$CFi?5?$CFi?5?$CFi?$AA@ 10092790     ammo.obj
 0003:000027b4       ?HISTORY_DRAW_TIME@@3HA    100927b4     ammohistory.obj
 0003:00002828       ?seed_table@@3PAIA         10092828     com_weapons.obj
 0003:00002f20       ?g_ColorBlue@@3PAMA        10092f20     death.obj
 0003:00002f2c       ?g_ColorRed@@3PAMA         10092f2c     death.obj
 0003:00002f38       ?g_ColorGreen@@3PAMA       10092f38     death.obj
 0003:00002f44       ?g_ColorYellow@@3PAMA      10092f44     death.obj
 0003:00002f50       ?g_ColorGrey@@3PAMA        10092f50     death.obj
 0003:00003070       ?g_iAlive@@3HA             10093070     entity.obj
 0003:000030b0       ?studio@@3Ur_studio_interface_s@@A 100930b0     GameStudioModelRenderer.obj
 0003:000030d8       ?giDmgFlags@@3PAHA         100930d8     health.obj
 0003:00003974       ?grgLogoFrame@@3PAHA       10093974     hud_redraw.obj
 0003:000046d8       ?dwAxisFlags@@3PAKA        100946d8     inputw32.obj
 0003:000049f4       ?g_pCustomName@@3PADA      100949f4     message.obj
 0003:00004a98       _nanmask                   10094a98     pm_math.obj
 0003:00004a9c       _g_iCustomJumpvel          10094a9c     pm_shared.obj
 0003:000054dc       ??_C@_0BG@DCCC@You?5are?5a?5dumb?5monkey?$AA@ 100954dc     vgui_ControlConfigPanel.obj
 0003:000054f4       ??_C@_04NKMB@Goat?$AA@     100954f4     vgui_ControlConfigPanel.obj
 0003:000054fc       ?sArrowFilenames@@3PAPADA  100954fc     vgui_CustomObjects.obj
 0003:00005800       ?g_ColumnInfo@@3PAVSBColumnInfo@@A 10095800     vgui_ScorePanel.obj
 0003:000059ac       ??_C@_0L@ODJH@jointeam?54?$AA@ 100959ac     vgui_ScorePanel.obj
 0003:000059b8       ??_C@_0L@LGHC@jointeam?53?$AA@ 100959b8     vgui_ScorePanel.obj
 0003:000059c4       ??_C@_0L@BMOF@jointeam?52?$AA@ 100959c4     vgui_ScorePanel.obj
 0003:000059d0       ??_C@_0L@ODFM@jointeam?51?$AA@ 100959d0     vgui_ScorePanel.obj
 0003:00005a48       ??_C@_0CJ@BOME@Press?5?8Refresh?8?5to?5search?5for?5se@ 10095a48     vgui_ServerBrowser.obj
 0003:00005a74       ??_C@_0CC@NEHG@Waiting?5for?5servers?5to?5respond?4?4@ 10095a74     vgui_ServerBrowser.obj
 0003:00005a98       ??_C@_04LBKD@ping?$AA@     10095a98     vgui_ServerBrowser.obj
 0003:00005aa0       ??_C@_05LELA@?$CFs?1?$CFs?$AA@ 10095aa0     vgui_ServerBrowser.obj
 0003:00005aa8       ??_C@_03CODD@max?$AA@      10095aa8     vgui_ServerBrowser.obj
 0003:00005aac       ??_C@_07HLIN@current?$AA@  10095aac     vgui_ServerBrowser.obj
 0003:00005ab4       ??_C@_03HKIL@map?$AA@      10095ab4     vgui_ServerBrowser.obj
 0003:00005ab8       ??_C@_08NNNB@hostname?$AA@ 10095ab8     vgui_ServerBrowser.obj
 0003:00005ac4       ??_C@_07ONJG@address?$AA@  10095ac4     vgui_ServerBrowser.obj
 0003:00005acc       ??_C@_0M@HMCF@connect?5?$CFs?6?$AA@ 10095acc     vgui_ServerBrowser.obj
 0003:00005ad8       ??_C@_0P@KCOO@togglebrowser?6?$AA@ 10095ad8     vgui_ServerBrowser.obj
 0003:00005c08       ?iNumberOfTeamColors@@3HA  10095c08     vgui_TeamFortressViewport.obj
 0003:00005c0c       ?iTeamColors@@3PAY02HA     10095c0c     vgui_TeamFortressViewport.obj
 0003:00005c48       ?sTFClasses@@3PAPADA       10095c48     vgui_TeamFortressViewport.obj
 0003:00005c74       ?sLocalisedClasses@@3PAPADA 10095c74     vgui_TeamFortressViewport.obj
 0003:00005ca4       ?sTFClassSelection@@3PAPADA 10095ca4     vgui_TeamFortressViewport.obj
 0003:00005cd4       ?iBuildingCosts@@3PAHA     10095cd4     vgui_TeamFortressViewport.obj
 0003:00005cdc       ?sTFValidClassInts@@3PAHA  10095cdc     vgui_TeamFortressViewport.obj
 0003:00006468       ??_C@_0BH@JCPG@ForceCloseCommandMenu?6?$AA@ 10096468     vgui_TeamFortressViewport.obj
 0003:00006480       ??_R0PAVCException@@@8     10096480     vgui_TeamFortressViewport.obj
 0003:0000649c       ??_C@_0M@HBDC@maps?1?$CFs?4bsp?$AA@ 1009649c     vgui_TeamFortressViewport.obj
 0003:000064a8       ??_C@_09MNGL@unchecked?$AA@ 100964a8     vgui_TeamFortressViewport.obj
 0003:000064b4       ??_C@_07GGL@checked?$AA@   100964b4     vgui_TeamFortressViewport.obj
 0003:000065b8       ?v_cameraRelaxAngle@@3MA   100965b8     view.obj
 0003:000065bc       ?v_cameraFocusAngle@@3MA   100965bc     view.obj
 0003:000065c0       ?v_cameraMode@@3HA         100965c0     view.obj
 0003:000065c4       ?v_resetCamera@@3HA        100965c4     view.obj
 0003:000065c8       ?v_iyaw_cycle@@3Ucvar_s@@A 100965c8     view.obj
 0003:000065e0       ?v_iroll_cycle@@3Ucvar_s@@A 100965e0     view.obj
 0003:000065f8       ?v_ipitch_cycle@@3Ucvar_s@@A 100965f8     view.obj
 0003:00006610       ?v_iyaw_level@@3Ucvar_s@@A 10096610     view.obj
 0003:00006628       ?v_iroll_level@@3Ucvar_s@@A 10096628     view.obj
 0003:00006640       ?v_ipitch_level@@3Ucvar_s@@A 10096640     view.obj
 0003:00006abc       __fltused                  10096abc     LIBCMT:fpinit.obj
 0003:00006ac0       __ldused                   10096ac0     LIBCMT:fpinit.obj
 0003:00006ac4       __FPinit                   10096ac4     LIBCMT:fpinit.obj
 0003:00006ac8       __FPmtinit                 10096ac8     LIBCMT:fpinit.obj
 0003:00006acc       __FPmtterm                 10096acc     LIBCMT:fpinit.obj
 0003:00006ad0       __NLG_Destination          10096ad0     LIBCMT:exsup.obj
 0003:00006af0       __OP_FMODjmptab            10096af0     LIBCMT:87fmod.obj
 0003:00006b70       __half                     10096b70     LIBCMT:pow.obj
 0003:00006b90       __pctype                   10096b90     LIBCMT:ctype.obj
 0003:00006b94       __pwctype                  10096b94     LIBCMT:ctype.obj
 0003:00006b98       __ctype                    10096b98     LIBCMT:ctype.obj
 0003:00006d9c       ___mb_cur_max              10096d9c     LIBCMT:nlsdata1.obj
 0003:00006da0       ___decimal_point           10096da0     LIBCMT:nlsdata1.obj
 0003:00006da4       ___decimal_point_length    10096da4     LIBCMT:nlsdata1.obj
 0003:00006db0       ??_R0?AVtype_info@@@8      10096db0     LIBCMT:typinfo.obj
 0003:00006dd0       __aexit_rtn                10096dd0     LIBCMT:dllcrt0.obj
 0003:00006dd4       __cfltcvt_tab              10096dd4     LIBCMT:cmiscdat.obj
 0003:00006df0       ___tlsindex                10096df0     LIBCMT:tidtable.obj
 0003:00006df4       ?__pInconsistency@@3P6AXXZA 10096df4     LIBCMT:hooks.obj
 0003:00006e00       __indefinite               10096e00     LIBCMT:87disp.obj
 0003:00006e0a       __piby2                    10096e0a     LIBCMT:87disp.obj
 0003:00006e30       ___nullstring              10096e30     LIBCMT:output.obj
 0003:00006e34       ___wnullstring             10096e34     LIBCMT:output.obj
 0003:00006e38       __locktable                10096e38     LIBCMT:mlock.obj
 0003:00006ef8       __iob                      10096ef8     LIBCMT:_file.obj
 0003:000072e0       ___badioinfo               100972e0     LIBCMT:ioinit.obj
 0003:00007304       __amblksiz                 10097304     LIBCMT:heapinit.obj
 0003:00007308       ___sbh_threshold           10097308     LIBCMT:sbheap.obj
 0003:00007558       __d_inf                    10097558     LIBCMT:util.obj
 0003:00007560       __d_ind                    10097560     LIBCMT:util.obj
 0003:00007568       __d_max                    10097568     LIBCMT:util.obj
 0003:00007570       __d_min                    10097570     LIBCMT:util.obj
 0003:00007578       __d_mzero                  10097578     LIBCMT:util.obj
 0003:000075a0       __infinity                 100975a0     LIBCMT:87tran.obj
 0003:000075aa       __minfinity                100975aa     LIBCMT:87tran.obj
 0003:000075b4       __logemax                  100975b4     LIBCMT:87tran.obj
 0003:000075da       __OP_EXPjmptab             100975da     LIBCMT:87tran.obj
 0003:00007600       __OP_ATAN2jmptab           10097600     LIBCMT:87triga.obj
 0003:00007820       __XcptActTab               10097820     LIBCMT:winxfltr.obj
 0003:00007898       __First_FPE_Indx           10097898     LIBCMT:winxfltr.obj
 0003:0000789c       __Num_FPE                  1009789c     LIBCMT:winxfltr.obj
 0003:000078a0       __XcptActTabSize           100978a0     LIBCMT:winxfltr.obj
 0003:000078a4       __XcptActTabCount          100978a4     LIBCMT:winxfltr.obj
 0003:000078b0       __matherr_flag             100978b0     LIBCMT:matherr.obj
 0003:000078b4       __timezone                 100978b4     LIBCMT:timeset.obj
 0003:000078b8       __daylight                 100978b8     LIBCMT:timeset.obj
 0003:000078bc       __dstbias                  100978bc     LIBCMT:timeset.obj
 0003:00007940       __tzname                   10097940     LIBCMT:timeset.obj
 0003:00007964       __lpdays                   10097964     LIBCMT:days.obj
 0003:00007998       __days                     10097998     LIBCMT:days.obj
 0003:00007ac8       ___lc_time_curr            10097ac8     LIBCMT:strftime.obj
 0003:00007ad0       ___lc_time_c               10097ad0     LIBCMT:strftime.obj
 0003:00007b80       ___lconv_static_decimal    10097b80     LIBCMT:lconv.obj
 0003:00007b88       ___lconv_c                 10097b88     LIBCMT:lconv.obj
 0003:00007bb8       ___lconv                   10097bb8     LIBCMT:lconv.obj
 0003:00007bc0       __pow10pos                 10097bc0     LIBCMT:constpow.obj
 0003:00007d20       __pow10neg                 10097d20     LIBCMT:constpow.obj
 0003:00007e80       ??_C@_00A@?$AA@            10097e80     crossbow.obj
 0003:00007e88       ?g_iGaussCount@@3HA        10097e88     ev_hldm.obj
 0003:00007e8c       ?g_fGaussStart@@3MA        10097e8c     ev_hldm.obj
 0003:00007e90       ?pBeam2@@3PAUbeam_s@@A     10097e90     ev_hldm.obj
 0003:00007e94       ?pBeam@@3PAUbeam_s@@A      10097e94     ev_hldm.obj
 0003:00007f18       ?g_iSwing@@3HA             10097f18     ev_hldm.obj
 0003:00007f40       ?g_vecPlayerVelocity@@3VVector@@A 10097f40     ev_hldm.obj
 0003:00007f4c       ?g_bGausscharge@@3_NA      10097f4c     ev_hldm.obj
 0003:00007f50       ?g_vecPlayerAngle@@3VVector@@A 10097f50     ev_hldm.obj
 0003:00007f5c       ?g_fGrenTime@@3MA          10097f5c     ev_hldm.obj
 0003:00007f60       ?g_bTimer@@3_NA            10097f60     ev_hldm.obj
 0003:00007f68       ?g_engfuncs@@3Uenginefuncs_s@@A 10097f68     hl_baseentity.obj
 0003:000081a8       ?g_vecZero@@3VVector@@B    100981a8     hl_baseentity.obj
 0003:000081b8       ?gSkillData@@3Uskilldata_t@@A 100981b8     hl_baseentity.obj
 0003:00008310       ?ItemInfoArray@CBasePlayerItem@@2PAUItemInfo@@A 10098310     hl_baseentity.obj
 0003:00008890       ?gpGlobals@@3PAUglobalvars_t@@A 10098890     hl_baseentity.obj
 0003:00008894       ?gmsgWeapPickup@@3HA       10098894     hl_baseentity.obj
 0003:000088a0       ?g_Tripmine@@3VCTripmine@@A 100988a0     hl_weapons.obj
 0003:00008958       ?g_Crossbow@@3VCCrossbow@@A 10098958     hl_weapons.obj
 0003:00008a18       ?g_Egon@@3VCEgon@@A        10098a18     hl_weapons.obj
 0003:00008b78       ?g_Shotgun@@3VCShotgun@@A  10098b78     hl_weapons.obj
 0003:00008c40       ?g_Mp5@@3VCMP5@@A          10098c40     hl_weapons.obj
 0003:00008d00       ?g_Python@@3VCPython@@A    10098d00     hl_weapons.obj
 0003:00008dc0       ?g_HandGren@@3VCHandGrenade@@A 10098dc0     hl_weapons.obj
 0003:00008e78       ?g_bInit@@3_NA             10098e78     hl_weapons.obj
 0003:00008e80       ?g_Rpg@@3VCRpg@@A          10098e80     hl_weapons.obj
 0003:00008f48       ?previousorigin@@3VVector@@A 10098f48     hl_weapons.obj
 0003:0000e3d8       ?g_Glock@@3VCGlock@@A      1009e3d8     hl_weapons.obj
 0003:0000ebe8       ?g_Snark@@3VCSqueak@@A     1009ebe8     hl_weapons.obj
 0003:0000f158       ?g_HGun@@3VCHgun@@A        1009f158     hl_weapons.obj
 0003:0000f220       ?g_Crowbar@@3VCCrowbar@@A  1009f220     hl_weapons.obj
 0003:0000f318       ?g_Satchel@@3VCSatchel@@A  1009f318     hl_weapons.obj
 0003:0000f3d0       ?g_Gauss@@3VCGauss@@A      1009f3d0     hl_weapons.obj
 0003:0000f4a4       ?g_flApplyVel@@3MA         1009f4a4     hl_weapons.obj
 0003:0000f4a8       ?g_irunninggausspred@@3HA  1009f4a8     hl_weapons.obj
 0003:0000f4b0       ?s_pInterfaceRegs@InterfaceReg@@2PAV1@A 1009f4b0     interface.obj
 0003:0000f4b8       ?g_VoiceStatus@@3VCVoiceStatus@@A 1009f4b8     voice_status.obj
 0003:00028528       ?g_BannedPlayerPrintCount@@3HA 100b8528     voice_status.obj
 0003:00028538       ?gWR@@3VWeaponsResource@@A 100b8538     ammo.obj
 0003:0002af4c       ?giABHeight@@3HA           100baf4c     ammo.obj
 0003:0002af50       ?ammoConsumed@@3HA         100baf50     ammo.obj
 0003:0002af68       ?ghsprBuckets@@3HA         100baf68     ammo.obj
 0003:0002af6c       ?timeTillNextAmmoConsume@@3MA 100baf6c     ammo.obj
 0003:0002af70       ?gpLastSel@@3PAUWEAPON@@A  100baf70     ammo.obj
 0003:0002af88       ?gaussboost_ammoConsumed@@3MA 100baf88     ammo.obj
 0003:0002af8c       ?giBucketWidth@@3HA        100baf8c     ammo.obj
 0003:0002af90       ?giABWidth@@3HA            100baf90     ammo.obj
 0003:0002af94       ?gpActiveSel@@3PAUWEAPON@@A 100baf94     ammo.obj
 0003:0002af98       ?giBucketHeight@@3HA       100baf98     ammo.obj
 0003:0002af9c       ?timeAmmoConsumed@@3MA     100baf9c     ammo.obj
 0003:0002afa0       ?g_weaponselect@@3HA       100bafa0     ammo.obj
 0003:0002afa4       ?oldAmmoConsumed@@3HA      100bafa4     ammo.obj
 0003:0002afa8       ?oldGausscharge@@3_NA      100bafa8     ammo.obj
 0003:0002afa9       ?g_bHoldingGaussCannon@@3_NA 100bafa9     ammo.obj
 0003:0002afb0       ?gHR@@3VHistoryResource@@A 100bafb0     ammohistory.obj
 0003:0002b078       ?gHUD@@3VCHud@@A           100bb078     cdll_int.obj
 0003:0002cc18       ?gEngfuncs@@3Ucl_enginefuncs_s@@A 100bcc18     cdll_int.obj
 0003:0002cdac       ?gViewPort@@3PAVTeamFortressViewport@@A 100bcdac     cdll_int.obj
 0003:0002cdb0       ?g_onground@@3HA           100bcdb0     cdll_int.obj
 0003:0002cdb4       ?g_oldground@@3HA          100bcdb4     cdll_int.obj
 0003:0002cdbc       ?g_runfuncs@@3HA           100bcdbc     com_weapons.obj
 0003:0002cdc0       ?g_finalstate@@3PAUlocal_state_s@@A 100bcdc0     com_weapons.obj
 0003:0002cdc8       ?gaussboost_resultingSpeed@@3MA 100bcdc8     custom_hud.obj
 0003:0002cdcc       ?gaussboost_boostWithCurrentViewangles@@3MA 100bcdcc     custom_hud.obj
 0003:0002cdd0       ?gaussboost_damage@@3MA    100bcdd0     custom_hud.obj
 0003:0002cdd8       ?gaussboost_vecBoostWithCurrentViewangles@@3VVector@@A 100bcdd8     custom_hud.obj
 0003:0002cde4       ?gaussboost_delta@@3MA     100bcde4     custom_hud.obj
 0003:0002cde8       ?gaussboost_vecResultingSpeedBB@@3VVector@@A 100bcde8     custom_hud.obj
 0003:0002cdf4       ?gaussboost_resultingSpeedWithOptimalViewangles@@3MA 100bcdf4     custom_hud.obj
 0003:0002cdf8       ?demorec_delta@@3NA        100bcdf8     custom_hud.obj
 0003:0002ce00       ?gaussboost_boostWithOptimalViewangles@@3MA 100bce00     custom_hud.obj
 0003:0002ce04       ?gaussboost_resultingSpeedWithOptimalViewanglesBB@@3MA 100bce04     custom_hud.obj
 0003:0002ce08       ?gaussboost_vecResultingSpeed@@3VVector@@A 100bce08     custom_hud.obj
 0003:0002ce14       ?gaussboost_resultingSpeedBB@@3MA 100bce14     custom_hud.obj
 0003:0002ce18       ?demorec_counter_delta@@3NA 100bce18     custom_hud.obj
 0003:0002ce20       ?recording@@3HA            100bce20     custom_hud.obj
 0003:0002ce24       ?oldrecording@@3HA         100bce24     custom_hud.obj
 0003:0002ce28       ?playingback@@3HA          100bce28     custom_hud.obj
 0003:0002ce30       ?rgDeathNoticeList@@3PAUDeathNoticeItem@@A 100bce30     death.obj
 0003:0002d144       ?g_demozoom@@3MA           100bd144     demo.obj
 0003:0002d148       ?g_demosniperorg@@3PAMA    100bd148     demo.obj
 0003:0002d154       ?g_demosniperangles@@3PAMA 100bd154     demo.obj
 0003:0002d160       ?g_demosniper@@3HA         100bd160     demo.obj
 0003:0002d164       ?g_demosniperdamage@@3HA   100bd164     demo.obj
 0003:0002d170       ?g_StudioRenderer@@3VCGameStudioModelRenderer@@A 100bd170     GameStudioModelRenderer.obj
 0003:00031220       ?giDmgHeight@@3HA          100c1220     health.obj
 0003:00031224       ?giDmgWidth@@3HA           100c1224     health.obj
 0003:00031228       ?hud_origin_z_pos@@3PAUcvar_s@@A 100c1228     hud.obj
 0003:0003122c       ?hud_battery_5dig@@3PAUcvar_s@@A 100c122c     hud.obj
 0003:00031230       ?hud_zspeed@@3PAUcvar_s@@A 100c1230     hud.obj
 0003:00031234       ?hud_gaussboost_pos@@3PAUcvar_s@@A 100c1234     hud.obj
 0003:00031238       ?hud_viewangle_y_pos@@3PAUcvar_s@@A 100c1238     hud.obj
 0003:0003123c       ?hud_speedometer@@3PAUcvar_s@@A 100c123c     hud.obj
 0003:00031240       ?cl_wallhack@@3PAUcvar_s@@A 100c1240     hud.obj
 0003:00031244       ?cl_ruler_addorigin@@3PAUcvar_s@@A 100c1244     hud.obj
 0003:00031248       ?hud_ammo_pos@@3PAUcvar_s@@A 100c1248     hud.obj
 0003:0003124c       ?hud_color@@3PAUcvar_s@@A  100c124c     hud.obj
 0003:00031250       ?hud_grenadetimer_pos@@3PAUcvar_s@@A 100c1250     hud.obj
 0003:00031254       ?hud_demorec_counter_pos@@3PAUcvar_s@@A 100c1254     hud.obj
 0003:00031258       ?cl_modelalpha@@3PAUcvar_s@@A 100c1258     hud.obj
 0003:00031260       ?hud_acceleration_pos@@3PAUcvar_s@@A 100c1260     hud.obj
 0003:00031264       ?hud_zspeed_pos@@3PAUcvar_s@@A 100c1264     hud.obj
 0003:00031268       ?hud_acceleration@@3PAUcvar_s@@A 100c1268     hud.obj
 0003:0003126c       ?hud_health_pos@@3PAUcvar_s@@A 100c126c     hud.obj
 0003:00031270       ?hud_health_5dig@@3PAUcvar_s@@A 100c1270     hud.obj
 0003:00031274       ?cl_rendermodels@@3PAUcvar_s@@A 100c1274     hud.obj
 0003:00031278       ?hud_grenadetimer@@3PAUcvar_s@@A 100c1278     hud.obj
 0003:0003127c       ?cl_ruler_enable@@3PAUcvar_s@@A 100c127c     hud.obj
 0003:00031280       ?hud_gausscharge_pos@@3PAUcvar_s@@A 100c1280     hud.obj
 0003:00031284       ?hud_demorec_counter@@3PAUcvar_s@@A 100c1284     hud.obj
 0003:00031288       ?hud_alpha@@3PAUcvar_s@@A  100c1288     hud.obj
 0003:0003128c       ?hud_health_reqhev@@3PAUcvar_s@@A 100c128c     hud.obj
 0003:00031290       ?hud_jumpspeed@@3PAUcvar_s@@A 100c1290     hud.obj
 0003:00031294       ?hud_accuracy@@3PAUcvar_s@@A 100c1294     hud.obj
 0003:00031298       ?cl_autostopsave_radius@@3PAUcvar_s@@A 100c1298     hud.obj
 0003:0003129c       ?hud_speedinfo@@3PAUcvar_s@@A 100c129c     hud.obj
 0003:000312a0       ?hud_grenadetimer_height@@3PAUcvar_s@@A 100c12a0     hud.obj
 0003:000312a4       ?hud_origin_x_pos@@3PAUcvar_s@@A 100c12a4     hud.obj
 0003:000312a8       ?hud_gaussboost_dontchange_resetto@@3PAUcvar_s@@A 100c12a8     hud.obj
 0003:000312ac       ?hud_gausscharge@@3PAUcvar_s@@A 100c12ac     hud.obj
 0003:000312b0       ?hud_viewangle_x@@3PAUcvar_s@@A 100c12b0     hud.obj
 0003:000312b4       ?hud_viewangle_y@@3PAUcvar_s@@A 100c12b4     hud.obj
 0003:000312b8       ?cl_autostopsave_cmd@@3PAUcvar_s@@A 100c12b8     hud.obj
 0003:000312bc       ?cl_rendergibs@@3PAUcvar_s@@A 100c12bc     hud.obj
 0003:000312c0       ?hud_armor_pos@@3PAUcvar_s@@A 100c12c0     hud.obj
 0003:000312c4       ?cl_ruler_autodelay@@3PAUcvar_s@@A 100c12c4     hud.obj
 0003:000312c8       ?hud_viewangle_x_pos@@3PAUcvar_s@@A 100c12c8     hud.obj
 0003:000312cc       ?cl_ruler_render@@3PAUcvar_s@@A 100c12cc     hud.obj
 0003:000312d0       ?hud_origin_y_pos@@3PAUcvar_s@@A 100c12d0     hud.obj
 0003:000312d4       ?hud_grenadetimer_width@@3PAUcvar_s@@A 100c12d4     hud.obj
 0003:000312d8       ?hud_gaussboost@@3PAUcvar_s@@A 100c12d8     hud.obj
 0003:000312dc       ?hud_origin_z@@3PAUcvar_s@@A 100c12dc     hud.obj
 0003:000312e0       ?hud_origin_y@@3PAUcvar_s@@A 100c12e0     hud.obj
 0003:000312e4       ?hud_origin_x@@3PAUcvar_s@@A 100c12e4     hud.obj
 0003:000312e8       ?hud_speedometer_pos@@3PAUcvar_s@@A 100c12e8     hud.obj
 0003:000312ec       ?hud_jumpspeed_pos@@3PAUcvar_s@@A 100c12ec     hud.obj
 0003:000312f0       ?hud_grenadetimer_dontchange_resetto@@3PAUcvar_s@@A 100c12f0     hud.obj
 0003:000312f4       ?hud_speedinfo_pos@@3PAUcvar_s@@A 100c12f4     hud.obj
 0003:000312f8       ?cl_lw@@3PAUcvar_s@@A      100c12f8     hud.obj
 0003:000312fc       ?r_drawviewmodel@@3PAUcvar_s@@A 100c12fc     hud.obj
 0003:00031300       ?hud_pos_percent@@3PAUcvar_s@@A 100c1300     hud.obj
 0003:00031304       ?g_bResetDemorecCounter@@3_NA 100c1304     hud.obj
 0003:00031305       ?g_bGrenTimeReset@@3_NA    100c1305     hud.obj
 0003:00031306       ?g_bDemorecChangelevel@@3_NA 100c1306     hud.obj
 0003:00031307       ?g_bGaussboostReset@@3_NA  100c1307     hud.obj
 0003:00031308       ?g_lastFOV@@3MA            100c1308     hud.obj
 0003:0003141c       ?in_fov@@3MA               100c141c     hud_update.obj
 0003:00031420       ?c_minyaw@@3PAUcvar_s@@A   100c1420     in_camera.obj
 0003:00031424       ?cam_contain@@3PAUcvar_s@@A 100c1424     in_camera.obj
 0003:00031428       ?cam_snapto@@3PAUcvar_s@@A 100c1428     in_camera.obj
 0003:0003142c       ?cam_mousemove@@3HA        100c142c     in_camera.obj
 0003:00031430       ?cam_old_mouse_y@@3HA      100c1430     in_camera.obj
 0003:00031434       ?cam_old_mouse_x@@3HA      100c1434     in_camera.obj
 0003:00031444       ?cam_idealyaw@@3PAUcvar_s@@A 100c1444     in_camera.obj
 0003:00031448       ?c_maxdistance@@3PAUcvar_s@@A 100c1448     in_camera.obj
 0003:0003144c       ?c_minpitch@@3PAUcvar_s@@A 100c144c     in_camera.obj
 0003:00031450       ?cam_idealdist@@3PAUcvar_s@@A 100c1450     in_camera.obj
 0003:00031458       ?cam_mouse@@3UtagPOINT@@A  100c1458     in_camera.obj
 0003:00031460       ?c_maxyaw@@3PAUcvar_s@@A   100c1460     in_camera.obj
 0003:00031468       ?cam_ofs@@3VVector@@A      100c1468     in_camera.obj
 0003:00031474       ?c_maxpitch@@3PAUcvar_s@@A 100c1474     in_camera.obj
 0003:000314a4       ?cam_distancemove@@3HA     100c14a4     in_camera.obj
 0003:000314b4       ?cam_idealpitch@@3PAUcvar_s@@A 100c14b4     in_camera.obj
 0003:000314b8       ?cam_command@@3PAUcvar_s@@A 100c14b8     in_camera.obj
 0003:000314dc       ?c_mindistance@@3PAUcvar_s@@A 100c14dc     in_camera.obj
 0003:000314e0       ?cam_thirdperson@@3HA      100c14e0     in_camera.obj
 0003:000314e4       ?iMouseInUse@@3HA          100c14e4     in_camera.obj
 0003:000314e8       ?in_attack2@@3Ukbutton_s@@A 100c14e8     input.obj
 0003:000314f8       ?in_lookdown@@3Ukbutton_s@@A 100c14f8     input.obj
 0003:00031508       ?in_graph@@3Ukbutton_s@@A  100c1508     input.obj
 0003:00031518       ?m_pitch@@3PAUcvar_s@@A    100c1518     input.obj
 0003:00031520       ?in_speed@@3Ukbutton_s@@A  100c1520     input.obj
 0003:0003152c       ?cl_movespeedkey@@3PAUcvar_s@@A 100c152c     input.obj
 0003:00031530       ?in_attack@@3Ukbutton_s@@A 100c1530     input.obj
 0003:00031540       ?in_up@@3Ukbutton_s@@A     100c1540     input.obj
 0003:00031550       ?in_use@@3Ukbutton_s@@A    100c1550     input.obj
 0003:0003155c       ?cl_pitchdown@@3PAUcvar_s@@A 100c155c     input.obj
 0003:00031560       ?cl_forwardspeed@@3PAUcvar_s@@A 100c1560     input.obj
 0003:00031568       ?in_down@@3Ukbutton_s@@A   100c1568     input.obj
 0003:00031574       ?cl_vsmoothing@@3PAUcvar_s@@A 100c1574     input.obj
 0003:00031578       ?lookspring@@3PAUcvar_s@@A 100c1578     input.obj
 0003:00031580       ?in_duck@@3Ukbutton_s@@A   100c1580     input.obj
 0003:0003158c       ?cl_yawspeed@@3PAUcvar_s@@A 100c158c     input.obj
 0003:00031590       ?lookstrafe@@3PAUcvar_s@@A 100c1590     input.obj
 0003:00031598       ?in_mlook@@3Ukbutton_s@@A  100c1598     input.obj
 0003:000315a4       ?cl_pitchup@@3PAUcvar_s@@A 100c15a4     input.obj
 0003:000315a8       ?in_reload@@3Ukbutton_s@@A 100c15a8     input.obj
 0003:000315b8       ?in_forward@@3Ukbutton_s@@A 100c15b8     input.obj
 0003:000315c4       ?m_side@@3PAUcvar_s@@A     100c15c4     input.obj
 0003:000315c8       ?in_left@@3Ukbutton_s@@A   100c15c8     input.obj
 0003:000315d8       ?in_right@@3Ukbutton_s@@A  100c15d8     input.obj
 0003:000315e8       ?in_score@@3Ukbutton_s@@A  100c15e8     input.obj
 0003:000315f4       ?m_yaw@@3PAUcvar_s@@A      100c15f4     input.obj
 0003:000315f8       ?in_moveleft@@3Ukbutton_s@@A 100c15f8     input.obj
 0003:00031608       ?in_lookup@@3Ukbutton_s@@A 100c1608     input.obj
 0003:00031614       ?m_forward@@3PAUcvar_s@@A  100c1614     input.obj
 0003:00031618       ?in_jump@@3Ukbutton_s@@A   100c1618     input.obj
 0003:00031628       ?in_jlook@@3Ukbutton_s@@A  100c1628     input.obj
 0003:00031638       ?in_strafe@@3Ukbutton_s@@A 100c1638     input.obj
 0003:00031648       ?in_moveright@@3Ukbutton_s@@A 100c1648     input.obj
 0003:00031654       ?cl_sidespeed@@3PAUcvar_s@@A 100c1654     input.obj
 0003:00031658       ?in_break@@3Ukbutton_s@@A  100c1658     input.obj
 0003:00031668       ?in_back@@3Ukbutton_s@@A   100c1668     input.obj
 0003:00031684       ?cl_backspeed@@3PAUcvar_s@@A 100c1684     input.obj
 0003:00031688       ?in_alt1@@3Ukbutton_s@@A   100c1688     input.obj
 0003:00031694       ?cl_upspeed@@3PAUcvar_s@@A 100c1694     input.obj
 0003:00031698       ?cl_pitchspeed@@3PAUcvar_s@@A 100c1698     input.obj
 0003:0003169c       ?cl_anglespeedkey@@3PAUcvar_s@@A 100c169c     input.obj
 0003:000316a0       ?in_klook@@3Ukbutton_s@@A  100c16a0     input.obj
 0003:000316ac       ?in_impulse@@3HA           100c16ac     input.obj
 0003:000316b0       ?in_cancel@@3HA            100c16b0     input.obj
 0003:000316b4       ?g_kbkeys@@3PAUkblist_s@@A 100c16b4     input.obj
 0003:000316b8       ?mouseinitialized@@3HA     100c16b8     inputw32.obj
 0003:000316bc       ?dwControlMap@@3PAKA       100c16bc     inputw32.obj
 0003:000316d4       ?dwAxisMap@@3PAKA          100c16d4     inputw32.obj
 0003:000316ec       ?_mx@@3HA                  100c16ec     inputw32.obj
 0003:000316f0       ?pdwRawValue@@3PAPAKA      100c16f0     inputw32.obj
 0003:00031708       ?joy_numbuttons@@3KA       100c1708     inputw32.obj
 0003:0003170c       ?in_joystick@@3PAUcvar_s@@A 100c170c     inputw32.obj
 0003:00031710       ?mouse_y@@3MA              100c1710     inputw32.obj
 0003:00031714       ?joy_avail@@3HA            100c1714     inputw32.obj
 0003:00031718       ?mouse_x@@3MA              100c1718     inputw32.obj
 0003:0003171c       ?joy_name@@3PAUcvar_s@@A   100c171c     inputw32.obj
 0003:00031720       ?joy_oldpovstate@@3KA      100c1720     inputw32.obj
 0003:00031724       ?my_accum@@3HA             100c1724     inputw32.obj
 0003:0003172c       ?joy_advaxisr@@3PAUcvar_s@@A 100c172c     inputw32.obj
 0003:00031730       ?joy_advaxisv@@3PAUcvar_s@@A 100c1730     inputw32.obj
 0003:00031734       ?m_filter@@3PAUcvar_s@@A   100c1734     inputw32.obj
 0003:00031738       ?joy_advaxisu@@3PAUcvar_s@@A 100c1738     inputw32.obj
 0003:0003173c       ?joy_advaxisz@@3PAUcvar_s@@A 100c173c     inputw32.obj
 0003:00031740       ?joy_advaxisy@@3PAUcvar_s@@A 100c1740     inputw32.obj
 0003:00031744       ?joy_advaxisx@@3PAUcvar_s@@A 100c1744     inputw32.obj
 0003:00031748       ?joy_wwhack2@@3PAUcvar_s@@A 100c1748     inputw32.obj
 0003:0003174c       ?joy_wwhack1@@3PAUcvar_s@@A 100c174c     inputw32.obj
 0003:0003175c       ?old_mouse_y@@3MA          100c175c     inputw32.obj
 0003:00031760       ?old_mouse_x@@3MA          100c1760     inputw32.obj
 0003:00031764       ?joy_oldbuttonstate@@3KA   100c1764     inputw32.obj
 0003:00031768       ?joy_sidesensitivity@@3PAUcvar_s@@A 100c1768     inputw32.obj
 0003:0003176c       ?joy_yawsensitivity@@3PAUcvar_s@@A 100c176c     inputw32.obj
 0003:00031770       ?joy_forwardthreshold@@3PAUcvar_s@@A 100c1770     inputw32.obj
 0003:00031774       ?joy_advanced@@3PAUcvar_s@@A 100c1774     inputw32.obj
 0003:00031778       ?joy_forwardsensitivity@@3PAUcvar_s@@A 100c1778     inputw32.obj
 0003:0003177c       ?joy_yawthreshold@@3PAUcvar_s@@A 100c177c     inputw32.obj
 0003:00031780       ?current_pos@@3UtagPOINT@@A 100c1780     inputw32.obj
 0003:00031788       ?joy_advancedinit@@3HA     100c1788     inputw32.obj
 0003:0003178c       ?joy_sidethreshold@@3PAUcvar_s@@A 100c178c     inputw32.obj
 0003:000317c4       ?joy_pitchthreshold@@3PAUcvar_s@@A 100c17c4     inputw32.obj
 0003:000317c8       ?joy_id@@3HA               100c17c8     inputw32.obj
 0003:000317d0       ?mouse_oldbuttonstate@@3HA 100c17d0     inputw32.obj
 0003:000317d4       ?mouse_buttons@@3HA        100c17d4     inputw32.obj
 0003:000317d8       ?joy_flags@@3KA            100c17d8     inputw32.obj
 0003:000317e0       ?joy_pitchsensitivity@@3PAUcvar_s@@A 100c17e0     inputw32.obj
 0003:000317e4       ?sensitivity@@3PAUcvar_s@@A 100c17e4     inputw32.obj
 0003:000317e8       ?mx_accum@@3HA             100c17e8     inputw32.obj
 0003:000317ec       ?joy_haspov@@3HA           100c17ec     inputw32.obj
 0003:000317f0       ?g_iVisibleMouse@@3HA      100c17f0     inputw32.obj
 0003:000317f4       ?g_szPrelocalisedMenuString@@3PADA 100c17f4     menu.obj
 0003:000319f4       ?g_szMenuString@@3PADA     100c19f4     menu.obj
 0003:00031bf8       ?g_pCustomMessage@@3Uclient_textmessage_s@@A 100c1bf8     message.obj
 0003:00031c24       ?g_pCustomText@@3PADA      100c1c24     message.obj
 0003:00032834       _vec3_origin               100c2834     pm_math.obj
 0003:000348cc       _pmove                     100c48cc     pm_shared.obj
 0003:000348d4       _g_onladder                100c48d4     pm_shared.obj
 0003:000348e0       ?flRulerTime@@3NA          100c48e0     ruler.obj
 0003:000348e8       ?firstRulerPoint@@3Ucl_rulerPoint@@A 100c48e8     ruler.obj
 0003:00034900       ?autostopsaveSphereVertices@@3V?$vector@MV?$allocator@M@std@@@std@@A 100c4900     ruler.obj
 0003:00034910       ?flRulerTimeDelta@@3NA     100c4910     ruler.obj
 0003:00034918       ?autostopsavePoint@@3PAUcl_rulerPoint@@A 100c4918     ruler.obj
 0003:0003491c       ?autostopsaveSphere@@3PAUcl_sphere@@A 100c491c     ruler.obj
 0003:00034920       ?autostopsaveCmdExecuted@@3_NA 100c4920     ruler.obj
 0003:00034928       ?flRulerOldTime@@3NA       100c4928     ruler.obj
 0003:00039de0       ?IEngineStudio@@3Uengine_studio_api_s@@A 100c9de0     StudioModelRenderer.obj
 0003:0003ac90       ?vec3_origin@@3VVector@@A  100cac90     util.obj
 0003:0003cce8       ?g_CV_BitmapFonts@@3PAUcvar_s@@A 100ccce8     vgui_SchemeManager.obj
 0003:0003ccf0       ?g_TeamInfo@@3PAUteam_info_t@@A 100cccf0     vgui_ScorePanel.obj
 0003:0003d718       ?g_PlayerInfoList@@3PAUhud_player_info_s@@A 100cd718     vgui_ScorePanel.obj
 0003:0003dc2c       ?g_IsSpectator@@3PAHA      100cdc2c     vgui_ScorePanel.obj
 0003:0003dd30       ?g_PlayerExtraInfo@@3PAUextra_player_info_t@@A 100cdd30     vgui_ScorePanel.obj
 0003:0003e364       ?g_iPlayerClass@@3HA       100ce364     vgui_TeamFortressViewport.obj
 0003:0003e468       ?g_iUser1@@3HA             100ce468     vgui_TeamFortressViewport.obj
 0003:0003e46c       ?g_iUser3@@3HA             100ce46c     vgui_TeamFortressViewport.obj
 0003:0003e470       ?g_iUser2@@3HA             100ce470     vgui_TeamFortressViewport.obj
 0003:0003e474       ?g_iTeamNumber@@3HA        100ce474     vgui_TeamFortressViewport.obj
 0003:0003e4b8       ?v_origin@@3VVector@@A     100ce4b8     view.obj
 0003:0003e4cc       ?v_lastDistance@@3MA       100ce4cc     view.obj
 0003:0003e4d0       ?v_lastAngles@@3VVector@@A 100ce4d0     view.obj
 0003:0003e4dc       _vecNewViewAngles          100ce4dc     view.obj
 0003:0003e4e8       ?g_acceleration_negative@@3_NA 100ce4e8     view.obj
 0003:0003e4ec       _vecNewViewOrigin          100ce4ec     view.obj
 0003:0003e4f8       ?v_centermove@@3PAUcvar_s@@A 100ce4f8     view.obj
 0003:0003e500       ?accel@@3VVector@@A        100ce500     view.obj
 0003:0003e510       ?v_cl_angles@@3VVector@@A  100ce510     view.obj
 0003:0003e520       ?g_vecViewAngle@@3VVector@@A 100ce520     view.obj
 0003:0003e530       ?jspeed@@3NA               100ce530     view.obj
 0003:0003e544       ?v_idlescale@@3MA          100ce544     view.obj
 0003:0003e570       ?ev_punchangle@@3VVector@@A 100ce570     view.obj
 0003:0003e57c       ?cl_bobcycle@@3PAUcvar_s@@A 100ce57c     view.obj
 0003:0003e580       ?v_sim_org@@3VVector@@A    100ce580     view.obj
 0003:0003e58c       ?v_frametime@@3MA          100ce58c     view.obj
 0003:0003e590       _iHasNewViewAngles         100ce590     view.obj
 0003:0003e5a0       ?g_bPaused@@3_NA           100ce5a0     view.obj
 0003:0003e5b8       ?v_angles@@3VVector@@A     100ce5b8     view.obj
 0003:0003e5c4       ?cl_waterdist@@3PAUcvar_s@@A 100ce5c4     view.obj
 0003:0003e5c8       _iIsSpectator              100ce5c8     view.obj
 0003:0003e5cc       _iHasNewViewOrigin         100ce5cc     view.obj
 0003:0003e5d0       ?v_centerspeed@@3PAUcvar_s@@A 100ce5d0     view.obj
 0003:0003ede0       ?jspeeddelta@@3NA          100cede0     view.obj
 0003:0003ede8       _vJumpAngles               100cede8     view.obj
 0003:0003edf4       ?view@@3PAUcl_entity_s@@A  100cedf4     view.obj
 0003:0003edf8       ?cl_bob@@3PAUcvar_s@@A     100cedf8     view.obj
 0003:0003ee00       ?g_org@@3VVector@@A        100cee00     view.obj
 0003:0003ee18       _vJumpOrigin               100cee18     view.obj
 0003:0003ee28       ?g_acceleration@@3NA       100cee28     view.obj
 0003:0003ee30       ?scr_ofsx@@3PAUcvar_s@@A   100cee30     view.obj
 0003:0003ee34       ?scr_ofsz@@3PAUcvar_s@@A   100cee34     view.obj
 0003:0003ee38       ?scr_ofsy@@3PAUcvar_s@@A   100cee38     view.obj
 0003:0003ee3c       ?cl_bobup@@3PAUcvar_s@@A   100cee3c     view.obj
 0003:0003ee48       ?g_vel@@3VVector@@A        100cee48     view.obj
 0003:0003ee54       ?cl_chasedist@@3PAUcvar_s@@A 100cee54     view.obj
 0003:0003ee64       ?v_oldground@@3HA          100cee64     view.obj
 0003:0003ee68       ?v_onground@@3HA           100cee68     view.obj
 0003:0003ee70       ?oldjspeed@@3NA            100cee70     view.obj
 0003:0003ee78       ?jcounter@@3HA             100cee78     view.obj
 0003:0003ee7c       ?update_counter@@3HA       100cee7c     view.obj
 0003:0003ee80       ___fastflag                100cee80     LIBCMT:fpinit.obj
 0003:0003ee84       __adjust_fdiv              100cee84     LIBCMT:fpinit.obj
 0003:0003ee88       __umaskval                 100cee88     LIBCMT:crt0dat.obj
 0003:0003ee8c       __osver                    100cee8c     LIBCMT:crt0dat.obj
 0003:0003ee90       __winver                   100cee90     LIBCMT:crt0dat.obj
 0003:0003ee94       __winmajor                 100cee94     LIBCMT:crt0dat.obj
 0003:0003ee98       __winminor                 100cee98     LIBCMT:crt0dat.obj
 0003:0003ee9c       ___argc                    100cee9c     LIBCMT:crt0dat.obj
 0003:0003eea0       ___argv                    100ceea0     LIBCMT:crt0dat.obj
 0003:0003eea4       ___wargv                   100ceea4     LIBCMT:crt0dat.obj
 0003:0003eea8       __environ                  100ceea8     LIBCMT:crt0dat.obj
 0003:0003eeac       ___initenv                 100ceeac     LIBCMT:crt0dat.obj
 0003:0003eeb0       __wenviron                 100ceeb0     LIBCMT:crt0dat.obj
 0003:0003eeb4       ___winitenv                100ceeb4     LIBCMT:crt0dat.obj
 0003:0003eeb8       __pgmptr                   100ceeb8     LIBCMT:crt0dat.obj
 0003:0003eebc       __wpgmptr                  100ceebc     LIBCMT:crt0dat.obj
 0003:0003eec0       __exitflag                 100ceec0     LIBCMT:crt0dat.obj
 0003:0003eec4       __C_Termination_Done       100ceec4     LIBCMT:crt0dat.obj
 0003:0003eec8       __C_Exit_Done              100ceec8     LIBCMT:crt0dat.obj
 0003:0003eeec       __aenvptr                  100ceeec     LIBCMT:dllcrt0.obj
 0003:0003eef0       __wenvptr                  100ceef0     LIBCMT:dllcrt0.obj
 0003:0003eef4       ___error_mode              100ceef4     LIBCMT:dllcrt0.obj
 0003:0003eef8       ___app_type                100ceef8     LIBCMT:dllcrt0.obj
 0003:0003ef60       __cflush                   100cef60     LIBCMT:_file.obj
 0003:0003ef64       __newmode                  100cef64     LIBCMT:_newmode.obj
 0003:0003ef68       ?_pnhHeap@@3P6AHI@ZA       100cef68     LIBCMT:handler.obj
 0003:0003ef6c       __stdbuf                   100cef6c     LIBCMT:_sftbuf.obj
 0003:0003ef80       ___lc_handle               100cef80     LIBCMT:nlsdata2.obj
 0003:0003ef98       ___lc_codepage             100cef98     LIBCMT:nlsdata2.obj
 0003:0003ef9c       ___lc_collate_cp           100cef9c     LIBCMT:nlsdata2.obj
 0003:0003f0b0       __adbgmsg                  100cf0b0     LIBCMT:crt0msg.obj
 0003:0003f0b8       __commode                  100cf0b8     LIBCMT:ncommode.obj
 0003:0003f17c       ___lc_time_intl            100cf17c     LIBCMT:inittime.obj
 0003:0003f198       ___lc_id                   100cf198     LIBCMT:nlsdata3.obj
 0003:0003f204       __fmode                    100cf204     LIBCMT:txtmode.obj
 0003:0003f210       ___lconv_static_null       100cf210     LIBCMT:lconv.obj
 0003:0003f224       _iJumpSpectator            100cf224     <common>
 0003:0003f228       ___mbcodepage              100cf228     <common>
 0003:0003f230       ___mbulinfo                100cf230     <common>
 0003:0003f23c       ___ismbcodepage            100cf23c     <common>
 0003:0003f240       __mbcasemap                100cf240     <common>
 0003:0003f340       __mbctype                  100cf340     <common>
 0003:0003f444       ___mblcid                  100cf444     <common>
 0003:0003f448       ___setlc_active            100cf448     <common>
 0003:0003f44c       ___unguarded_readlc_active 100cf44c     <common>
 0003:0003f450       ___sbh_sizeHeaderList      100cf450     <common>
 0003:0003f454       ___sbh_indGroupDefer       100cf454     <common>
 0003:0003f458       ___sbh_pHeaderScan         100cf458     <common>
 0003:0003f45c       ___sbh_pHeaderDefer        100cf45c     <common>
 0003:0003f460       ___sbh_cntHeaderList       100cf460     <common>
 0003:0003f464       ___sbh_pHeaderList         100cf464     <common>
 0003:0003f468       __crtheap                  100cf468     <common>
 0003:0003f480       ___pioinfo                 100cf480     <common>
 0003:0003f580       __nhandle                  100cf580     <common>
 0003:0003f584       ___piob                    100cf584     <common>
 0003:0003f5a0       __bufin                    100cf5a0     <common>
 0003:000405a0       __nstream                  100d05a0     <common>
 0003:000405a4       __acmdln                   100d05a4     <common>
 0003:000405a8       __pRawDllMain              100d05a8     <common>
 0003:000405ac       ___env_initialized         100d05ac     <common>
 0003:000405b0       ___mbctype_initialized     100d05b0     <common>
 0003:000405b4       ___onexitend               100d05b4     <common>
 0003:000405b8       ___onexitbegin             100d05b8     <common>

 entry point at        0001:00067445

 Static symbols

 0001:0005f830       _$E15                      10060830 f   view.obj
 0001:0005f83a       _$E14                      1006083a f   view.obj
 0001:0005f871       _$E18                      10060871 f   view.obj
 0001:0005f87b       _$E17                      1006087b f   view.obj
 0001:0005f88a       _$E21                      1006088a f   view.obj
 0001:0005f894       _$E20                      10060894 f   view.obj
 0001:0005fca5       _$E25                      10060ca5 f   view.obj
 0001:0005fcaa       _$E24                      10060caa f   view.obj
 0001:00060765       _$E27                      10061765 f   view.obj
 0001:0006076f       _$E26                      1006176f f   view.obj
 0001:00060788       _$E30                      10061788 f   view.obj
 0001:00060792       _$E29                      10061792 f   view.obj
 0001:00063906       _$E33                      10064906 f   view.obj
 0001:0004d18c       ?LoadFileByResolution@@YAPAEPBDH0@Z 1004e18c f   vgui_SchemeManager.obj
 0001:0004d236       ?ParseRGBAFromString@@YAXQAEPBD@Z 1004e236 f   vgui_SchemeManager.obj
 0001:0004d284       _$E15                      1004e284 f   vgui_SchemeManager.obj
 0001:00044d40       _$E15                      10045d40 f   util.obj
 0001:00044d4a       _$E14                      10045d4a f   util.obj
 0001:0003bad0       _$E16                      1003cad0 f   ruler.obj
 0001:0003bada       _$E15                      1003cada f   ruler.obj
 0001:0003bae9       _$E21                      1003cae9 f   ruler.obj
 0001:0003baf8       _$E18                      1003caf8 f   ruler.obj
 0001:0003bb0e       _$E20                      1003cb0e f   ruler.obj
 0001:0003bb20       _$E19                      1003cb20 f   ruler.obj
 0001:00030012       _$E32                      10031012 f   input.obj
 0001:0002dbc0       _$E15                      1002ebc0 f   in_camera.obj
 0001:0002dbca       _$E14                      1002ebca f   in_camera.obj
 0001:000259c0       _$E49                      100269c0 f   hud.obj
 0001:000259cf       _$E46                      100269cf f   hud.obj
 0001:000259de       _$E48                      100269de f   hud.obj
 0001:000259f0       _$E47                      100269f0 f   hud.obj
 0001:00023700       _$E17                      10024700 f   GameStudioModelRenderer.obj
 0001:0002370f       _$E14                      1002470f f   GameStudioModelRenderer.obj
 0001:0002371e       _$E16                      1002471e f   GameStudioModelRenderer.obj
 0001:00023730       _$E15                      10024730 f   GameStudioModelRenderer.obj
 0001:0001eb4c       _$E15                      1001fb4c f   custom_hud.obj
 0001:0001eb56       _$E14                      1001fb56 f   custom_hud.obj
 0001:0001eb65       _$E18                      1001fb65 f   custom_hud.obj
 0001:0001eb6f       _$E17                      1001fb6f f   custom_hud.obj
 0001:0001eb7e       _$E21                      1001fb7e f   custom_hud.obj
 0001:0001eb88       _$E20                      1001fb88 f   custom_hud.obj
 0001:0001e0e0       _$E18                      1001f0e0 f   cdll_int.obj
 0001:0001e0ef       _$E15                      1001f0ef f   cdll_int.obj
 0001:0001e0fe       _$E17                      1001f0fe f   cdll_int.obj
 0001:0001e110       _$E16                      1001f110 f   cdll_int.obj
 0001:00017020       _$E18                      10018020 f   voice_status.obj
 0001:0001702f       _$E15                      1001802f f   voice_status.obj
 0001:0001703e       _$E17                      1001803e f   voice_status.obj
 0001:00017050       _$E16                      10018050 f   voice_status.obj
 0001:0000b890       _$E20                      1000c890 f   hl_weapons.obj
 0001:0000b89a       _$E19                      1000c89a f   hl_weapons.obj
 0001:0000b8b5       _$E23                      1000c8b5 f   hl_weapons.obj
 0001:0000b8bf       _$E22                      1000c8bf f   hl_weapons.obj
 0001:0000b8ce       _$E26                      1000c8ce f   hl_weapons.obj
 0001:0000b8d8       _$E25                      1000c8d8 f   hl_weapons.obj
 0001:0000b8e7       _$E29                      1000c8e7 f   hl_weapons.obj
 0001:0000b8f1       _$E28                      1000c8f1 f   hl_weapons.obj
 0001:0000b900       _$E32                      1000c900 f   hl_weapons.obj
 0001:0000b90a       _$E31                      1000c90a f   hl_weapons.obj
 0001:0000b919       _$E35                      1000c919 f   hl_weapons.obj
 0001:0000b923       _$E34                      1000c923 f   hl_weapons.obj
 0001:0000b932       _$E38                      1000c932 f   hl_weapons.obj
 0001:0000b93c       _$E37                      1000c93c f   hl_weapons.obj
 0001:0000b94b       _$E41                      1000c94b f   hl_weapons.obj
 0001:0000b955       _$E40                      1000c955 f   hl_weapons.obj
 0001:0000b964       _$E44                      1000c964 f   hl_weapons.obj
 0001:0000b96e       _$E43                      1000c96e f   hl_weapons.obj
 0001:0000b97d       _$E47                      1000c97d f   hl_weapons.obj
 0001:0000b987       _$E46                      1000c987 f   hl_weapons.obj
 0001:0000b996       _$E50                      1000c996 f   hl_weapons.obj
 0001:0000b9a0       _$E49                      1000c9a0 f   hl_weapons.obj
 0001:0000b9af       _$E53                      1000c9af f   hl_weapons.obj
 0001:0000b9b9       _$E52                      1000c9b9 f   hl_weapons.obj
 0001:0000b9c8       _$E56                      1000c9c8 f   hl_weapons.obj
 0001:0000b9d2       _$E55                      1000c9d2 f   hl_weapons.obj
 0001:0000b9e1       _$E59                      1000c9e1 f   hl_weapons.obj
 0001:0000b9eb       _$E58                      1000c9eb f   hl_weapons.obj
 0001:0000b9fa       _$E62                      1000c9fa f   hl_weapons.obj
 0001:0000ba04       _$E61                      1000ca04 f   hl_weapons.obj
 0001:0000ba13       _$E65                      1000ca13 f   hl_weapons.obj
 0001:0000ba1d       _$E64                      1000ca1d f   hl_weapons.obj
 0001:0000ba2c       _$E68                      1000ca2c f   hl_weapons.obj
 0001:0000ba36       _$E67                      1000ca36 f   hl_weapons.obj
 0001:0000ba45       _$E71                      1000ca45 f   hl_weapons.obj
 0001:0000ba4f       _$E70                      1000ca4f f   hl_weapons.obj
 0001:0000a610       _$E20                      1000b610 f   hl_baseentity.obj
 0001:0000a61a       _$E19                      1000b61a f   hl_baseentity.obj
 0001:000056e7       _$E15                      100066e7 f   ev_hldm.obj
 0001:000056f1       _$E14                      100066f1 f   ev_hldm.obj
 0001:00005700       _$E18                      10006700 f   ev_hldm.obj
 0001:0000570a       _$E17                      1000670a f   ev_hldm.obj
 0001:00071853       _findenv                   10072853 f   LIBCMT:setenv.obj
 0001:000718ab       _copy_environ              100728ab f   LIBCMT:setenv.obj
 0001:0006da16       _strncnt                   1006ea16 f   LIBCMT:a_map.obj
 0001:000708b9       _siglookup                 100718b9 f   LIBCMT:winsig.obj
 0001:00070467       _getSystemCP               10071467 f   LIBCMT:mbctype.obj
 0001:000704b1       _CPtoLCID                  100714b1 f   LIBCMT:mbctype.obj
 0001:000704e4       _setSBCS                   100714e4 f   LIBCMT:mbctype.obj
 0001:0007050d       _setSBUpLow                1007150d f   LIBCMT:mbctype.obj
 0001:0006fc0e       __tzset_lk                 10070c0e f   LIBCMT:tzset.obj
 0001:0006feb6       __isindst_lk               10070eb6 f   LIBCMT:tzset.obj
 0001:00070062       _cvtdate                   10071062 f   LIBCMT:tzset.obj
 0001:0006e281       __abstract_cw              1006f281 f   LIBCMT:ieee87.obj
 0001:0006e313       __hw_cw                    1006f313 f   LIBCMT:ieee87.obj
 0001:0006ddbe       _parse_cmdline             1006edbe f   LIBCMT:stdargv.obj
 0001:0006da16       _strncnt                   1006ea16 f   LIBCMT:a_map.obj
 0001:0006d76c       fFATN2                     1006e76c f   LIBCMT:87triga.obj
 0001:0006d7e2       _rtforatnby0               1006e7e2 f   LIBCMT:87triga.obj
 0001:0006d7c5       _rtforatn20                1006e7c5 f   LIBCMT:87triga.obj
 0001:0006d3c1       fFEXP                      1006e3c1 f   LIBCMT:87tran.obj
 0001:0006d501       _rtforexpinf               1006e501 f   LIBCMT:87tran.obj
 0001:0006d069       __get_fname                1006e069 f   LIBCMT:fpexcept.obj
 0001:0006c8c0       __hextodec                 1006d8c0 f   LIBCMT:input.obj
 0001:0006c8f7       __inc                      1006d8f7 f   LIBCMT:input.obj
 0001:0006c911       __un_inc                   1006d911 f   LIBCMT:input.obj
 0001:0006c928       __whiteout                 1006d928 f   LIBCMT:input.obj
 0001:0006b234       label0                     1006c234 f   LIBCMT:adj_fdiv.obj
 0001:0006b23a       label1                     1006c23a f   LIBCMT:adj_fdiv.obj
 0001:0006b23f       label2                     1006c23f f   LIBCMT:adj_fdiv.obj
 0001:0006b245       label3                     1006c245 f   LIBCMT:adj_fdiv.obj
 0001:0006b24a       label4                     1006c24a f   LIBCMT:adj_fdiv.obj
 0001:0006b250       label5                     1006c250 f   LIBCMT:adj_fdiv.obj
 0001:0006b256       label6                     1006c256 f   LIBCMT:adj_fdiv.obj
 0001:0006b25c       label7                     1006c25c f   LIBCMT:adj_fdiv.obj
 0001:0006b262       label8                     1006c262 f   LIBCMT:adj_fdiv.obj
 0001:0006b27e       label9                     1006c27e f   LIBCMT:adj_fdiv.obj
 0001:0006b283       label10                    1006c283 f   LIBCMT:adj_fdiv.obj
 0001:0006b299       label11                    1006c299 f   LIBCMT:adj_fdiv.obj
 0001:0006b29e       label12                    1006c29e f   LIBCMT:adj_fdiv.obj
 0001:0006b2ba       label13                    1006c2ba f   LIBCMT:adj_fdiv.obj
 0001:0006b2ca       label14                    1006c2ca f   LIBCMT:adj_fdiv.obj
 0001:0006b2de       label15                    1006c2de f   LIBCMT:adj_fdiv.obj
 0001:0006b2ee       label16                    1006c2ee f   LIBCMT:adj_fdiv.obj
 0001:0006b30e       label17                    1006c30e f   LIBCMT:adj_fdiv.obj
 0001:0006b313       label18                    1006c313 f   LIBCMT:adj_fdiv.obj
 0001:0006b32d       label19                    1006c32d f   LIBCMT:adj_fdiv.obj
 0001:0006b332       label20                    1006c332 f   LIBCMT:adj_fdiv.obj
 0001:0006b352       label21                    1006c352 f   LIBCMT:adj_fdiv.obj
 0001:0006b366       label22                    1006c366 f   LIBCMT:adj_fdiv.obj
 0001:0006b37e       label23                    1006c37e f   LIBCMT:adj_fdiv.obj
 0001:0006b392       label24                    1006c392 f   LIBCMT:adj_fdiv.obj
 0001:0006b3b2       label25                    1006c3b2 f   LIBCMT:adj_fdiv.obj
 0001:0006b3b7       label26                    1006c3b7 f   LIBCMT:adj_fdiv.obj
 0001:0006b3d1       label27                    1006c3d1 f   LIBCMT:adj_fdiv.obj
 0001:0006b3d6       label28                    1006c3d6 f   LIBCMT:adj_fdiv.obj
 0001:0006b3f6       label29                    1006c3f6 f   LIBCMT:adj_fdiv.obj
 0001:0006b40a       label30                    1006c40a f   LIBCMT:adj_fdiv.obj
 0001:0006b422       label31                    1006c422 f   LIBCMT:adj_fdiv.obj
 0001:0006b436       label32                    1006c436 f   LIBCMT:adj_fdiv.obj
 0001:0006b456       label33                    1006c456 f   LIBCMT:adj_fdiv.obj
 0001:0006b45b       label34                    1006c45b f   LIBCMT:adj_fdiv.obj
 0001:0006b475       label35                    1006c475 f   LIBCMT:adj_fdiv.obj
 0001:0006b47a       label36                    1006c47a f   LIBCMT:adj_fdiv.obj
 0001:0006b49a       label37                    1006c49a f   LIBCMT:adj_fdiv.obj
 0001:0006b4ae       label38                    1006c4ae f   LIBCMT:adj_fdiv.obj
 0001:0006b4c6       label39                    1006c4c6 f   LIBCMT:adj_fdiv.obj
 0001:0006b4da       label40                    1006c4da f   LIBCMT:adj_fdiv.obj
 0001:0006b4fa       label41                    1006c4fa f   LIBCMT:adj_fdiv.obj
 0001:0006b4ff       label42                    1006c4ff f   LIBCMT:adj_fdiv.obj
 0001:0006b519       label43                    1006c519 f   LIBCMT:adj_fdiv.obj
 0001:0006b51e       label44                    1006c51e f   LIBCMT:adj_fdiv.obj
 0001:0006b53e       label45                    1006c53e f   LIBCMT:adj_fdiv.obj
 0001:0006b552       label46                    1006c552 f   LIBCMT:adj_fdiv.obj
 0001:0006b56a       label47                    1006c56a f   LIBCMT:adj_fdiv.obj
 0001:0006b57e       label48                    1006c57e f   LIBCMT:adj_fdiv.obj
 0001:0006b59e       label49                    1006c59e f   LIBCMT:adj_fdiv.obj
 0001:0006b5a3       label50                    1006c5a3 f   LIBCMT:adj_fdiv.obj
 0001:0006b5bd       label51                    1006c5bd f   LIBCMT:adj_fdiv.obj
 0001:0006b5c2       label52                    1006c5c2 f   LIBCMT:adj_fdiv.obj
 0001:0006b5e2       label53                    1006c5e2 f   LIBCMT:adj_fdiv.obj
 0001:0006b5f6       label54                    1006c5f6 f   LIBCMT:adj_fdiv.obj
 0001:0006b60e       label55                    1006c60e f   LIBCMT:adj_fdiv.obj
 0001:0006b622       label56                    1006c622 f   LIBCMT:adj_fdiv.obj
 0001:0006b642       label57                    1006c642 f   LIBCMT:adj_fdiv.obj
 0001:0006b647       label58                    1006c647 f   LIBCMT:adj_fdiv.obj
 0001:0006b661       label59                    1006c661 f   LIBCMT:adj_fdiv.obj
 0001:0006b666       label60                    1006c666 f   LIBCMT:adj_fdiv.obj
 0001:0006b686       label61                    1006c686 f   LIBCMT:adj_fdiv.obj
 0001:0006b69a       label62                    1006c69a f   LIBCMT:adj_fdiv.obj
 0001:0006b6b2       label63                    1006c6b2 f   LIBCMT:adj_fdiv.obj
 0001:00069537       _flsall                    1006a537 f   LIBCMT:fflush.obj
 0001:00069065       _write_char                1006a065 f   LIBCMT:output.obj
 0001:0006909a       _write_multi_char          1006a09a f   LIBCMT:output.obj
 0001:000690cb       _write_string              1006a0cb f   LIBCMT:output.obj
 0001:00069103       _get_int_arg               1006a103 f   LIBCMT:output.obj
 0001:00069110       _get_int64_arg             1006a110 f   LIBCMT:output.obj
 0001:00069120       _get_short_arg             1006a120 f   LIBCMT:output.obj
 0001:00067a4f       ?FindHandler@@YAXPAUEHExceptionRecord@@PAUEHRegistrationNode@@PAU_CONTEXT@@PAXPBU_s_FuncInfo@@EH1@Z 10068a4f f   LIBCMT:frame.obj
 0001:00067c02       ?FindHandlerForForeignException@@YAXPAUEHExceptionRecord@@PAUEHRegistrationNode@@PAU_CONTEXT@@PAXPBU_s_FuncInfo@@HH1@Z 10068c02 f   LIBCMT:frame.obj
 0001:00067cac       ?TypeMatch@@YAHPBU_s_HandlerType@@PBU_s_CatchableType@@PBU_s_ThrowInfo@@@Z 10068cac f   LIBCMT:frame.obj
 0001:00067240       ?FrameUnwindFilter@@YAHPAU_EXCEPTION_POINTERS@@@Z 10068240 f   LIBCMT:ehvecdtr.obj
 0001:00067da7       ?CatchIt@@YAXPAUEHExceptionRecord@@PAUEHRegistrationNode@@PAU_CONTEXT@@PAXPBU_s_FuncInfo@@PBU_s_HandlerType@@PBU_s_CatchableType@@PBU_s_TryBlockMapEntry@@H1E@Z 10068da7 f   LIBCMT:frame.obj
 0001:00067e22       ?CallCatchBlock@@YAPAXPAUEHExceptionRecord@@PAUEHRegistrationNode@@PAU_CONTEXT@@PBU_s_FuncInfo@@PAXHK@Z 10068e22 f   LIBCMT:frame.obj
 0001:00067f3d       ?ExFilterRethrow@@YAHPAU_EXCEPTION_POINTERS@@@Z 10068f3d f   LIBCMT:frame.obj
 0001:00067f67       ?BuildCatchObject@@YAXPAUEHExceptionRecord@@PAUEHRegistrationNode@@PBU_s_HandlerType@@PBU_s_CatchableType@@@Z 10068f67 f   LIBCMT:frame.obj
 0001:00068192       ?AdjustPointer@@YAPAXPAXABUPMD@@@Z 10069192 f   LIBCMT:frame.obj
 0001:000676ed       __cftoe2                   100686ed f   LIBCMT:cvt.obj
 0001:00067804       __cftof2                   10068804 f   LIBCMT:cvt.obj
 0001:0006798f       __shift                    1006898f f   LIBCMT:cvt.obj
 0001:00067240       ?ArrayUnwindFilter@@YAHPAU_EXCEPTION_POINTERS@@@Z 10068240 f   LIBCMT:ehvecdtr.obj
 0001:000669cc       _shortsort                 100679cc f   LIBCMT:qsort.obj
 0001:00066a1a       _swap                      10067a1a f   LIBCMT:qsort.obj
 0001:00066040       LeadUp1                    10067040 f   LIBCMT:memmove.obj
 0001:0006606c       LeadUp2                    1006706c f   LIBCMT:memmove.obj
 0001:00066090       LeadUp3                    10067090 f   LIBCMT:memmove.obj
 0001:0006610f       UnwindUp0                  1006710f f   LIBCMT:memmove.obj
 0001:000660fc       UnwindUp1                  100670fc f   LIBCMT:memmove.obj
 0001:000660f4       UnwindUp2                  100670f4 f   LIBCMT:memmove.obj
 0001:000660ec       UnwindUp3                  100670ec f   LIBCMT:memmove.obj
 0001:000660e4       UnwindUp4                  100670e4 f   LIBCMT:memmove.obj
 0001:000660dc       UnwindUp5                  100670dc f   LIBCMT:memmove.obj
 0001:000660d4       UnwindUp6                  100670d4 f   LIBCMT:memmove.obj
 0001:000660cc       UnwindUp7                  100670cc f   LIBCMT:memmove.obj
 0001:00066128       TrailUp0                   10067128 f   LIBCMT:memmove.obj
 0001:00066130       TrailUp1                   10067130 f   LIBCMT:memmove.obj
 0001:0006613c       TrailUp2                   1006713c f   LIBCMT:memmove.obj
 0001:00066150       TrailUp3                   10067150 f   LIBCMT:memmove.obj
 0001:000661c8       LeadDown1                  100671c8 f   LIBCMT:memmove.obj
 0001:000661e8       LeadDown2                  100671e8 f   LIBCMT:memmove.obj
 0001:00066210       LeadDown3                  10067210 f   LIBCMT:memmove.obj
 0001:00066264       UnwindDown7                10067264 f   LIBCMT:memmove.obj
 0001:0006626c       UnwindDown6                1006726c f   LIBCMT:memmove.obj
 0001:00066274       UnwindDown5                10067274 f   LIBCMT:memmove.obj
 0001:0006627c       UnwindDown4                1006727c f   LIBCMT:memmove.obj
 0001:00066284       UnwindDown3                10067284 f   LIBCMT:memmove.obj
 0001:0006628c       UnwindDown2                1006728c f   LIBCMT:memmove.obj
 0001:00066294       UnwindDown1                10067294 f   LIBCMT:memmove.obj
 0001:000662a7       UnwindDown0                100672a7 f   LIBCMT:memmove.obj
 0001:000662c0       TrailDown0                 100672c0 f   LIBCMT:memmove.obj
 0001:000662c8       TrailDown1                 100672c8 f   LIBCMT:memmove.obj
 0001:000662d8       TrailDown2                 100672d8 f   LIBCMT:memmove.obj
 0001:000662ec       TrailDown3                 100672ec f   LIBCMT:memmove.obj
 0001:00065e64       fFMOD                      10066e64 f   LIBCMT:87fmod.obj
 0001:000658e0       LeadUp1                    100668e0 f   LIBCMT:memcpy.obj
 0001:0006590c       LeadUp2                    1006690c f   LIBCMT:memcpy.obj
 0001:00065930       LeadUp3                    10066930 f   LIBCMT:memcpy.obj
 0001:000659af       UnwindUp0                  100669af f   LIBCMT:memcpy.obj
 0001:0006599c       UnwindUp1                  1006699c f   LIBCMT:memcpy.obj
 0001:00065994       UnwindUp2                  10066994 f   LIBCMT:memcpy.obj
 0001:0006598c       UnwindUp3                  1006698c f   LIBCMT:memcpy.obj
 0001:00065984       UnwindUp4                  10066984 f   LIBCMT:memcpy.obj
 0001:0006597c       UnwindUp5                  1006697c f   LIBCMT:memcpy.obj
 0001:00065974       UnwindUp6                  10066974 f   LIBCMT:memcpy.obj
 0001:0006596c       UnwindUp7                  1006696c f   LIBCMT:memcpy.obj
 0001:000659c8       TrailUp0                   100669c8 f   LIBCMT:memcpy.obj
 0001:000659d0       TrailUp1                   100669d0 f   LIBCMT:memcpy.obj
 0001:000659dc       TrailUp2                   100669dc f   LIBCMT:memcpy.obj
 0001:000659f0       TrailUp3                   100669f0 f   LIBCMT:memcpy.obj
 0001:00065a68       LeadDown1                  10066a68 f   LIBCMT:memcpy.obj
 0001:00065a88       LeadDown2                  10066a88 f   LIBCMT:memcpy.obj
 0001:00065ab0       LeadDown3                  10066ab0 f   LIBCMT:memcpy.obj
 0001:00065b04       UnwindDown7                10066b04 f   LIBCMT:memcpy.obj
 0001:00065b0c       UnwindDown6                10066b0c f   LIBCMT:memcpy.obj
 0001:00065b14       UnwindDown5                10066b14 f   LIBCMT:memcpy.obj
 0001:00065b1c       UnwindDown4                10066b1c f   LIBCMT:memcpy.obj
 0001:00065b24       UnwindDown3                10066b24 f   LIBCMT:memcpy.obj
 0001:00065b2c       UnwindDown2                10066b2c f   LIBCMT:memcpy.obj
 0001:00065b34       UnwindDown1                10066b34 f   LIBCMT:memcpy.obj
 0001:00065b47       UnwindDown0                10066b47 f   LIBCMT:memcpy.obj
 0001:00065b60       TrailDown0                 10066b60 f   LIBCMT:memcpy.obj
 0001:00065b68       TrailDown1                 10066b68 f   LIBCMT:memcpy.obj
 0001:00065b78       TrailDown2                 10066b78 f   LIBCMT:memcpy.obj
 0001:00065b8c       TrailDown3                 10066b8c f   LIBCMT:memcpy.obj
 0001:000650e6       _doexit                    100660e6 f   LIBCMT:crt0dat.obj
 0001:0006519d       __initterm                 1006619d f   LIBCMT:crt0dat.obj
 0001:00064c74       _gu_return                 10065c74 f   LIBCMT:exsup.obj
 0001:00064c7c       __unwind_handler           10065c7c f   LIBCMT:exsup.obj
 0001:00064a8f       ?CatchGuardHandler@@YA?AW4_EXCEPTION_DISPOSITION@@PAUEHExceptionRecord@@PAUCatchGuardRN@@PAX2@Z 10065a8f f   LIBCMT:trnsctrl.obj
 0001:00064b6a       ?TranslatorGuardHandler@@YA?AW4_EXCEPTION_DISPOSITION@@PAUEHExceptionRecord@@PAUTranslatorGuardRN@@PAX2@Z 10065b6a f   LIBCMT:trnsctrl.obj

 21460 bytes saved through ICF

